ARM GAS  C:\Users\MOROSH~1\AppData\Local\Temp\ccIds1xM.s 			page 1


   1              		.cpu cortex-m4
   2              		.arch armv7e-m
   3              		.fpu fpv4-sp-d16
   4              		.eabi_attribute 27, 1
   5              		.eabi_attribute 28, 1
   6              		.eabi_attribute 20, 1
   7              		.eabi_attribute 21, 1
   8              		.eabi_attribute 23, 3
   9              		.eabi_attribute 24, 1
  10              		.eabi_attribute 25, 1
  11              		.eabi_attribute 26, 1
  12              		.eabi_attribute 30, 1
  13              		.eabi_attribute 34, 1
  14              		.eabi_attribute 18, 4
  15              		.file	"u8g2_input_value.c"
  16              		.text
  17              	.Ltext0:
  18              		.cfi_sections	.debug_frame
  19              		.section	.rodata.u8g2_UserInterfaceInputValue.str1.4,"aMS",%progbits,1
  20              		.align	2
  21              	.LC0:
  22 0000 3000     		.ascii	"0\000"
  23              		.section	.text.u8g2_UserInterfaceInputValue,"ax",%progbits
  24              		.align	1
  25              		.global	u8g2_UserInterfaceInputValue
  26              		.syntax unified
  27              		.thumb
  28              		.thumb_func
  30              	u8g2_UserInterfaceInputValue:
  31              	.LVL0:
  32              	.LFB0:
  33              		.file 1 "Core/Src/u8g2/Src/u8g2_input_value.c"
   1:Core/Src/u8g2/Src/u8g2_input_value.c **** /*
   2:Core/Src/u8g2/Src/u8g2_input_value.c **** 
   3:Core/Src/u8g2/Src/u8g2_input_value.c ****   u8g2_input_value.c
   4:Core/Src/u8g2/Src/u8g2_input_value.c ****   
   5:Core/Src/u8g2/Src/u8g2_input_value.c ****   Universal 8bit Graphics Library (https://github.com/olikraus/u8g2/)
   6:Core/Src/u8g2/Src/u8g2_input_value.c **** 
   7:Core/Src/u8g2/Src/u8g2_input_value.c ****   Copyright (c) 2016, olikraus@gmail.com
   8:Core/Src/u8g2/Src/u8g2_input_value.c ****   All rights reserved.
   9:Core/Src/u8g2/Src/u8g2_input_value.c **** 
  10:Core/Src/u8g2/Src/u8g2_input_value.c ****   Redistribution and use in source and binary forms, with or without modification, 
  11:Core/Src/u8g2/Src/u8g2_input_value.c ****   are permitted provided that the following conditions are met:
  12:Core/Src/u8g2/Src/u8g2_input_value.c **** 
  13:Core/Src/u8g2/Src/u8g2_input_value.c ****   * Redistributions of source code must retain the above copyright notice, this list 
  14:Core/Src/u8g2/Src/u8g2_input_value.c ****     of conditions and the following disclaimer.
  15:Core/Src/u8g2/Src/u8g2_input_value.c ****     
  16:Core/Src/u8g2/Src/u8g2_input_value.c ****   * Redistributions in binary form must reproduce the above copyright notice, this 
  17:Core/Src/u8g2/Src/u8g2_input_value.c ****     list of conditions and the following disclaimer in the documentation and/or other 
  18:Core/Src/u8g2/Src/u8g2_input_value.c ****     materials provided with the distribution.
  19:Core/Src/u8g2/Src/u8g2_input_value.c **** 
  20:Core/Src/u8g2/Src/u8g2_input_value.c ****   THIS SOFTWARE IS PROVIDED BY THE COPYRIGHT HOLDERS AND 
  21:Core/Src/u8g2/Src/u8g2_input_value.c ****   CONTRIBUTORS "AS IS" AND ANY EXPRESS OR IMPLIED WARRANTIES, 
  22:Core/Src/u8g2/Src/u8g2_input_value.c ****   INCLUDING, BUT NOT LIMITED TO, THE IMPLIED WARRANTIES OF 
  23:Core/Src/u8g2/Src/u8g2_input_value.c ****   MERCHANTABILITY AND FITNESS FOR A PARTICULAR PURPOSE ARE 
  24:Core/Src/u8g2/Src/u8g2_input_value.c ****   DISCLAIMED. IN NO EVENT SHALL THE COPYRIGHT HOLDER OR 
  25:Core/Src/u8g2/Src/u8g2_input_value.c ****   CONTRIBUTORS BE LIABLE FOR ANY DIRECT, INDIRECT, INCIDENTAL, 
ARM GAS  C:\Users\MOROSH~1\AppData\Local\Temp\ccIds1xM.s 			page 2


  26:Core/Src/u8g2/Src/u8g2_input_value.c ****   SPECIAL, EXEMPLARY, OR CONSEQUENTIAL DAMAGES (INCLUDING, BUT 
  27:Core/Src/u8g2/Src/u8g2_input_value.c ****   NOT LIMITED TO, PROCUREMENT OF SUBSTITUTE GOODS OR SERVICES; 
  28:Core/Src/u8g2/Src/u8g2_input_value.c ****   LOSS OF USE, DATA, OR PROFITS; OR BUSINESS INTERRUPTION) HOWEVER 
  29:Core/Src/u8g2/Src/u8g2_input_value.c ****   CAUSED AND ON ANY THEORY OF LIABILITY, WHETHER IN CONTRACT, 
  30:Core/Src/u8g2/Src/u8g2_input_value.c ****   STRICT LIABILITY, OR TORT (INCLUDING NEGLIGENCE OR OTHERWISE) 
  31:Core/Src/u8g2/Src/u8g2_input_value.c ****   ARISING IN ANY WAY OUT OF THE USE OF THIS SOFTWARE, EVEN IF 
  32:Core/Src/u8g2/Src/u8g2_input_value.c ****   ADVISED OF THE POSSIBILITY OF SUCH DAMAGE.  
  33:Core/Src/u8g2/Src/u8g2_input_value.c ****   
  34:Core/Src/u8g2/Src/u8g2_input_value.c **** */
  35:Core/Src/u8g2/Src/u8g2_input_value.c **** 
  36:Core/Src/u8g2/Src/u8g2_input_value.c **** #include "u8g2.h"
  37:Core/Src/u8g2/Src/u8g2_input_value.c **** 
  38:Core/Src/u8g2/Src/u8g2_input_value.c **** /*
  39:Core/Src/u8g2/Src/u8g2_input_value.c ****   return:
  40:Core/Src/u8g2/Src/u8g2_input_value.c ****     0: value is not changed (HOME/Break Button pressed)
  41:Core/Src/u8g2/Src/u8g2_input_value.c ****     1: value has been updated
  42:Core/Src/u8g2/Src/u8g2_input_value.c **** */
  43:Core/Src/u8g2/Src/u8g2_input_value.c **** 
  44:Core/Src/u8g2/Src/u8g2_input_value.c **** uint8_t u8g2_UserInterfaceInputValue(u8g2_t *u8g2, const char *title, const char *pre, uint8_t *val
  45:Core/Src/u8g2/Src/u8g2_input_value.c **** {
  34              		.loc 1 45 1 view -0
  35              		.cfi_startproc
  36              		@ args = 16, pretend = 0, frame = 24
  37              		@ frame_needed = 0, uses_anonymous_args = 0
  38              		.loc 1 45 1 is_stmt 0 view .LVU1
  39 0000 2DE9F04F 		push	{r4, r5, r6, r7, r8, r9, r10, fp, lr}
  40              	.LCFI0:
  41              		.cfi_def_cfa_offset 36
  42              		.cfi_offset 4, -36
  43              		.cfi_offset 5, -32
  44              		.cfi_offset 6, -28
  45              		.cfi_offset 7, -24
  46              		.cfi_offset 8, -20
  47              		.cfi_offset 9, -16
  48              		.cfi_offset 10, -12
  49              		.cfi_offset 11, -8
  50              		.cfi_offset 14, -4
  51 0004 89B0     		sub	sp, sp, #36
  52              	.LCFI1:
  53              		.cfi_def_cfa_offset 72
  54 0006 0646     		mov	r6, r0
  55 0008 0D46     		mov	r5, r1
  56 000a 0491     		str	r1, [sp, #16]
  57 000c 0392     		str	r2, [sp, #12]
  58 000e 0793     		str	r3, [sp, #28]
  59 0010 9DF84820 		ldrb	r2, [sp, #72]	@ zero_extendqisi2
  60              	.LVL1:
  61              		.loc 1 45 1 view .LVU2
  62 0014 0592     		str	r2, [sp, #20]
  63 0016 9DF84C20 		ldrb	r2, [sp, #76]	@ zero_extendqisi2
  64 001a 0692     		str	r2, [sp, #24]
  65 001c 9DF850A0 		ldrb	r10, [sp, #80]	@ zero_extendqisi2
  46:Core/Src/u8g2/Src/u8g2_input_value.c ****   uint8_t line_height;
  66              		.loc 1 46 3 is_stmt 1 view .LVU3
  47:Core/Src/u8g2/Src/u8g2_input_value.c ****   uint8_t height;
  67              		.loc 1 47 3 view .LVU4
  48:Core/Src/u8g2/Src/u8g2_input_value.c ****   u8g2_uint_t pixel_height;
ARM GAS  C:\Users\MOROSH~1\AppData\Local\Temp\ccIds1xM.s 			page 3


  68              		.loc 1 48 3 view .LVU5
  49:Core/Src/u8g2/Src/u8g2_input_value.c ****   u8g2_uint_t  y, yy;
  69              		.loc 1 49 3 view .LVU6
  50:Core/Src/u8g2/Src/u8g2_input_value.c ****   u8g2_uint_t  pixel_width;
  70              		.loc 1 50 3 view .LVU7
  51:Core/Src/u8g2/Src/u8g2_input_value.c ****   u8g2_uint_t  x, xx;
  71              		.loc 1 51 3 view .LVU8
  52:Core/Src/u8g2/Src/u8g2_input_value.c ****   
  53:Core/Src/u8g2/Src/u8g2_input_value.c ****   uint8_t local_value = *value;
  72              		.loc 1 53 3 view .LVU9
  73              		.loc 1 53 11 is_stmt 0 view .LVU10
  74 0020 93F80090 		ldrb	r9, [r3]	@ zero_extendqisi2
  75              	.LVL2:
  54:Core/Src/u8g2/Src/u8g2_input_value.c ****   //uint8_t r; /* not used ??? */
  55:Core/Src/u8g2/Src/u8g2_input_value.c ****   uint8_t event;
  76              		.loc 1 55 3 is_stmt 1 view .LVU11
  56:Core/Src/u8g2/Src/u8g2_input_value.c **** 
  57:Core/Src/u8g2/Src/u8g2_input_value.c ****   /* only horizontal strings are supported, so force this here */
  58:Core/Src/u8g2/Src/u8g2_input_value.c ****   u8g2_SetFontDirection(u8g2, 0);
  77              		.loc 1 58 3 view .LVU12
  78 0024 0021     		movs	r1, #0
  79              	.LVL3:
  80              		.loc 1 58 3 is_stmt 0 view .LVU13
  81 0026 FFF7FEFF 		bl	u8g2_SetFontDirection
  82              	.LVL4:
  59:Core/Src/u8g2/Src/u8g2_input_value.c **** 
  60:Core/Src/u8g2/Src/u8g2_input_value.c ****   /* force baseline position */
  61:Core/Src/u8g2/Src/u8g2_input_value.c ****   u8g2_SetFontPosBaseline(u8g2);
  83              		.loc 1 61 3 is_stmt 1 view .LVU14
  84 002a 3046     		mov	r0, r6
  85 002c FFF7FEFF 		bl	u8g2_SetFontPosBaseline
  86              	.LVL5:
  62:Core/Src/u8g2/Src/u8g2_input_value.c ****   
  63:Core/Src/u8g2/Src/u8g2_input_value.c ****   /* calculate line height */
  64:Core/Src/u8g2/Src/u8g2_input_value.c ****   line_height = u8g2_GetAscent(u8g2);
  87              		.loc 1 64 3 view .LVU15
  88              		.loc 1 64 17 is_stmt 0 view .LVU16
  89 0030 96F98E40 		ldrsb	r4, [r6, #142]
  90              		.loc 1 64 15 view .LVU17
  91 0034 E4B2     		uxtb	r4, r4
  92              	.LVL6:
  65:Core/Src/u8g2/Src/u8g2_input_value.c ****   line_height -= u8g2_GetDescent(u8g2);
  93              		.loc 1 65 3 is_stmt 1 view .LVU18
  94              		.loc 1 65 18 is_stmt 0 view .LVU19
  95 0036 96F88F30 		ldrb	r3, [r6, #143]	@ zero_extendqisi2
  96              		.loc 1 65 15 view .LVU20
  97 003a E41A     		subs	r4, r4, r3
  98              	.LVL7:
  99              		.loc 1 65 15 view .LVU21
 100 003c E4B2     		uxtb	r4, r4
 101              	.LVL8:
  66:Core/Src/u8g2/Src/u8g2_input_value.c ****   
  67:Core/Src/u8g2/Src/u8g2_input_value.c ****   
  68:Core/Src/u8g2/Src/u8g2_input_value.c ****   /* calculate overall height of the input value box */
  69:Core/Src/u8g2/Src/u8g2_input_value.c ****   height = 1;	/* value input line */
 102              		.loc 1 69 3 is_stmt 1 view .LVU22
  70:Core/Src/u8g2/Src/u8g2_input_value.c ****   height += u8x8_GetStringLineCnt(title);
ARM GAS  C:\Users\MOROSH~1\AppData\Local\Temp\ccIds1xM.s 			page 4


 103              		.loc 1 70 3 view .LVU23
 104              		.loc 1 70 13 is_stmt 0 view .LVU24
 105 003e 2846     		mov	r0, r5
 106 0040 FFF7FEFF 		bl	u8x8_GetStringLineCnt
 107              	.LVL9:
 108              		.loc 1 70 10 view .LVU25
 109 0044 00F10108 		add	r8, r0, #1
 110              	.LVL10:
  71:Core/Src/u8g2/Src/u8g2_input_value.c **** 
  72:Core/Src/u8g2/Src/u8g2_input_value.c ****   /* calculate the height in pixel */
  73:Core/Src/u8g2/Src/u8g2_input_value.c ****   pixel_height = height;
 111              		.loc 1 73 3 is_stmt 1 view .LVU26
 112              		.loc 1 73 16 is_stmt 0 view .LVU27
 113 0048 5FFA88F8 		uxtb	r8, r8
 114              	.LVL11:
  74:Core/Src/u8g2/Src/u8g2_input_value.c ****   pixel_height *= line_height;
 115              		.loc 1 74 3 is_stmt 1 view .LVU28
 116              		.loc 1 74 16 is_stmt 0 view .LVU29
 117 004c 1FFA84FB 		uxth	fp, r4
 118 0050 04FB08F4 		mul	r4, r4, r8
 119              	.LVL12:
  75:Core/Src/u8g2/Src/u8g2_input_value.c **** 
  76:Core/Src/u8g2/Src/u8g2_input_value.c **** 
  77:Core/Src/u8g2/Src/u8g2_input_value.c ****   /* calculate offset from top */
  78:Core/Src/u8g2/Src/u8g2_input_value.c ****   y = 0;
 120              		.loc 1 78 3 is_stmt 1 view .LVU30
  79:Core/Src/u8g2/Src/u8g2_input_value.c ****   if ( pixel_height < u8g2_GetDisplayHeight(u8g2)  )
 121              		.loc 1 79 3 view .LVU31
 122              		.loc 1 79 23 is_stmt 0 view .LVU32
 123 0054 B6F84680 		ldrh	r8, [r6, #70]
 124              	.LVL13:
 125              		.loc 1 79 6 view .LVU33
 126 0058 A045     		cmp	r8, r4
 127 005a 63D9     		bls	.L13
  80:Core/Src/u8g2/Src/u8g2_input_value.c ****   {
  81:Core/Src/u8g2/Src/u8g2_input_value.c ****     y = u8g2_GetDisplayHeight(u8g2);
 128              		.loc 1 81 5 is_stmt 1 view .LVU34
 129              	.LVL14:
  82:Core/Src/u8g2/Src/u8g2_input_value.c ****     y -= pixel_height;
 130              		.loc 1 82 5 view .LVU35
 131              		.loc 1 82 7 is_stmt 0 view .LVU36
 132 005c A8EB0408 		sub	r8, r8, r4
 133              	.LVL15:
  83:Core/Src/u8g2/Src/u8g2_input_value.c ****     y /= 2;
 134              		.loc 1 83 5 is_stmt 1 view .LVU37
 135              		.loc 1 83 7 is_stmt 0 view .LVU38
 136 0060 C8F34E08 		ubfx	r8, r8, #1, #15
 137              	.LVL16:
 138              	.L2:
  84:Core/Src/u8g2/Src/u8g2_input_value.c ****   }
  85:Core/Src/u8g2/Src/u8g2_input_value.c ****   
  86:Core/Src/u8g2/Src/u8g2_input_value.c ****   /* calculate offset from left for the label */
  87:Core/Src/u8g2/Src/u8g2_input_value.c ****   x = 0;
 139              		.loc 1 87 3 is_stmt 1 view .LVU39
  88:Core/Src/u8g2/Src/u8g2_input_value.c ****   pixel_width = u8g2_GetUTF8Width(u8g2, pre);
 140              		.loc 1 88 3 view .LVU40
 141              		.loc 1 88 17 is_stmt 0 view .LVU41
ARM GAS  C:\Users\MOROSH~1\AppData\Local\Temp\ccIds1xM.s 			page 5


 142 0064 0399     		ldr	r1, [sp, #12]
 143 0066 3046     		mov	r0, r6
 144              	.LVL17:
 145              		.loc 1 88 17 view .LVU42
 146 0068 FFF7FEFF 		bl	u8g2_GetUTF8Width
 147              	.LVL18:
 148 006c 0446     		mov	r4, r0
 149              	.LVL19:
  89:Core/Src/u8g2/Src/u8g2_input_value.c ****   pixel_width += u8g2_GetUTF8Width(u8g2, "0") * digits;
 150              		.loc 1 89 3 is_stmt 1 view .LVU43
 151              		.loc 1 89 18 is_stmt 0 view .LVU44
 152 006e 3B49     		ldr	r1, .L20
 153 0070 3046     		mov	r0, r6
 154 0072 FFF7FEFF 		bl	u8g2_GetUTF8Width
 155              	.LVL20:
 156              		.loc 1 89 15 view .LVU45
 157 0076 00FB0A44 		mla	r4, r0, r10, r4
 158              	.LVL21:
 159              		.loc 1 89 15 view .LVU46
 160 007a A4B2     		uxth	r4, r4
 161              	.LVL22:
  90:Core/Src/u8g2/Src/u8g2_input_value.c ****   pixel_width += u8g2_GetUTF8Width(u8g2, post);
 162              		.loc 1 90 3 is_stmt 1 view .LVU47
 163              		.loc 1 90 18 is_stmt 0 view .LVU48
 164 007c 1599     		ldr	r1, [sp, #84]
 165 007e 3046     		mov	r0, r6
 166 0080 FFF7FEFF 		bl	u8g2_GetUTF8Width
 167              	.LVL23:
 168              		.loc 1 90 15 view .LVU49
 169 0084 0444     		add	r4, r4, r0
 170              	.LVL24:
 171              		.loc 1 90 15 view .LVU50
 172 0086 A4B2     		uxth	r4, r4
 173              	.LVL25:
  91:Core/Src/u8g2/Src/u8g2_input_value.c ****   if ( pixel_width < u8g2_GetDisplayWidth(u8g2) )
 174              		.loc 1 91 3 is_stmt 1 view .LVU51
 175              		.loc 1 91 22 is_stmt 0 view .LVU52
 176 0088 B6F84470 		ldrh	r7, [r6, #68]
 177              		.loc 1 91 6 view .LVU53
 178 008c A742     		cmp	r7, r4
 179 008e 4CD9     		bls	.L14
  92:Core/Src/u8g2/Src/u8g2_input_value.c ****   {
  93:Core/Src/u8g2/Src/u8g2_input_value.c ****     x = u8g2_GetDisplayWidth(u8g2);
 180              		.loc 1 93 5 is_stmt 1 view .LVU54
 181              	.LVL26:
  94:Core/Src/u8g2/Src/u8g2_input_value.c ****     x -= pixel_width;
 182              		.loc 1 94 5 view .LVU55
 183              		.loc 1 94 7 is_stmt 0 view .LVU56
 184 0090 3F1B     		subs	r7, r7, r4
 185              	.LVL27:
  95:Core/Src/u8g2/Src/u8g2_input_value.c ****     x /= 2;
 186              		.loc 1 95 5 is_stmt 1 view .LVU57
 187              		.loc 1 95 7 is_stmt 0 view .LVU58
 188 0092 C7F34E07 		ubfx	r7, r7, #1, #15
 189              	.LVL28:
 190              	.L4:
  96:Core/Src/u8g2/Src/u8g2_input_value.c ****   }
ARM GAS  C:\Users\MOROSH~1\AppData\Local\Temp\ccIds1xM.s 			page 6


  97:Core/Src/u8g2/Src/u8g2_input_value.c ****   
  98:Core/Src/u8g2/Src/u8g2_input_value.c ****   /* event loop */
  99:Core/Src/u8g2/Src/u8g2_input_value.c ****   for(;;)
 191              		.loc 1 99 3 is_stmt 1 view .LVU59
 100:Core/Src/u8g2/Src/u8g2_input_value.c ****   {
 101:Core/Src/u8g2/Src/u8g2_input_value.c ****     u8g2_FirstPage(u8g2);
 192              		.loc 1 101 5 view .LVU60
 193 0096 3046     		mov	r0, r6
 194 0098 FFF7FEFF 		bl	u8g2_FirstPage
 195              	.LVL29:
 196              	.L5:
 102:Core/Src/u8g2/Src/u8g2_input_value.c ****     do
 197              		.loc 1 102 5 discriminator 1 view .LVU61
 103:Core/Src/u8g2/Src/u8g2_input_value.c ****     {
 104:Core/Src/u8g2/Src/u8g2_input_value.c ****       /* render */
 105:Core/Src/u8g2/Src/u8g2_input_value.c ****       yy = y;
 198              		.loc 1 105 7 discriminator 1 view .LVU62
 106:Core/Src/u8g2/Src/u8g2_input_value.c ****       yy += u8g2_DrawUTF8Lines(u8g2, 0, yy, u8g2_GetDisplayWidth(u8g2), line_height, title);
 199              		.loc 1 106 7 discriminator 1 view .LVU63
 200              		.loc 1 106 13 is_stmt 0 discriminator 1 view .LVU64
 201 009c 049B     		ldr	r3, [sp, #16]
 202 009e 0193     		str	r3, [sp, #4]
 203 00a0 CDF800B0 		str	fp, [sp]
 204 00a4 B6F84430 		ldrh	r3, [r6, #68]
 205 00a8 4246     		mov	r2, r8
 206 00aa 0021     		movs	r1, #0
 207 00ac 3046     		mov	r0, r6
 208 00ae FFF7FEFF 		bl	u8g2_DrawUTF8Lines
 209              	.LVL30:
 210              		.loc 1 106 10 discriminator 1 view .LVU65
 211 00b2 08EB0005 		add	r5, r8, r0
 212 00b6 ADB2     		uxth	r5, r5
 213              	.LVL31:
 107:Core/Src/u8g2/Src/u8g2_input_value.c ****       xx = x;
 214              		.loc 1 107 7 is_stmt 1 discriminator 1 view .LVU66
 108:Core/Src/u8g2/Src/u8g2_input_value.c ****       xx += u8g2_DrawUTF8(u8g2, xx, yy, pre);
 215              		.loc 1 108 7 discriminator 1 view .LVU67
 216              		.loc 1 108 13 is_stmt 0 discriminator 1 view .LVU68
 217 00b8 039B     		ldr	r3, [sp, #12]
 218 00ba 2A46     		mov	r2, r5
 219 00bc 3946     		mov	r1, r7
 220 00be 3046     		mov	r0, r6
 221 00c0 FFF7FEFF 		bl	u8g2_DrawUTF8
 222              	.LVL32:
 223              		.loc 1 108 10 discriminator 1 view .LVU69
 224 00c4 C419     		adds	r4, r0, r7
 225 00c6 A4B2     		uxth	r4, r4
 226              	.LVL33:
 109:Core/Src/u8g2/Src/u8g2_input_value.c ****       xx += u8g2_DrawUTF8(u8g2, xx, yy, u8x8_u8toa(local_value, digits));
 227              		.loc 1 109 7 is_stmt 1 discriminator 1 view .LVU70
 228              		.loc 1 109 13 is_stmt 0 discriminator 1 view .LVU71
 229 00c8 5146     		mov	r1, r10
 230 00ca 4846     		mov	r0, r9
 231 00cc FFF7FEFF 		bl	u8x8_u8toa
 232              	.LVL34:
 233 00d0 0346     		mov	r3, r0
 234 00d2 2A46     		mov	r2, r5
ARM GAS  C:\Users\MOROSH~1\AppData\Local\Temp\ccIds1xM.s 			page 7


 235 00d4 2146     		mov	r1, r4
 236 00d6 3046     		mov	r0, r6
 237 00d8 FFF7FEFF 		bl	u8g2_DrawUTF8
 238              	.LVL35:
 239              		.loc 1 109 10 discriminator 1 view .LVU72
 240 00dc 2118     		adds	r1, r4, r0
 241              	.LVL36:
 110:Core/Src/u8g2/Src/u8g2_input_value.c ****       u8g2_DrawUTF8(u8g2, xx, yy, post);
 242              		.loc 1 110 7 is_stmt 1 discriminator 1 view .LVU73
 243 00de 159B     		ldr	r3, [sp, #84]
 244 00e0 2A46     		mov	r2, r5
 245 00e2 89B2     		uxth	r1, r1
 246              		.loc 1 110 7 is_stmt 0 discriminator 1 view .LVU74
 247 00e4 3046     		mov	r0, r6
 248 00e6 FFF7FEFF 		bl	u8g2_DrawUTF8
 249              	.LVL37:
 111:Core/Src/u8g2/Src/u8g2_input_value.c ****     } while( u8g2_NextPage(u8g2) );
 250              		.loc 1 111 12 is_stmt 1 discriminator 1 view .LVU75
 251              		.loc 1 111 14 is_stmt 0 discriminator 1 view .LVU76
 252 00ea 3046     		mov	r0, r6
 253 00ec FFF7FEFF 		bl	u8g2_NextPage
 254              	.LVL38:
 255              		.loc 1 111 5 discriminator 1 view .LVU77
 256 00f0 0446     		mov	r4, r0
 257              		.loc 1 111 5 discriminator 1 view .LVU78
 258 00f2 0028     		cmp	r0, #0
 259 00f4 D2D1     		bne	.L5
 260              	.L12:
 112:Core/Src/u8g2/Src/u8g2_input_value.c ****     
 113:Core/Src/u8g2/Src/u8g2_input_value.c **** #ifdef U8G2_REF_MAN_PIC
 114:Core/Src/u8g2/Src/u8g2_input_value.c ****       return 0;
 115:Core/Src/u8g2/Src/u8g2_input_value.c **** #endif
 116:Core/Src/u8g2/Src/u8g2_input_value.c ****     
 117:Core/Src/u8g2/Src/u8g2_input_value.c ****     for(;;)
 261              		.loc 1 117 5 is_stmt 1 view .LVU79
 118:Core/Src/u8g2/Src/u8g2_input_value.c ****     {
 119:Core/Src/u8g2/Src/u8g2_input_value.c ****       event = u8x8_GetMenuEvent(u8g2_GetU8x8(u8g2));
 262              		.loc 1 119 7 view .LVU80
 263              		.loc 1 119 15 is_stmt 0 view .LVU81
 264 00f6 3046     		mov	r0, r6
 265 00f8 FFF7FEFF 		bl	u8x8_GetMenuEvent
 266              	.LVL39:
 120:Core/Src/u8g2/Src/u8g2_input_value.c ****       if ( event == U8X8_MSG_GPIO_MENU_SELECT )
 267              		.loc 1 120 7 is_stmt 1 view .LVU82
 268              		.loc 1 120 10 is_stmt 0 view .LVU83
 269 00fc 5028     		cmp	r0, #80
 270 00fe 1CD0     		beq	.L19
 121:Core/Src/u8g2/Src/u8g2_input_value.c ****       {
 122:Core/Src/u8g2/Src/u8g2_input_value.c **** 	*value = local_value;
 123:Core/Src/u8g2/Src/u8g2_input_value.c **** 	return 1;
 124:Core/Src/u8g2/Src/u8g2_input_value.c ****       }
 125:Core/Src/u8g2/Src/u8g2_input_value.c ****       else if ( event == U8X8_MSG_GPIO_MENU_HOME )
 271              		.loc 1 125 12 is_stmt 1 view .LVU84
 272              		.loc 1 125 15 is_stmt 0 view .LVU85
 273 0100 5328     		cmp	r0, #83
 274 0102 1ED0     		beq	.L7
 126:Core/Src/u8g2/Src/u8g2_input_value.c ****       {
ARM GAS  C:\Users\MOROSH~1\AppData\Local\Temp\ccIds1xM.s 			page 8


 127:Core/Src/u8g2/Src/u8g2_input_value.c **** 	return 0;
 128:Core/Src/u8g2/Src/u8g2_input_value.c ****       }
 129:Core/Src/u8g2/Src/u8g2_input_value.c ****       else if ( event == U8X8_MSG_GPIO_MENU_NEXT || event == U8X8_MSG_GPIO_MENU_UP )
 275              		.loc 1 129 12 is_stmt 1 view .LVU86
 276              		.loc 1 129 15 is_stmt 0 view .LVU87
 277 0104 5128     		cmp	r0, #81
 278 0106 20D0     		beq	.L8
 279              		.loc 1 129 50 discriminator 1 view .LVU88
 280 0108 5428     		cmp	r0, #84
 281 010a 1ED0     		beq	.L8
 130:Core/Src/u8g2/Src/u8g2_input_value.c ****       {
 131:Core/Src/u8g2/Src/u8g2_input_value.c **** 	if ( local_value >= hi )
 132:Core/Src/u8g2/Src/u8g2_input_value.c **** 	  local_value = lo;
 133:Core/Src/u8g2/Src/u8g2_input_value.c **** 	else
 134:Core/Src/u8g2/Src/u8g2_input_value.c **** 	  local_value++;
 135:Core/Src/u8g2/Src/u8g2_input_value.c **** 	break;
 136:Core/Src/u8g2/Src/u8g2_input_value.c ****       }
 137:Core/Src/u8g2/Src/u8g2_input_value.c ****       else if ( event == U8X8_MSG_GPIO_MENU_PREV || event == U8X8_MSG_GPIO_MENU_DOWN )
 282              		.loc 1 137 12 is_stmt 1 view .LVU89
 283              		.loc 1 137 15 is_stmt 0 view .LVU90
 284 010c 5228     		cmp	r0, #82
 285 010e 01D0     		beq	.L11
 286              		.loc 1 137 50 discriminator 1 view .LVU91
 287 0110 5528     		cmp	r0, #85
 288 0112 F0D1     		bne	.L12
 289              	.L11:
 138:Core/Src/u8g2/Src/u8g2_input_value.c ****       {
 139:Core/Src/u8g2/Src/u8g2_input_value.c **** 	if ( local_value <= lo )
 290              		.loc 1 139 2 is_stmt 1 view .LVU92
 291              		.loc 1 139 5 is_stmt 0 view .LVU93
 292 0114 059B     		ldr	r3, [sp, #20]
 293 0116 9945     		cmp	r9, r3
 294 0118 0CD9     		bls	.L16
 140:Core/Src/u8g2/Src/u8g2_input_value.c **** 	  local_value = hi;
 141:Core/Src/u8g2/Src/u8g2_input_value.c **** 	else
 142:Core/Src/u8g2/Src/u8g2_input_value.c **** 	  local_value--;
 295              		.loc 1 142 4 is_stmt 1 view .LVU94
 296              		.loc 1 142 15 is_stmt 0 view .LVU95
 297 011a 09F1FF39 		add	r9, r9, #-1
 298              	.LVL40:
 299              		.loc 1 142 15 view .LVU96
 300 011e 5FFA89F9 		uxtb	r9, r9
 301              	.LVL41:
 302              		.loc 1 142 15 view .LVU97
 303 0122 B8E7     		b	.L4
 304              	.LVL42:
 305              	.L13:
  78:Core/Src/u8g2/Src/u8g2_input_value.c ****   if ( pixel_height < u8g2_GetDisplayHeight(u8g2)  )
 306              		.loc 1 78 5 view .LVU98
 307 0124 4FF00008 		mov	r8, #0
 308 0128 9CE7     		b	.L2
 309              	.LVL43:
 310              	.L14:
  87:Core/Src/u8g2/Src/u8g2_input_value.c ****   pixel_width = u8g2_GetUTF8Width(u8g2, pre);
 311              		.loc 1 87 5 view .LVU99
 312 012a 0027     		movs	r7, #0
 313 012c B3E7     		b	.L4
ARM GAS  C:\Users\MOROSH~1\AppData\Local\Temp\ccIds1xM.s 			page 9


 314              	.LVL44:
 315              	.L15:
 132:Core/Src/u8g2/Src/u8g2_input_value.c **** 	else
 316              		.loc 1 132 16 view .LVU100
 317 012e DDF81490 		ldr	r9, [sp, #20]
 318              	.LVL45:
 132:Core/Src/u8g2/Src/u8g2_input_value.c **** 	else
 319              		.loc 1 132 16 view .LVU101
 320 0132 B0E7     		b	.L4
 321              	.LVL46:
 322              	.L16:
 140:Core/Src/u8g2/Src/u8g2_input_value.c **** 	else
 323              		.loc 1 140 16 view .LVU102
 324 0134 DDF81890 		ldr	r9, [sp, #24]
 325              	.LVL47:
 140:Core/Src/u8g2/Src/u8g2_input_value.c **** 	else
 326              		.loc 1 140 16 view .LVU103
 327 0138 ADE7     		b	.L4
 328              	.LVL48:
 329              	.L19:
 122:Core/Src/u8g2/Src/u8g2_input_value.c **** 	return 1;
 330              		.loc 1 122 2 is_stmt 1 view .LVU104
 122:Core/Src/u8g2/Src/u8g2_input_value.c **** 	return 1;
 331              		.loc 1 122 9 is_stmt 0 view .LVU105
 332 013a 079B     		ldr	r3, [sp, #28]
 333 013c 83F80090 		strb	r9, [r3]
 123:Core/Src/u8g2/Src/u8g2_input_value.c ****       }
 334              		.loc 1 123 2 is_stmt 1 view .LVU106
 123:Core/Src/u8g2/Src/u8g2_input_value.c ****       }
 335              		.loc 1 123 9 is_stmt 0 view .LVU107
 336 0140 0124     		movs	r4, #1
 337              	.L7:
 143:Core/Src/u8g2/Src/u8g2_input_value.c **** 	break;
 144:Core/Src/u8g2/Src/u8g2_input_value.c ****       }        
 145:Core/Src/u8g2/Src/u8g2_input_value.c ****     }
 146:Core/Src/u8g2/Src/u8g2_input_value.c ****   }
 147:Core/Src/u8g2/Src/u8g2_input_value.c ****   
 148:Core/Src/u8g2/Src/u8g2_input_value.c ****   /* never reached */
 149:Core/Src/u8g2/Src/u8g2_input_value.c ****   //return r;  
 150:Core/Src/u8g2/Src/u8g2_input_value.c **** }
 338              		.loc 1 150 1 view .LVU108
 339 0142 2046     		mov	r0, r4
 340              	.LVL49:
 341              		.loc 1 150 1 view .LVU109
 342 0144 09B0     		add	sp, sp, #36
 343              	.LCFI2:
 344              		.cfi_remember_state
 345              		.cfi_def_cfa_offset 36
 346              		@ sp needed
 347 0146 BDE8F08F 		pop	{r4, r5, r6, r7, r8, r9, r10, fp, pc}
 348              	.LVL50:
 349              	.L8:
 350              	.LCFI3:
 351              		.cfi_restore_state
 131:Core/Src/u8g2/Src/u8g2_input_value.c **** 	  local_value = lo;
 352              		.loc 1 131 2 is_stmt 1 view .LVU110
 131:Core/Src/u8g2/Src/u8g2_input_value.c **** 	  local_value = lo;
ARM GAS  C:\Users\MOROSH~1\AppData\Local\Temp\ccIds1xM.s 			page 10


 353              		.loc 1 131 5 is_stmt 0 view .LVU111
 354 014a 069B     		ldr	r3, [sp, #24]
 355 014c 9945     		cmp	r9, r3
 356 014e EED2     		bcs	.L15
 134:Core/Src/u8g2/Src/u8g2_input_value.c **** 	break;
 357              		.loc 1 134 4 is_stmt 1 view .LVU112
 134:Core/Src/u8g2/Src/u8g2_input_value.c **** 	break;
 358              		.loc 1 134 15 is_stmt 0 view .LVU113
 359 0150 09F10109 		add	r9, r9, #1
 360              	.LVL51:
 134:Core/Src/u8g2/Src/u8g2_input_value.c **** 	break;
 361              		.loc 1 134 15 view .LVU114
 362 0154 5FFA89F9 		uxtb	r9, r9
 363              	.LVL52:
 134:Core/Src/u8g2/Src/u8g2_input_value.c **** 	break;
 364              		.loc 1 134 15 view .LVU115
 365 0158 9DE7     		b	.L4
 366              	.L21:
 367 015a 00BF     		.align	2
 368              	.L20:
 369 015c 00000000 		.word	.LC0
 370              		.cfi_endproc
 371              	.LFE0:
 373              		.text
 374              	.Letext0:
 375              		.file 2 "c:\\program files (x86)\\gnu arm embedded toolchain\\10 2021.10\\arm-none-eabi\\include\\
 376              		.file 3 "c:\\program files (x86)\\gnu arm embedded toolchain\\10 2021.10\\arm-none-eabi\\include\\
 377              		.file 4 "Core/Src/u8g2/Inc/u8x8.h"
 378              		.file 5 "Core/Src/u8g2/Inc/u8g2.h"
ARM GAS  C:\Users\MOROSH~1\AppData\Local\Temp\ccIds1xM.s 			page 11

