ARM GAS  C:\Users\MOROSH~1\AppData\Local\Temp\ccLXNPhX.s 			page 1


   1              		.cpu cortex-m4
   2              		.arch armv7e-m
   3              		.fpu fpv4-sp-d16
   4              		.eabi_attribute 27, 1
   5              		.eabi_attribute 28, 1
   6              		.eabi_attribute 20, 1
   7              		.eabi_attribute 21, 1
   8              		.eabi_attribute 23, 3
   9              		.eabi_attribute 24, 1
  10              		.eabi_attribute 25, 1
  11              		.eabi_attribute 26, 1
  12              		.eabi_attribute 30, 1
  13              		.eabi_attribute 34, 1
  14              		.eabi_attribute 18, 4
  15              		.file	"u8g2_button.c"
  16              		.text
  17              	.Ltext0:
  18              		.cfi_sections	.debug_frame
  19              		.section	.text.u8g2_DrawButtonFrame,"ax",%progbits
  20              		.align	1
  21              		.global	u8g2_DrawButtonFrame
  22              		.syntax unified
  23              		.thumb
  24              		.thumb_func
  26              	u8g2_DrawButtonFrame:
  27              	.LVL0:
  28              	.LFB0:
  29              		.file 1 "Core/Src/u8g2/Src/u8g2_button.c"
   1:Core/Src/u8g2/Src/u8g2_button.c **** /*
   2:Core/Src/u8g2/Src/u8g2_button.c **** 
   3:Core/Src/u8g2/Src/u8g2_button.c ****   u8g2_button.c
   4:Core/Src/u8g2/Src/u8g2_button.c **** 
   5:Core/Src/u8g2/Src/u8g2_button.c ****   Universal 8bit Graphics Library (https://github.com/olikraus/u8g2/)
   6:Core/Src/u8g2/Src/u8g2_button.c **** 
   7:Core/Src/u8g2/Src/u8g2_button.c ****   Copyright (c) 2016, olikraus@gmail.com
   8:Core/Src/u8g2/Src/u8g2_button.c ****   All rights reserved.
   9:Core/Src/u8g2/Src/u8g2_button.c **** 
  10:Core/Src/u8g2/Src/u8g2_button.c ****   Redistribution and use in source and binary forms, with or without modification, 
  11:Core/Src/u8g2/Src/u8g2_button.c ****   are permitted provided that the following conditions are met:
  12:Core/Src/u8g2/Src/u8g2_button.c **** 
  13:Core/Src/u8g2/Src/u8g2_button.c ****   * Redistributions of source code must retain the above copyright notice, this list 
  14:Core/Src/u8g2/Src/u8g2_button.c ****     of conditions and the following disclaimer.
  15:Core/Src/u8g2/Src/u8g2_button.c ****     
  16:Core/Src/u8g2/Src/u8g2_button.c ****   * Redistributions in binary form must reproduce the above copyright notice, this 
  17:Core/Src/u8g2/Src/u8g2_button.c ****     list of conditions and the following disclaimer in the documentation and/or other 
  18:Core/Src/u8g2/Src/u8g2_button.c ****     materials provided with the distribution.
  19:Core/Src/u8g2/Src/u8g2_button.c **** 
  20:Core/Src/u8g2/Src/u8g2_button.c ****   THIS SOFTWARE IS PROVIDED BY THE COPYRIGHT HOLDERS AND 
  21:Core/Src/u8g2/Src/u8g2_button.c ****   CONTRIBUTORS "AS IS" AND ANY EXPRESS OR IMPLIED WARRANTIES, 
  22:Core/Src/u8g2/Src/u8g2_button.c ****   INCLUDING, BUT NOT LIMITED TO, THE IMPLIED WARRANTIES OF 
  23:Core/Src/u8g2/Src/u8g2_button.c ****   MERCHANTABILITY AND FITNESS FOR A PARTICULAR PURPOSE ARE 
  24:Core/Src/u8g2/Src/u8g2_button.c ****   DISCLAIMED. IN NO EVENT SHALL THE COPYRIGHT HOLDER OR 
  25:Core/Src/u8g2/Src/u8g2_button.c ****   CONTRIBUTORS BE LIABLE FOR ANY DIRECT, INDIRECT, INCIDENTAL, 
  26:Core/Src/u8g2/Src/u8g2_button.c ****   SPECIAL, EXEMPLARY, OR CONSEQUENTIAL DAMAGES (INCLUDING, BUT 
  27:Core/Src/u8g2/Src/u8g2_button.c ****   NOT LIMITED TO, PROCUREMENT OF SUBSTITUTE GOODS OR SERVICES; 
  28:Core/Src/u8g2/Src/u8g2_button.c ****   LOSS OF USE, DATA, OR PROFITS; OR BUSINESS INTERRUPTION) HOWEVER 
  29:Core/Src/u8g2/Src/u8g2_button.c ****   CAUSED AND ON ANY THEORY OF LIABILITY, WHETHER IN CONTRACT, 
ARM GAS  C:\Users\MOROSH~1\AppData\Local\Temp\ccLXNPhX.s 			page 2


  30:Core/Src/u8g2/Src/u8g2_button.c ****   STRICT LIABILITY, OR TORT (INCLUDING NEGLIGENCE OR OTHERWISE) 
  31:Core/Src/u8g2/Src/u8g2_button.c ****   ARISING IN ANY WAY OUT OF THE USE OF THIS SOFTWARE, EVEN IF 
  32:Core/Src/u8g2/Src/u8g2_button.c ****   ADVISED OF THE POSSIBILITY OF SUCH DAMAGE.  
  33:Core/Src/u8g2/Src/u8g2_button.c **** 
  34:Core/Src/u8g2/Src/u8g2_button.c **** */
  35:Core/Src/u8g2/Src/u8g2_button.c **** 
  36:Core/Src/u8g2/Src/u8g2_button.c **** #include "u8g2.h"
  37:Core/Src/u8g2/Src/u8g2_button.c **** 
  38:Core/Src/u8g2/Src/u8g2_button.c **** 
  39:Core/Src/u8g2/Src/u8g2_button.c **** /*
  40:Core/Src/u8g2/Src/u8g2_button.c **** 
  41:Core/Src/u8g2/Src/u8g2_button.c ****   Description: 
  42:Core/Src/u8g2/Src/u8g2_button.c ****     Draws normal or inverted text with optional frame around text.
  43:Core/Src/u8g2/Src/u8g2_button.c ****     The text (and the frame) can be horizontally centered around the provided reference position.
  44:Core/Src/u8g2/Src/u8g2_button.c ****     This procedure will use the current draw color and current font. The height of the frame
  45:Core/Src/u8g2/Src/u8g2_button.c ****     depends on the setting of setFontRefHeightText(), setFontRefHeightExtendedText() or setFontRefH
  46:Core/Src/u8g2/Src/u8g2_button.c **** 
  47:Core/Src/u8g2/Src/u8g2_button.c **** 
  48:Core/Src/u8g2/Src/u8g2_button.c ****   Note 1: drawColor 2 (XOR) is not supported. Result will be broken with draw color 2.
  49:Core/Src/u8g2/Src/u8g2_button.c ****   Note 2: This procedure will enforce font mode 1 (transparent mode)
  50:Core/Src/u8g2/Src/u8g2_button.c ****   Note 3: Some fonts may add an extra gap on the right side. This is a font problem and can not be 
  51:Core/Src/u8g2/Src/u8g2_button.c ****   
  52:Core/Src/u8g2/Src/u8g2_button.c **** 
  53:Core/Src/u8g2/Src/u8g2_button.c ****   The height of the button is defined by the current font and
  54:Core/Src/u8g2/Src/u8g2_button.c ****     setFontRefHeightText,
  55:Core/Src/u8g2/Src/u8g2_button.c ****     setFontRefHeightExtendedText
  56:Core/Src/u8g2/Src/u8g2_button.c ****     setFontRefHeightAll
  57:Core/Src/u8g2/Src/u8g2_button.c ****   Right padding might be influenced by the font.
  58:Core/Src/u8g2/Src/u8g2_button.c ****   For example u8g2_font_inb16 may add an extra pixel gap (increase padding by one) 
  59:Core/Src/u8g2/Src/u8g2_button.c ****   on the right side.
  60:Core/Src/u8g2/Src/u8g2_button.c ****   The current draw color is considered, but only draw color 0 and 1 are supported
  61:Core/Src/u8g2/Src/u8g2_button.c ****   
  62:Core/Src/u8g2/Src/u8g2_button.c ****   This function requires transparent font mode: setFontMode(1)
  63:Core/Src/u8g2/Src/u8g2_button.c ****   
  64:Core/Src/u8g2/Src/u8g2_button.c ****   Side effect: Font transparent mode is enabled setFontMode(1)
  65:Core/Src/u8g2/Src/u8g2_button.c **** 
  66:Core/Src/u8g2/Src/u8g2_button.c **** */
  67:Core/Src/u8g2/Src/u8g2_button.c **** 
  68:Core/Src/u8g2/Src/u8g2_button.c **** 
  69:Core/Src/u8g2/Src/u8g2_button.c **** 
  70:Core/Src/u8g2/Src/u8g2_button.c **** /*
  71:Core/Src/u8g2/Src/u8g2_button.c **** 
  72:Core/Src/u8g2/Src/u8g2_button.c ****   flags:
  73:Core/Src/u8g2/Src/u8g2_button.c **** 
  74:Core/Src/u8g2/Src/u8g2_button.c ****     U8G2_BTN_BW1 0x01
  75:Core/Src/u8g2/Src/u8g2_button.c ****     U8G2_BTN_BW2 0x02
  76:Core/Src/u8g2/Src/u8g2_button.c ****     U8G2_BTN_BW3 0x03
  77:Core/Src/u8g2/Src/u8g2_button.c **** 
  78:Core/Src/u8g2/Src/u8g2_button.c **** 
  79:Core/Src/u8g2/Src/u8g2_button.c ****     U8G2_BTN_SHADOW0 0x08
  80:Core/Src/u8g2/Src/u8g2_button.c ****     U8G2_BTN_SHADOW1 0x10
  81:Core/Src/u8g2/Src/u8g2_button.c ****     U8G2_BTN_SHADOW2 0x18
  82:Core/Src/u8g2/Src/u8g2_button.c **** 
  83:Core/Src/u8g2/Src/u8g2_button.c ****     U8G2_BTN_INV 0x20
  84:Core/Src/u8g2/Src/u8g2_button.c **** 
  85:Core/Src/u8g2/Src/u8g2_button.c ****     U8G2_BTN_HCENTER 0x40
  86:Core/Src/u8g2/Src/u8g2_button.c **** 
ARM GAS  C:\Users\MOROSH~1\AppData\Local\Temp\ccLXNPhX.s 			page 3


  87:Core/Src/u8g2/Src/u8g2_button.c ****     U8G2_BTN_XFRAME 0x80
  88:Core/Src/u8g2/Src/u8g2_button.c **** 
  89:Core/Src/u8g2/Src/u8g2_button.c ****   Total size without shadow: width+2*padding_h+2*border
  90:Core/Src/u8g2/Src/u8g2_button.c ****   Total size with U8G2_BTN_SHADOW0: width+2*padding_h+3*border
  91:Core/Src/u8g2/Src/u8g2_button.c ****   Total size with U8G2_BTN_SHADOW1: width+2*padding_h+3*border+1
  92:Core/Src/u8g2/Src/u8g2_button.c ****   Total size with U8G2_BTN_SHADOW2: width+2*padding_h+3*border+2
  93:Core/Src/u8g2/Src/u8g2_button.c ****   
  94:Core/Src/u8g2/Src/u8g2_button.c ****   U8G2_BTN_XFRAME:
  95:Core/Src/u8g2/Src/u8g2_button.c ****     draw another one pixel frame with one pixel gap, will not look good with shadow
  96:Core/Src/u8g2/Src/u8g2_button.c **** */
  97:Core/Src/u8g2/Src/u8g2_button.c **** 
  98:Core/Src/u8g2/Src/u8g2_button.c **** void u8g2_DrawButtonFrame(u8g2_t *u8g2, u8g2_uint_t x, u8g2_uint_t y, u8g2_uint_t flags, u8g2_uint_
  99:Core/Src/u8g2/Src/u8g2_button.c **** {
  30              		.loc 1 99 1 view -0
  31              		.cfi_startproc
  32              		@ args = 12, pretend = 0, frame = 56
  33              		@ frame_needed = 0, uses_anonymous_args = 0
  34              		.loc 1 99 1 is_stmt 0 view .LVU1
  35 0000 2DE9F04F 		push	{r4, r5, r6, r7, r8, r9, r10, fp, lr}
  36              	.LCFI0:
  37              		.cfi_def_cfa_offset 36
  38              		.cfi_offset 4, -36
  39              		.cfi_offset 5, -32
  40              		.cfi_offset 6, -28
  41              		.cfi_offset 7, -24
  42              		.cfi_offset 8, -20
  43              		.cfi_offset 9, -16
  44              		.cfi_offset 10, -12
  45              		.cfi_offset 11, -8
  46              		.cfi_offset 14, -4
  47 0004 91B0     		sub	sp, sp, #68
  48              	.LCFI1:
  49              		.cfi_def_cfa_offset 104
  50 0006 0746     		mov	r7, r0
  51 0008 0891     		str	r1, [sp, #32]
  52 000a 0992     		str	r2, [sp, #36]
  53 000c 0493     		str	r3, [sp, #16]
  54 000e BDF86820 		ldrh	r2, [sp, #104]
  55              	.LVL1:
  56              		.loc 1 99 1 view .LVU2
  57 0012 0A92     		str	r2, [sp, #40]
  58 0014 BDF86C20 		ldrh	r2, [sp, #108]
  59 0018 0B92     		str	r2, [sp, #44]
  60 001a BDF87020 		ldrh	r2, [sp, #112]
  61 001e 0C92     		str	r2, [sp, #48]
 100:Core/Src/u8g2/Src/u8g2_button.c ****   u8g2_uint_t w = text_width;
  62              		.loc 1 100 3 is_stmt 1 view .LVU3
  63              	.LVL2:
 101:Core/Src/u8g2/Src/u8g2_button.c ****   
 102:Core/Src/u8g2/Src/u8g2_button.c ****   u8g2_uint_t xx, yy, ww, hh;
  64              		.loc 1 102 3 view .LVU4
 103:Core/Src/u8g2/Src/u8g2_button.c ****   
 104:Core/Src/u8g2/Src/u8g2_button.c ****   u8g2_uint_t gap_frame = U8G2_BTN_BW_MASK+1;
  65              		.loc 1 104 3 view .LVU5
 105:Core/Src/u8g2/Src/u8g2_button.c ****     
 106:Core/Src/u8g2/Src/u8g2_button.c ****   u8g2_uint_t border_width = flags & U8G2_BTN_BW_MASK;
  66              		.loc 1 106 3 view .LVU6
ARM GAS  C:\Users\MOROSH~1\AppData\Local\Temp\ccLXNPhX.s 			page 4


  67              		.loc 1 106 15 is_stmt 0 view .LVU7
  68 0020 03F00702 		and	r2, r3, #7
  69 0024 0E92     		str	r2, [sp, #56]
  70              	.LVL3:
 107:Core/Src/u8g2/Src/u8g2_button.c **** 
 108:Core/Src/u8g2/Src/u8g2_button.c ****   int8_t a = u8g2_GetAscent(u8g2);
  71              		.loc 1 108 3 is_stmt 1 view .LVU8
  72              		.loc 1 108 10 is_stmt 0 view .LVU9
  73 0026 90F98E10 		ldrsb	r1, [r0, #142]
  74              	.LVL4:
  75              		.loc 1 108 10 view .LVU10
  76 002a 0691     		str	r1, [sp, #24]
  77              	.LVL5:
 109:Core/Src/u8g2/Src/u8g2_button.c ****   int8_t d = u8g2_GetDescent(u8g2);
  78              		.loc 1 109 3 is_stmt 1 view .LVU11
  79              		.loc 1 109 10 is_stmt 0 view .LVU12
  80 002c 90F98F10 		ldrsb	r1, [r0, #143]
  81 0030 0791     		str	r1, [sp, #28]
  82              	.LVL6:
 110:Core/Src/u8g2/Src/u8g2_button.c ****   
 111:Core/Src/u8g2/Src/u8g2_button.c ****   uint8_t color_backup = u8g2->draw_color;
  83              		.loc 1 111 3 is_stmt 1 view .LVU13
  84              		.loc 1 111 11 is_stmt 0 view .LVU14
  85 0032 90F89210 		ldrb	r1, [r0, #146]	@ zero_extendqisi2
  86 0036 0591     		str	r1, [sp, #20]
  87              	.LVL7:
 112:Core/Src/u8g2/Src/u8g2_button.c ****   
 113:Core/Src/u8g2/Src/u8g2_button.c ****   
 114:Core/Src/u8g2/Src/u8g2_button.c ****   if ( flags & U8G2_BTN_XFRAME )
  88              		.loc 1 114 3 is_stmt 1 view .LVU15
  89              		.loc 1 114 6 is_stmt 0 view .LVU16
  90 0038 13F0800F 		tst	r3, #128
  91 003c 03D0     		beq	.L10
 115:Core/Src/u8g2/Src/u8g2_button.c ****   {
 116:Core/Src/u8g2/Src/u8g2_button.c ****     border_width++;
  92              		.loc 1 116 5 is_stmt 1 view .LVU17
  93              		.loc 1 116 17 is_stmt 0 view .LVU18
  94 003e 531C     		adds	r3, r2, #1
  95              	.LVL8:
  96              		.loc 1 116 17 view .LVU19
  97 0040 0D93     		str	r3, [sp, #52]
  98              	.LVL9:
 117:Core/Src/u8g2/Src/u8g2_button.c ****     gap_frame = border_width;
  99              		.loc 1 117 5 is_stmt 1 view .LVU20
 118:Core/Src/u8g2/Src/u8g2_button.c ****     border_width++;
 100              		.loc 1 118 5 view .LVU21
 101              		.loc 1 118 17 is_stmt 0 view .LVU22
 102 0042 951C     		adds	r5, r2, #2
 103              	.LVL10:
 104              		.loc 1 118 17 view .LVU23
 105 0044 31E0     		b	.L8
 106              	.LVL11:
 107              	.L10:
 106:Core/Src/u8g2/Src/u8g2_button.c **** 
 108              		.loc 1 106 15 view .LVU24
 109 0046 0E9D     		ldr	r5, [sp, #56]
 104:Core/Src/u8g2/Src/u8g2_button.c ****     
ARM GAS  C:\Users\MOROSH~1\AppData\Local\Temp\ccLXNPhX.s 			page 5


 110              		.loc 1 104 15 view .LVU25
 111 0048 0823     		movs	r3, #8
 112              	.LVL12:
 104:Core/Src/u8g2/Src/u8g2_button.c ****     
 113              		.loc 1 104 15 view .LVU26
 114 004a 0D93     		str	r3, [sp, #52]
 115 004c 2DE0     		b	.L8
 116              	.LVL13:
 117              	.L12:
 119:Core/Src/u8g2/Src/u8g2_button.c ****   }
 120:Core/Src/u8g2/Src/u8g2_button.c ****   
 121:Core/Src/u8g2/Src/u8g2_button.c **** 
 122:Core/Src/u8g2/Src/u8g2_button.c ****   
 123:Core/Src/u8g2/Src/u8g2_button.c ****   for(;;)
 124:Core/Src/u8g2/Src/u8g2_button.c ****   {
 125:Core/Src/u8g2/Src/u8g2_button.c **** 
 126:Core/Src/u8g2/Src/u8g2_button.c ****     xx = x;
 127:Core/Src/u8g2/Src/u8g2_button.c ****     xx -= padding_h;
 128:Core/Src/u8g2/Src/u8g2_button.c ****     xx -= border_width;
 129:Core/Src/u8g2/Src/u8g2_button.c ****     ww = w+2*padding_h+2*border_width;
 130:Core/Src/u8g2/Src/u8g2_button.c ****     
 131:Core/Src/u8g2/Src/u8g2_button.c ****     yy = y;
 132:Core/Src/u8g2/Src/u8g2_button.c ****     yy += u8g2->font_calc_vref(u8g2);
 133:Core/Src/u8g2/Src/u8g2_button.c ****     yy -= a;
 134:Core/Src/u8g2/Src/u8g2_button.c ****     yy -= padding_v;
 135:Core/Src/u8g2/Src/u8g2_button.c ****     yy -= border_width;
 136:Core/Src/u8g2/Src/u8g2_button.c ****     hh = a-d+2*padding_v+2*border_width;
 137:Core/Src/u8g2/Src/u8g2_button.c ****     if ( border_width == 0 )
 138:Core/Src/u8g2/Src/u8g2_button.c ****       break;
 139:Core/Src/u8g2/Src/u8g2_button.c ****     if ( border_width == gap_frame )
 140:Core/Src/u8g2/Src/u8g2_button.c ****     {
 141:Core/Src/u8g2/Src/u8g2_button.c ****       u8g2_SetDrawColor(u8g2, color_backup == 0 ? 1 : 0);
 118              		.loc 1 141 7 is_stmt 1 view .LVU27
 119 004e 059B     		ldr	r3, [sp, #20]
 120 0050 B3FA83F1 		clz	r1, r3
 121 0054 4909     		lsrs	r1, r1, #5
 122 0056 3846     		mov	r0, r7
 123 0058 FFF7FEFF 		bl	u8g2_SetDrawColor
 124              	.LVL14:
 125 005c 54E0     		b	.L4
 126              	.LVL15:
 127              	.L7:
 128              	.LBB2:
 142:Core/Src/u8g2/Src/u8g2_button.c ****     }
 143:Core/Src/u8g2/Src/u8g2_button.c ****     u8g2_DrawFrame(u8g2, xx, yy, ww, hh);
 144:Core/Src/u8g2/Src/u8g2_button.c ****     u8g2_SetDrawColor(u8g2, color_backup);
 145:Core/Src/u8g2/Src/u8g2_button.c ****     
 146:Core/Src/u8g2/Src/u8g2_button.c ****     if ( flags & U8G2_BTN_SHADOW_MASK )
 147:Core/Src/u8g2/Src/u8g2_button.c ****     {
 148:Core/Src/u8g2/Src/u8g2_button.c ****       if ( border_width == (flags & U8G2_BTN_BW_MASK) )
 149:Core/Src/u8g2/Src/u8g2_button.c ****       {
 150:Core/Src/u8g2/Src/u8g2_button.c ****         u8g2_uint_t i;
 151:Core/Src/u8g2/Src/u8g2_button.c ****         u8g2_uint_t shadow_gap = (flags & U8G2_BTN_SHADOW_MASK) >> U8G2_BTN_SHADOW_POS;
 152:Core/Src/u8g2/Src/u8g2_button.c ****         shadow_gap--;
 153:Core/Src/u8g2/Src/u8g2_button.c ****         for( i = 0; i < border_width; i++ )
 154:Core/Src/u8g2/Src/u8g2_button.c ****         {
 155:Core/Src/u8g2/Src/u8g2_button.c ****           u8g2_DrawHLine(u8g2, xx+border_width+shadow_gap,yy+hh+i+shadow_gap,ww);
ARM GAS  C:\Users\MOROSH~1\AppData\Local\Temp\ccLXNPhX.s 			page 6


 129              		.loc 1 155 11 discriminator 3 view .LVU28
 130              		.loc 1 155 61 is_stmt 0 discriminator 3 view .LVU29
 131 005e 09EB0602 		add	r2, r9, r6
 132              		.loc 1 155 64 discriminator 3 view .LVU30
 133 0062 18FA82F2 		uxtah	r2, r8, r2
 134              		.loc 1 155 11 discriminator 3 view .LVU31
 135 0066 1AFA82F2 		uxtah	r2, r10, r2
 136 006a 0F9B     		ldr	r3, [sp, #60]
 137 006c 03EB0A01 		add	r1, r3, r10
 138 0070 5B46     		mov	r3, fp
 139 0072 92B2     		uxth	r2, r2
 140 0074 89B2     		uxth	r1, r1
 141 0076 3846     		mov	r0, r7
 142 0078 FFF7FEFF 		bl	u8g2_DrawHLine
 143              	.LVL16:
 156:Core/Src/u8g2/Src/u8g2_button.c ****           u8g2_DrawVLine(u8g2, xx+ww+i+shadow_gap,yy+border_width+shadow_gap,hh);
 144              		.loc 1 156 11 is_stmt 1 discriminator 3 view .LVU32
 145              		.loc 1 156 34 is_stmt 0 discriminator 3 view .LVU33
 146 007c 039B     		ldr	r3, [sp, #12]
 147 007e 03EB0B01 		add	r1, r3, fp
 148              		.loc 1 156 37 discriminator 3 view .LVU34
 149 0082 18FA81F1 		uxtah	r1, r8, r1
 150              		.loc 1 156 11 discriminator 3 view .LVU35
 151 0086 04EB0A02 		add	r2, r4, r10
 152 008a 1AFA81F1 		uxtah	r1, r10, r1
 153 008e 3346     		mov	r3, r6
 154 0090 92B2     		uxth	r2, r2
 155 0092 89B2     		uxth	r1, r1
 156 0094 3846     		mov	r0, r7
 157 0096 FFF7FEFF 		bl	u8g2_DrawVLine
 158              	.LVL17:
 153:Core/Src/u8g2/Src/u8g2_button.c ****         {
 159              		.loc 1 153 39 is_stmt 1 discriminator 3 view .LVU36
 153:Core/Src/u8g2/Src/u8g2_button.c ****         {
 160              		.loc 1 153 40 is_stmt 0 discriminator 3 view .LVU37
 161 009a 08F10108 		add	r8, r8, #1
 162              	.LVL18:
 153:Core/Src/u8g2/Src/u8g2_button.c ****         {
 163              		.loc 1 153 40 discriminator 3 view .LVU38
 164 009e 1FFA88F8 		uxth	r8, r8
 165              	.LVL19:
 166              	.L6:
 153:Core/Src/u8g2/Src/u8g2_button.c ****         {
 167              		.loc 1 153 21 is_stmt 1 discriminator 1 view .LVU39
 153:Core/Src/u8g2/Src/u8g2_button.c ****         {
 168              		.loc 1 153 9 is_stmt 0 discriminator 1 view .LVU40
 169 00a2 4545     		cmp	r5, r8
 170 00a4 DBD8     		bhi	.L7
 171              	.LVL20:
 172              	.L5:
 153:Core/Src/u8g2/Src/u8g2_button.c ****         {
 173              		.loc 1 153 9 discriminator 1 view .LVU41
 174              	.LBE2:
 157:Core/Src/u8g2/Src/u8g2_button.c ****         }
 158:Core/Src/u8g2/Src/u8g2_button.c ****       }
 159:Core/Src/u8g2/Src/u8g2_button.c ****     }
 160:Core/Src/u8g2/Src/u8g2_button.c ****     border_width--;
ARM GAS  C:\Users\MOROSH~1\AppData\Local\Temp\ccLXNPhX.s 			page 7


 175              		.loc 1 160 5 is_stmt 1 view .LVU42
 176              		.loc 1 160 17 is_stmt 0 view .LVU43
 177 00a6 013D     		subs	r5, r5, #1
 178              	.LVL21:
 179              		.loc 1 160 17 view .LVU44
 180 00a8 ADB2     		uxth	r5, r5
 181              	.LVL22:
 123:Core/Src/u8g2/Src/u8g2_button.c ****   {
 182              		.loc 1 123 8 is_stmt 1 view .LVU45
 183              	.L8:
 123:Core/Src/u8g2/Src/u8g2_button.c ****   {
 184              		.loc 1 123 3 view .LVU46
 126:Core/Src/u8g2/Src/u8g2_button.c ****     xx -= padding_h;
 185              		.loc 1 126 5 view .LVU47
 127:Core/Src/u8g2/Src/u8g2_button.c ****     xx -= border_width;
 186              		.loc 1 127 5 view .LVU48
 127:Core/Src/u8g2/Src/u8g2_button.c ****     xx -= border_width;
 187              		.loc 1 127 8 is_stmt 0 view .LVU49
 188 00aa 089B     		ldr	r3, [sp, #32]
 189 00ac 0B9A     		ldr	r2, [sp, #44]
 190 00ae 9B1A     		subs	r3, r3, r2
 191 00b0 1FFA83FA 		uxth	r10, r3
 192              	.LVL23:
 128:Core/Src/u8g2/Src/u8g2_button.c ****     ww = w+2*padding_h+2*border_width;
 193              		.loc 1 128 5 is_stmt 1 view .LVU50
 128:Core/Src/u8g2/Src/u8g2_button.c ****     ww = w+2*padding_h+2*border_width;
 194              		.loc 1 128 8 is_stmt 0 view .LVU51
 195 00b4 AAEB0503 		sub	r3, r10, r5
 196 00b8 9BB2     		uxth	r3, r3
 197 00ba 0393     		str	r3, [sp, #12]
 198              	.LVL24:
 129:Core/Src/u8g2/Src/u8g2_button.c ****     
 199              		.loc 1 129 5 is_stmt 1 view .LVU52
 129:Core/Src/u8g2/Src/u8g2_button.c ****     
 200              		.loc 1 129 23 is_stmt 0 view .LVU53
 201 00bc 05EB020B 		add	fp, r5, r2
 202 00c0 4FEA4B0B 		lsl	fp, fp, #1
 203 00c4 1FFA8BFB 		uxth	fp, fp
 129:Core/Src/u8g2/Src/u8g2_button.c ****     
 204              		.loc 1 129 8 view .LVU54
 205 00c8 0A9B     		ldr	r3, [sp, #40]
 206 00ca 9B44     		add	fp, fp, r3
 207 00cc 1FFA8BFB 		uxth	fp, fp
 208              	.LVL25:
 131:Core/Src/u8g2/Src/u8g2_button.c ****     yy += u8g2->font_calc_vref(u8g2);
 209              		.loc 1 131 5 is_stmt 1 view .LVU55
 132:Core/Src/u8g2/Src/u8g2_button.c ****     yy -= a;
 210              		.loc 1 132 5 view .LVU56
 132:Core/Src/u8g2/Src/u8g2_button.c ****     yy -= a;
 211              		.loc 1 132 15 is_stmt 0 view .LVU57
 212 00d0 FB6D     		ldr	r3, [r7, #92]
 132:Core/Src/u8g2/Src/u8g2_button.c ****     yy -= a;
 213              		.loc 1 132 11 view .LVU58
 214 00d2 3846     		mov	r0, r7
 215 00d4 9847     		blx	r3
 216              	.LVL26:
 132:Core/Src/u8g2/Src/u8g2_button.c ****     yy -= a;
ARM GAS  C:\Users\MOROSH~1\AppData\Local\Temp\ccLXNPhX.s 			page 8


 217              		.loc 1 132 8 view .LVU59
 218 00d6 099B     		ldr	r3, [sp, #36]
 219 00d8 1C18     		adds	r4, r3, r0
 220 00da A4B2     		uxth	r4, r4
 221              	.LVL27:
 133:Core/Src/u8g2/Src/u8g2_button.c ****     yy -= padding_v;
 222              		.loc 1 133 5 is_stmt 1 view .LVU60
 133:Core/Src/u8g2/Src/u8g2_button.c ****     yy -= padding_v;
 223              		.loc 1 133 8 is_stmt 0 view .LVU61
 224 00dc 069B     		ldr	r3, [sp, #24]
 225 00de E41A     		subs	r4, r4, r3
 226              	.LVL28:
 133:Core/Src/u8g2/Src/u8g2_button.c ****     yy -= padding_v;
 227              		.loc 1 133 8 view .LVU62
 228 00e0 A4B2     		uxth	r4, r4
 229              	.LVL29:
 134:Core/Src/u8g2/Src/u8g2_button.c ****     yy -= border_width;
 230              		.loc 1 134 5 is_stmt 1 view .LVU63
 134:Core/Src/u8g2/Src/u8g2_button.c ****     yy -= border_width;
 231              		.loc 1 134 8 is_stmt 0 view .LVU64
 232 00e2 0C9A     		ldr	r2, [sp, #48]
 233 00e4 A41A     		subs	r4, r4, r2
 234              	.LVL30:
 134:Core/Src/u8g2/Src/u8g2_button.c ****     yy -= border_width;
 235              		.loc 1 134 8 view .LVU65
 236 00e6 A4B2     		uxth	r4, r4
 237              	.LVL31:
 135:Core/Src/u8g2/Src/u8g2_button.c ****     hh = a-d+2*padding_v+2*border_width;
 238              		.loc 1 135 5 is_stmt 1 view .LVU66
 135:Core/Src/u8g2/Src/u8g2_button.c ****     hh = a-d+2*padding_v+2*border_width;
 239              		.loc 1 135 8 is_stmt 0 view .LVU67
 240 00e8 A4EB0509 		sub	r9, r4, r5
 241 00ec 1FFA89F9 		uxth	r9, r9
 242              	.LVL32:
 136:Core/Src/u8g2/Src/u8g2_button.c ****     if ( border_width == 0 )
 243              		.loc 1 136 5 is_stmt 1 view .LVU68
 136:Core/Src/u8g2/Src/u8g2_button.c ****     if ( border_width == 0 )
 244              		.loc 1 136 11 is_stmt 0 view .LVU69
 245 00f0 0799     		ldr	r1, [sp, #28]
 246 00f2 5E1A     		subs	r6, r3, r1
 136:Core/Src/u8g2/Src/u8g2_button.c ****     if ( border_width == 0 )
 247              		.loc 1 136 25 view .LVU70
 248 00f4 AB18     		adds	r3, r5, r2
 249 00f6 5B00     		lsls	r3, r3, #1
 250 00f8 9BB2     		uxth	r3, r3
 136:Core/Src/u8g2/Src/u8g2_button.c ****     if ( border_width == 0 )
 251              		.loc 1 136 8 view .LVU71
 252 00fa 13FA86F6 		uxtah	r6, r3, r6
 253 00fe B6B2     		uxth	r6, r6
 254              	.LVL33:
 137:Core/Src/u8g2/Src/u8g2_button.c ****       break;
 255              		.loc 1 137 5 is_stmt 1 view .LVU72
 137:Core/Src/u8g2/Src/u8g2_button.c ****       break;
 256              		.loc 1 137 8 is_stmt 0 view .LVU73
 257 0100 FDB1     		cbz	r5, .L3
 139:Core/Src/u8g2/Src/u8g2_button.c ****     {
 258              		.loc 1 139 5 is_stmt 1 view .LVU74
ARM GAS  C:\Users\MOROSH~1\AppData\Local\Temp\ccLXNPhX.s 			page 9


 139:Core/Src/u8g2/Src/u8g2_button.c ****     {
 259              		.loc 1 139 8 is_stmt 0 view .LVU75
 260 0102 0D9B     		ldr	r3, [sp, #52]
 261 0104 9D42     		cmp	r5, r3
 262 0106 A2D0     		beq	.L12
 263              	.L4:
 143:Core/Src/u8g2/Src/u8g2_button.c ****     u8g2_SetDrawColor(u8g2, color_backup);
 264              		.loc 1 143 5 is_stmt 1 view .LVU76
 265 0108 0096     		str	r6, [sp]
 266 010a 5B46     		mov	r3, fp
 267 010c 4A46     		mov	r2, r9
 268 010e 0399     		ldr	r1, [sp, #12]
 269 0110 3846     		mov	r0, r7
 270 0112 FFF7FEFF 		bl	u8g2_DrawFrame
 271              	.LVL34:
 144:Core/Src/u8g2/Src/u8g2_button.c ****     
 272              		.loc 1 144 5 view .LVU77
 273 0116 0599     		ldr	r1, [sp, #20]
 274 0118 3846     		mov	r0, r7
 275 011a FFF7FEFF 		bl	u8g2_SetDrawColor
 276              	.LVL35:
 146:Core/Src/u8g2/Src/u8g2_button.c ****     {
 277              		.loc 1 146 5 view .LVU78
 146:Core/Src/u8g2/Src/u8g2_button.c ****     {
 278              		.loc 1 146 8 is_stmt 0 view .LVU79
 279 011e 049B     		ldr	r3, [sp, #16]
 280 0120 13F0180F 		tst	r3, #24
 281 0124 BFD0     		beq	.L5
 148:Core/Src/u8g2/Src/u8g2_button.c ****       {
 282              		.loc 1 148 7 is_stmt 1 view .LVU80
 148:Core/Src/u8g2/Src/u8g2_button.c ****       {
 283              		.loc 1 148 10 is_stmt 0 view .LVU81
 284 0126 0E9B     		ldr	r3, [sp, #56]
 285 0128 9D42     		cmp	r5, r3
 286 012a BCD1     		bne	.L5
 287              	.LBB3:
 150:Core/Src/u8g2/Src/u8g2_button.c ****         u8g2_uint_t shadow_gap = (flags & U8G2_BTN_SHADOW_MASK) >> U8G2_BTN_SHADOW_POS;
 288              		.loc 1 150 9 is_stmt 1 view .LVU82
 151:Core/Src/u8g2/Src/u8g2_button.c ****         shadow_gap--;
 289              		.loc 1 151 9 view .LVU83
 151:Core/Src/u8g2/Src/u8g2_button.c ****         shadow_gap--;
 290              		.loc 1 151 21 is_stmt 0 view .LVU84
 291 012c 049B     		ldr	r3, [sp, #16]
 292 012e C3F3C103 		ubfx	r3, r3, #3, #2
 293              	.LVL36:
 152:Core/Src/u8g2/Src/u8g2_button.c ****         for( i = 0; i < border_width; i++ )
 294              		.loc 1 152 9 is_stmt 1 view .LVU85
 152:Core/Src/u8g2/Src/u8g2_button.c ****         for( i = 0; i < border_width; i++ )
 295              		.loc 1 152 19 is_stmt 0 view .LVU86
 296 0132 013B     		subs	r3, r3, #1
 297              	.LVL37:
 152:Core/Src/u8g2/Src/u8g2_button.c ****         for( i = 0; i < border_width; i++ )
 298              		.loc 1 152 19 view .LVU87
 299 0134 9BB2     		uxth	r3, r3
 300              	.LVL38:
 153:Core/Src/u8g2/Src/u8g2_button.c ****         {
 301              		.loc 1 153 9 is_stmt 1 view .LVU88
ARM GAS  C:\Users\MOROSH~1\AppData\Local\Temp\ccLXNPhX.s 			page 10


 153:Core/Src/u8g2/Src/u8g2_button.c ****         {
 302              		.loc 1 153 16 is_stmt 0 view .LVU89
 303 0136 4FF00008 		mov	r8, #0
 304 013a CDF83CA0 		str	r10, [sp, #60]
 305 013e 9A46     		mov	r10, r3
 153:Core/Src/u8g2/Src/u8g2_button.c ****         {
 306              		.loc 1 153 9 view .LVU90
 307 0140 AFE7     		b	.L6
 308              	.LVL39:
 309              	.L3:
 153:Core/Src/u8g2/Src/u8g2_button.c ****         {
 310              		.loc 1 153 9 view .LVU91
 311              	.LBE3:
 161:Core/Src/u8g2/Src/u8g2_button.c ****   } /* for */
 162:Core/Src/u8g2/Src/u8g2_button.c ****   
 163:Core/Src/u8g2/Src/u8g2_button.c ****   if ( flags & U8G2_BTN_INV )
 312              		.loc 1 163 3 is_stmt 1 view .LVU92
 313              		.loc 1 163 6 is_stmt 0 view .LVU93
 314 0142 049B     		ldr	r3, [sp, #16]
 315 0144 13F0200F 		tst	r3, #32
 316 0148 02D1     		bne	.L13
 317              	.L1:
 164:Core/Src/u8g2/Src/u8g2_button.c ****   {
 165:Core/Src/u8g2/Src/u8g2_button.c ****     u8g2_SetDrawColor(u8g2, 2);         /* XOR */
 166:Core/Src/u8g2/Src/u8g2_button.c ****     u8g2_DrawBox(u8g2, xx, yy, ww, hh);
 167:Core/Src/u8g2/Src/u8g2_button.c ****     u8g2_SetDrawColor(u8g2, color_backup);
 168:Core/Src/u8g2/Src/u8g2_button.c ****   }
 169:Core/Src/u8g2/Src/u8g2_button.c **** }
 318              		.loc 1 169 1 view .LVU94
 319 014a 11B0     		add	sp, sp, #68
 320              	.LCFI2:
 321              		.cfi_remember_state
 322              		.cfi_def_cfa_offset 36
 323              		@ sp needed
 324 014c BDE8F08F 		pop	{r4, r5, r6, r7, r8, r9, r10, fp, pc}
 325              	.LVL40:
 326              	.L13:
 327              	.LCFI3:
 328              		.cfi_restore_state
 165:Core/Src/u8g2/Src/u8g2_button.c ****     u8g2_DrawBox(u8g2, xx, yy, ww, hh);
 329              		.loc 1 165 5 is_stmt 1 view .LVU95
 330 0150 0221     		movs	r1, #2
 331 0152 3846     		mov	r0, r7
 332 0154 FFF7FEFF 		bl	u8g2_SetDrawColor
 333              	.LVL41:
 166:Core/Src/u8g2/Src/u8g2_button.c ****     u8g2_SetDrawColor(u8g2, color_backup);
 334              		.loc 1 166 5 view .LVU96
 335 0158 0096     		str	r6, [sp]
 336 015a 5B46     		mov	r3, fp
 337 015c 4A46     		mov	r2, r9
 338 015e 0399     		ldr	r1, [sp, #12]
 339 0160 3846     		mov	r0, r7
 340 0162 FFF7FEFF 		bl	u8g2_DrawBox
 341              	.LVL42:
 167:Core/Src/u8g2/Src/u8g2_button.c ****   }
 342              		.loc 1 167 5 view .LVU97
 343 0166 0599     		ldr	r1, [sp, #20]
ARM GAS  C:\Users\MOROSH~1\AppData\Local\Temp\ccLXNPhX.s 			page 11


 344 0168 3846     		mov	r0, r7
 345 016a FFF7FEFF 		bl	u8g2_SetDrawColor
 346              	.LVL43:
 347              		.loc 1 169 1 is_stmt 0 view .LVU98
 348 016e ECE7     		b	.L1
 349              		.cfi_endproc
 350              	.LFE0:
 352              		.section	.text.u8g2_DrawButtonUTF8,"ax",%progbits
 353              		.align	1
 354              		.global	u8g2_DrawButtonUTF8
 355              		.syntax unified
 356              		.thumb
 357              		.thumb_func
 359              	u8g2_DrawButtonUTF8:
 360              	.LVL44:
 361              	.LFB1:
 170:Core/Src/u8g2/Src/u8g2_button.c **** 
 171:Core/Src/u8g2/Src/u8g2_button.c **** void u8g2_DrawButtonUTF8(u8g2_t *u8g2, u8g2_uint_t x, u8g2_uint_t y, u8g2_uint_t flags, u8g2_uint_t
 172:Core/Src/u8g2/Src/u8g2_button.c **** {
 362              		.loc 1 172 1 is_stmt 1 view -0
 363              		.cfi_startproc
 364              		@ args = 16, pretend = 0, frame = 0
 365              		@ frame_needed = 0, uses_anonymous_args = 0
 366              		.loc 1 172 1 is_stmt 0 view .LVU100
 367 0000 2DE9F04F 		push	{r4, r5, r6, r7, r8, r9, r10, fp, lr}
 368              	.LCFI4:
 369              		.cfi_def_cfa_offset 36
 370              		.cfi_offset 4, -36
 371              		.cfi_offset 5, -32
 372              		.cfi_offset 6, -28
 373              		.cfi_offset 7, -24
 374              		.cfi_offset 8, -20
 375              		.cfi_offset 9, -16
 376              		.cfi_offset 10, -12
 377              		.cfi_offset 11, -8
 378              		.cfi_offset 14, -4
 379 0004 85B0     		sub	sp, sp, #20
 380              	.LCFI5:
 381              		.cfi_def_cfa_offset 56
 382 0006 0646     		mov	r6, r0
 383 0008 0C46     		mov	r4, r1
 384 000a 9046     		mov	r8, r2
 385 000c 1F46     		mov	r7, r3
 386 000e BDF838B0 		ldrh	fp, [sp, #56]
 387 0012 DDF844A0 		ldr	r10, [sp, #68]
 173:Core/Src/u8g2/Src/u8g2_button.c ****   u8g2_uint_t w = u8g2_GetUTF8Width(u8g2, text);
 388              		.loc 1 173 3 is_stmt 1 view .LVU101
 389              		.loc 1 173 19 is_stmt 0 view .LVU102
 390 0016 5146     		mov	r1, r10
 391              	.LVL45:
 392              		.loc 1 173 19 view .LVU103
 393 0018 FFF7FEFF 		bl	u8g2_GetUTF8Width
 394              	.LVL46:
 395              		.loc 1 173 19 view .LVU104
 396 001c 0546     		mov	r5, r0
 397              	.LVL47:
 174:Core/Src/u8g2/Src/u8g2_button.c ****   
ARM GAS  C:\Users\MOROSH~1\AppData\Local\Temp\ccLXNPhX.s 			page 12


 175:Core/Src/u8g2/Src/u8g2_button.c ****   u8g2_uint_t text_x_offset = 0; 
 398              		.loc 1 175 3 is_stmt 1 view .LVU105
 176:Core/Src/u8g2/Src/u8g2_button.c **** 
 177:Core/Src/u8g2/Src/u8g2_button.c ****   if ( flags & U8G2_BTN_HCENTER )
 399              		.loc 1 177 3 view .LVU106
 400              		.loc 1 177 6 is_stmt 0 view .LVU107
 401 001e 17F04009 		ands	r9, r7, #64
 402 0022 05D0     		beq	.L15
 178:Core/Src/u8g2/Src/u8g2_button.c ****     x -= (w+1)/2;
 403              		.loc 1 178 5 is_stmt 1 view .LVU108
 404              		.loc 1 178 12 is_stmt 0 view .LVU109
 405 0024 431C     		adds	r3, r0, #1
 406              		.loc 1 178 15 view .LVU110
 407 0026 03EBD373 		add	r3, r3, r3, lsr #31
 408              		.loc 1 178 7 view .LVU111
 409 002a A4EB6304 		sub	r4, r4, r3, asr #1
 410 002e A4B2     		uxth	r4, r4
 411              	.LVL48:
 412              	.L15:
 179:Core/Src/u8g2/Src/u8g2_button.c **** 
 180:Core/Src/u8g2/Src/u8g2_button.c ****   if ( w < width )
 413              		.loc 1 180 3 is_stmt 1 view .LVU112
 414              		.loc 1 180 6 is_stmt 0 view .LVU113
 415 0030 5D45     		cmp	r5, fp
 416 0032 0AD2     		bcs	.L17
 181:Core/Src/u8g2/Src/u8g2_button.c ****   {
 182:Core/Src/u8g2/Src/u8g2_button.c ****     if ( flags & U8G2_BTN_HCENTER )
 417              		.loc 1 182 5 is_stmt 1 view .LVU114
 418              		.loc 1 182 8 is_stmt 0 view .LVU115
 419 0034 B9F1000F 		cmp	r9, #0
 420 0038 25D0     		beq	.L18
 183:Core/Src/u8g2/Src/u8g2_button.c ****     {
 184:Core/Src/u8g2/Src/u8g2_button.c ****       text_x_offset = (width-w)/2;
 421              		.loc 1 184 7 is_stmt 1 view .LVU116
 422              		.loc 1 184 29 is_stmt 0 view .LVU117
 423 003a ABEB0505 		sub	r5, fp, r5
 424              		.loc 1 184 32 view .LVU118
 425 003e 05EBD575 		add	r5, r5, r5, lsr #31
 426              		.loc 1 184 21 view .LVU119
 427 0042 C5F34F09 		ubfx	r9, r5, #1, #16
 428              	.LVL49:
 185:Core/Src/u8g2/Src/u8g2_button.c ****     }
 186:Core/Src/u8g2/Src/u8g2_button.c ****     w = width;
 429              		.loc 1 186 7 view .LVU120
 430 0046 5D46     		mov	r5, fp
 431 0048 01E0     		b	.L16
 432              	.LVL50:
 433              	.L17:
 175:Core/Src/u8g2/Src/u8g2_button.c **** 
 434              		.loc 1 175 15 view .LVU121
 435 004a 4FF00009 		mov	r9, #0
 436              	.LVL51:
 437              	.L16:
 187:Core/Src/u8g2/Src/u8g2_button.c ****   }
 188:Core/Src/u8g2/Src/u8g2_button.c ****   
 189:Core/Src/u8g2/Src/u8g2_button.c ****   u8g2_SetFontMode(u8g2, 1);    
 438              		.loc 1 189 3 is_stmt 1 view .LVU122
ARM GAS  C:\Users\MOROSH~1\AppData\Local\Temp\ccLXNPhX.s 			page 13


 439 004e 0121     		movs	r1, #1
 440 0050 3046     		mov	r0, r6
 441 0052 FFF7FEFF 		bl	u8g2_SetFontMode
 442              	.LVL52:
 190:Core/Src/u8g2/Src/u8g2_button.c ****   u8g2_DrawUTF8(u8g2, x,y, text);
 443              		.loc 1 190 3 view .LVU123
 444 0056 5346     		mov	r3, r10
 445 0058 4246     		mov	r2, r8
 446 005a 2146     		mov	r1, r4
 447 005c 3046     		mov	r0, r6
 448 005e FFF7FEFF 		bl	u8g2_DrawUTF8
 449              	.LVL53:
 191:Core/Src/u8g2/Src/u8g2_button.c ****   u8g2_DrawButtonFrame(u8g2, x-text_x_offset, y, flags, w, padding_h, padding_v);
 450              		.loc 1 191 3 view .LVU124
 451 0062 A4EB0901 		sub	r1, r4, r9
 452 0066 BDF84030 		ldrh	r3, [sp, #64]
 453 006a 0293     		str	r3, [sp, #8]
 454 006c BDF83C30 		ldrh	r3, [sp, #60]
 455 0070 0193     		str	r3, [sp, #4]
 456 0072 0095     		str	r5, [sp]
 457 0074 3B46     		mov	r3, r7
 458 0076 4246     		mov	r2, r8
 459 0078 89B2     		uxth	r1, r1
 460 007a 3046     		mov	r0, r6
 461 007c FFF7FEFF 		bl	u8g2_DrawButtonFrame
 462              	.LVL54:
 192:Core/Src/u8g2/Src/u8g2_button.c ****   
 193:Core/Src/u8g2/Src/u8g2_button.c **** }
 463              		.loc 1 193 1 is_stmt 0 view .LVU125
 464 0080 05B0     		add	sp, sp, #20
 465              	.LCFI6:
 466              		.cfi_remember_state
 467              		.cfi_def_cfa_offset 36
 468              		@ sp needed
 469 0082 BDE8F08F 		pop	{r4, r5, r6, r7, r8, r9, r10, fp, pc}
 470              	.LVL55:
 471              	.L18:
 472              	.LCFI7:
 473              		.cfi_restore_state
 186:Core/Src/u8g2/Src/u8g2_button.c ****   }
 474              		.loc 1 186 7 view .LVU126
 475 0086 5D46     		mov	r5, fp
 476 0088 E1E7     		b	.L16
 477              		.cfi_endproc
 478              	.LFE1:
 480              		.text
 481              	.Letext0:
 482              		.file 2 "c:\\program files (x86)\\gnu arm embedded toolchain\\10 2021.10\\arm-none-eabi\\include\\
 483              		.file 3 "c:\\program files (x86)\\gnu arm embedded toolchain\\10 2021.10\\arm-none-eabi\\include\\
 484              		.file 4 "Core/Src/u8g2/Inc/u8x8.h"
 485              		.file 5 "Core/Src/u8g2/Inc/u8g2.h"
ARM GAS  C:\Users\MOROSH~1\AppData\Local\Temp\ccLXNPhX.s 			page 14

