ARM GAS  C:\Users\MOROSH~1\AppData\Local\Temp\ccXJN7S2.s 			page 1


   1              		.cpu cortex-m4
   2              		.arch armv7e-m
   3              		.fpu fpv4-sp-d16
   4              		.eabi_attribute 27, 1
   5              		.eabi_attribute 28, 1
   6              		.eabi_attribute 20, 1
   7              		.eabi_attribute 21, 1
   8              		.eabi_attribute 23, 3
   9              		.eabi_attribute 24, 1
  10              		.eabi_attribute 25, 1
  11              		.eabi_attribute 26, 1
  12              		.eabi_attribute 30, 1
  13              		.eabi_attribute 34, 1
  14              		.eabi_attribute 18, 4
  15              		.file	"u8g2_circle.c"
  16              		.text
  17              	.Ltext0:
  18              		.cfi_sections	.debug_frame
  19              		.section	.text.u8g2_draw_circle_section,"ax",%progbits
  20              		.align	1
  21              		.syntax unified
  22              		.thumb
  23              		.thumb_func
  25              	u8g2_draw_circle_section:
  26              	.LVL0:
  27              	.LFB0:
  28              		.file 1 "Core/Src/u8g2/Src/u8g2_circle.c"
   1:Core/Src/u8g2/Src/u8g2_circle.c **** /*
   2:Core/Src/u8g2/Src/u8g2_circle.c **** 
   3:Core/Src/u8g2/Src/u8g2_circle.c ****   u8g2_circle.c
   4:Core/Src/u8g2/Src/u8g2_circle.c **** 
   5:Core/Src/u8g2/Src/u8g2_circle.c ****   Universal 8bit Graphics Library (https://github.com/olikraus/u8g2/)
   6:Core/Src/u8g2/Src/u8g2_circle.c **** 
   7:Core/Src/u8g2/Src/u8g2_circle.c ****   Copyright (c) 2016, olikraus@gmail.com
   8:Core/Src/u8g2/Src/u8g2_circle.c ****   All rights reserved.
   9:Core/Src/u8g2/Src/u8g2_circle.c **** 
  10:Core/Src/u8g2/Src/u8g2_circle.c ****   Redistribution and use in source and binary forms, with or without modification, 
  11:Core/Src/u8g2/Src/u8g2_circle.c ****   are permitted provided that the following conditions are met:
  12:Core/Src/u8g2/Src/u8g2_circle.c **** 
  13:Core/Src/u8g2/Src/u8g2_circle.c ****   * Redistributions of source code must retain the above copyright notice, this list 
  14:Core/Src/u8g2/Src/u8g2_circle.c ****     of conditions and the following disclaimer.
  15:Core/Src/u8g2/Src/u8g2_circle.c ****     
  16:Core/Src/u8g2/Src/u8g2_circle.c ****   * Redistributions in binary form must reproduce the above copyright notice, this 
  17:Core/Src/u8g2/Src/u8g2_circle.c ****     list of conditions and the following disclaimer in the documentation and/or other 
  18:Core/Src/u8g2/Src/u8g2_circle.c ****     materials provided with the distribution.
  19:Core/Src/u8g2/Src/u8g2_circle.c **** 
  20:Core/Src/u8g2/Src/u8g2_circle.c ****   THIS SOFTWARE IS PROVIDED BY THE COPYRIGHT HOLDERS AND 
  21:Core/Src/u8g2/Src/u8g2_circle.c ****   CONTRIBUTORS "AS IS" AND ANY EXPRESS OR IMPLIED WARRANTIES, 
  22:Core/Src/u8g2/Src/u8g2_circle.c ****   INCLUDING, BUT NOT LIMITED TO, THE IMPLIED WARRANTIES OF 
  23:Core/Src/u8g2/Src/u8g2_circle.c ****   MERCHANTABILITY AND FITNESS FOR A PARTICULAR PURPOSE ARE 
  24:Core/Src/u8g2/Src/u8g2_circle.c ****   DISCLAIMED. IN NO EVENT SHALL THE COPYRIGHT HOLDER OR 
  25:Core/Src/u8g2/Src/u8g2_circle.c ****   CONTRIBUTORS BE LIABLE FOR ANY DIRECT, INDIRECT, INCIDENTAL, 
  26:Core/Src/u8g2/Src/u8g2_circle.c ****   SPECIAL, EXEMPLARY, OR CONSEQUENTIAL DAMAGES (INCLUDING, BUT 
  27:Core/Src/u8g2/Src/u8g2_circle.c ****   NOT LIMITED TO, PROCUREMENT OF SUBSTITUTE GOODS OR SERVICES; 
  28:Core/Src/u8g2/Src/u8g2_circle.c ****   LOSS OF USE, DATA, OR PROFITS; OR BUSINESS INTERRUPTION) HOWEVER 
  29:Core/Src/u8g2/Src/u8g2_circle.c ****   CAUSED AND ON ANY THEORY OF LIABILITY, WHETHER IN CONTRACT, 
  30:Core/Src/u8g2/Src/u8g2_circle.c ****   STRICT LIABILITY, OR TORT (INCLUDING NEGLIGENCE OR OTHERWISE) 
ARM GAS  C:\Users\MOROSH~1\AppData\Local\Temp\ccXJN7S2.s 			page 2


  31:Core/Src/u8g2/Src/u8g2_circle.c ****   ARISING IN ANY WAY OUT OF THE USE OF THIS SOFTWARE, EVEN IF 
  32:Core/Src/u8g2/Src/u8g2_circle.c ****   ADVISED OF THE POSSIBILITY OF SUCH DAMAGE.  
  33:Core/Src/u8g2/Src/u8g2_circle.c **** 
  34:Core/Src/u8g2/Src/u8g2_circle.c **** */
  35:Core/Src/u8g2/Src/u8g2_circle.c **** 
  36:Core/Src/u8g2/Src/u8g2_circle.c **** #include "u8g2.h"
  37:Core/Src/u8g2/Src/u8g2_circle.c **** 
  38:Core/Src/u8g2/Src/u8g2_circle.c **** /*==============================================*/
  39:Core/Src/u8g2/Src/u8g2_circle.c **** /* Circle */
  40:Core/Src/u8g2/Src/u8g2_circle.c **** 
  41:Core/Src/u8g2/Src/u8g2_circle.c **** static void u8g2_draw_circle_section(u8g2_t *u8g2, u8g2_uint_t x, u8g2_uint_t y, u8g2_uint_t x0, u8
  42:Core/Src/u8g2/Src/u8g2_circle.c **** 
  43:Core/Src/u8g2/Src/u8g2_circle.c **** static void u8g2_draw_circle_section(u8g2_t *u8g2, u8g2_uint_t x, u8g2_uint_t y, u8g2_uint_t x0, u8
  44:Core/Src/u8g2/Src/u8g2_circle.c **** {
  29              		.loc 1 44 1 view -0
  30              		.cfi_startproc
  31              		@ args = 8, pretend = 0, frame = 0
  32              		@ frame_needed = 0, uses_anonymous_args = 0
  33              		.loc 1 44 1 is_stmt 0 view .LVU1
  34 0000 2DE9F843 		push	{r3, r4, r5, r6, r7, r8, r9, lr}
  35              	.LCFI0:
  36              		.cfi_def_cfa_offset 32
  37              		.cfi_offset 3, -32
  38              		.cfi_offset 4, -28
  39              		.cfi_offset 5, -24
  40              		.cfi_offset 6, -20
  41              		.cfi_offset 7, -16
  42              		.cfi_offset 8, -12
  43              		.cfi_offset 9, -8
  44              		.cfi_offset 14, -4
  45 0004 8046     		mov	r8, r0
  46 0006 0F46     		mov	r7, r1
  47 0008 9146     		mov	r9, r2
  48 000a 1C46     		mov	r4, r3
  49 000c BDF82060 		ldrh	r6, [sp, #32]
  50 0010 9DF82450 		ldrb	r5, [sp, #36]	@ zero_extendqisi2
  45:Core/Src/u8g2/Src/u8g2_circle.c ****     /* upper right */
  46:Core/Src/u8g2/Src/u8g2_circle.c ****     if ( option & U8G2_DRAW_UPPER_RIGHT )
  51              		.loc 1 46 5 is_stmt 1 view .LVU2
  52              		.loc 1 46 8 is_stmt 0 view .LVU3
  53 0014 15F0010F 		tst	r5, #1
  54 0018 0AD1     		bne	.L7
  55              	.LVL1:
  56              	.L2:
  47:Core/Src/u8g2/Src/u8g2_circle.c ****     {
  48:Core/Src/u8g2/Src/u8g2_circle.c ****       u8g2_DrawPixel(u8g2, x0 + x, y0 - y);
  49:Core/Src/u8g2/Src/u8g2_circle.c ****       u8g2_DrawPixel(u8g2, x0 + y, y0 - x);
  50:Core/Src/u8g2/Src/u8g2_circle.c ****     }
  51:Core/Src/u8g2/Src/u8g2_circle.c ****     
  52:Core/Src/u8g2/Src/u8g2_circle.c ****     /* upper left */
  53:Core/Src/u8g2/Src/u8g2_circle.c ****     if ( option & U8G2_DRAW_UPPER_LEFT )
  57              		.loc 1 53 5 is_stmt 1 view .LVU4
  58              		.loc 1 53 8 is_stmt 0 view .LVU5
  59 001a 15F0020F 		tst	r5, #2
  60 001e 16D1     		bne	.L8
  61              	.L3:
  54:Core/Src/u8g2/Src/u8g2_circle.c ****     {
ARM GAS  C:\Users\MOROSH~1\AppData\Local\Temp\ccXJN7S2.s 			page 3


  55:Core/Src/u8g2/Src/u8g2_circle.c ****       u8g2_DrawPixel(u8g2, x0 - x, y0 - y);
  56:Core/Src/u8g2/Src/u8g2_circle.c ****       u8g2_DrawPixel(u8g2, x0 - y, y0 - x);
  57:Core/Src/u8g2/Src/u8g2_circle.c ****     }
  58:Core/Src/u8g2/Src/u8g2_circle.c ****     
  59:Core/Src/u8g2/Src/u8g2_circle.c ****     /* lower right */
  60:Core/Src/u8g2/Src/u8g2_circle.c ****     if ( option & U8G2_DRAW_LOWER_RIGHT )
  62              		.loc 1 60 5 is_stmt 1 view .LVU6
  63              		.loc 1 60 8 is_stmt 0 view .LVU7
  64 0020 15F0080F 		tst	r5, #8
  65 0024 24D1     		bne	.L9
  66              	.L4:
  61:Core/Src/u8g2/Src/u8g2_circle.c ****     {
  62:Core/Src/u8g2/Src/u8g2_circle.c ****       u8g2_DrawPixel(u8g2, x0 + x, y0 + y);
  63:Core/Src/u8g2/Src/u8g2_circle.c ****       u8g2_DrawPixel(u8g2, x0 + y, y0 + x);
  64:Core/Src/u8g2/Src/u8g2_circle.c ****     }
  65:Core/Src/u8g2/Src/u8g2_circle.c ****     
  66:Core/Src/u8g2/Src/u8g2_circle.c ****     /* lower left */
  67:Core/Src/u8g2/Src/u8g2_circle.c ****     if ( option & U8G2_DRAW_LOWER_LEFT )
  67              		.loc 1 67 5 is_stmt 1 view .LVU8
  68              		.loc 1 67 8 is_stmt 0 view .LVU9
  69 0026 15F0040F 		tst	r5, #4
  70 002a 32D1     		bne	.L10
  71              	.L1:
  68:Core/Src/u8g2/Src/u8g2_circle.c ****     {
  69:Core/Src/u8g2/Src/u8g2_circle.c ****       u8g2_DrawPixel(u8g2, x0 - x, y0 + y);
  70:Core/Src/u8g2/Src/u8g2_circle.c ****       u8g2_DrawPixel(u8g2, x0 - y, y0 + x);
  71:Core/Src/u8g2/Src/u8g2_circle.c ****     }
  72:Core/Src/u8g2/Src/u8g2_circle.c **** }
  72              		.loc 1 72 1 view .LVU10
  73 002c BDE8F883 		pop	{r3, r4, r5, r6, r7, r8, r9, pc}
  74              	.LVL2:
  75              	.L7:
  48:Core/Src/u8g2/Src/u8g2_circle.c ****       u8g2_DrawPixel(u8g2, x0 + y, y0 - x);
  76              		.loc 1 48 7 is_stmt 1 view .LVU11
  77 0030 B21A     		subs	r2, r6, r2
  78              	.LVL3:
  48:Core/Src/u8g2/Src/u8g2_circle.c ****       u8g2_DrawPixel(u8g2, x0 + y, y0 - x);
  79              		.loc 1 48 7 is_stmt 0 view .LVU12
  80 0032 5918     		adds	r1, r3, r1
  81              	.LVL4:
  48:Core/Src/u8g2/Src/u8g2_circle.c ****       u8g2_DrawPixel(u8g2, x0 + y, y0 - x);
  82              		.loc 1 48 7 view .LVU13
  83 0034 92B2     		uxth	r2, r2
  84 0036 89B2     		uxth	r1, r1
  85 0038 FFF7FEFF 		bl	u8g2_DrawPixel
  86              	.LVL5:
  49:Core/Src/u8g2/Src/u8g2_circle.c ****     }
  87              		.loc 1 49 7 is_stmt 1 view .LVU14
  88 003c F21B     		subs	r2, r6, r7
  89 003e 04EB0901 		add	r1, r4, r9
  90 0042 92B2     		uxth	r2, r2
  91 0044 89B2     		uxth	r1, r1
  92 0046 4046     		mov	r0, r8
  93 0048 FFF7FEFF 		bl	u8g2_DrawPixel
  94              	.LVL6:
  95 004c E5E7     		b	.L2
  96              	.L8:
ARM GAS  C:\Users\MOROSH~1\AppData\Local\Temp\ccXJN7S2.s 			page 4


  55:Core/Src/u8g2/Src/u8g2_circle.c ****       u8g2_DrawPixel(u8g2, x0 - y, y0 - x);
  97              		.loc 1 55 7 view .LVU15
  98 004e A6EB0902 		sub	r2, r6, r9
  99 0052 E11B     		subs	r1, r4, r7
 100 0054 92B2     		uxth	r2, r2
 101 0056 89B2     		uxth	r1, r1
 102 0058 4046     		mov	r0, r8
 103 005a FFF7FEFF 		bl	u8g2_DrawPixel
 104              	.LVL7:
  56:Core/Src/u8g2/Src/u8g2_circle.c ****     }
 105              		.loc 1 56 7 view .LVU16
 106 005e F21B     		subs	r2, r6, r7
 107 0060 A4EB0901 		sub	r1, r4, r9
 108 0064 92B2     		uxth	r2, r2
 109 0066 89B2     		uxth	r1, r1
 110 0068 4046     		mov	r0, r8
 111 006a FFF7FEFF 		bl	u8g2_DrawPixel
 112              	.LVL8:
 113 006e D7E7     		b	.L3
 114              	.L9:
  62:Core/Src/u8g2/Src/u8g2_circle.c ****       u8g2_DrawPixel(u8g2, x0 + y, y0 + x);
 115              		.loc 1 62 7 view .LVU17
 116 0070 06EB0902 		add	r2, r6, r9
 117 0074 E119     		adds	r1, r4, r7
 118 0076 92B2     		uxth	r2, r2
 119 0078 89B2     		uxth	r1, r1
 120 007a 4046     		mov	r0, r8
 121 007c FFF7FEFF 		bl	u8g2_DrawPixel
 122              	.LVL9:
  63:Core/Src/u8g2/Src/u8g2_circle.c ****     }
 123              		.loc 1 63 7 view .LVU18
 124 0080 BA19     		adds	r2, r7, r6
 125 0082 04EB0901 		add	r1, r4, r9
 126 0086 92B2     		uxth	r2, r2
 127 0088 89B2     		uxth	r1, r1
 128 008a 4046     		mov	r0, r8
 129 008c FFF7FEFF 		bl	u8g2_DrawPixel
 130              	.LVL10:
 131 0090 C9E7     		b	.L4
 132              	.L10:
  69:Core/Src/u8g2/Src/u8g2_circle.c ****       u8g2_DrawPixel(u8g2, x0 - y, y0 + x);
 133              		.loc 1 69 7 view .LVU19
 134 0092 06EB0902 		add	r2, r6, r9
 135 0096 E11B     		subs	r1, r4, r7
 136 0098 92B2     		uxth	r2, r2
 137 009a 89B2     		uxth	r1, r1
 138 009c 4046     		mov	r0, r8
 139 009e FFF7FEFF 		bl	u8g2_DrawPixel
 140              	.LVL11:
  70:Core/Src/u8g2/Src/u8g2_circle.c ****     }
 141              		.loc 1 70 7 view .LVU20
 142 00a2 BA19     		adds	r2, r7, r6
 143 00a4 A4EB0901 		sub	r1, r4, r9
 144 00a8 92B2     		uxth	r2, r2
 145 00aa 89B2     		uxth	r1, r1
 146 00ac 4046     		mov	r0, r8
 147 00ae FFF7FEFF 		bl	u8g2_DrawPixel
ARM GAS  C:\Users\MOROSH~1\AppData\Local\Temp\ccXJN7S2.s 			page 5


 148              	.LVL12:
 149              		.loc 1 72 1 is_stmt 0 view .LVU21
 150 00b2 BBE7     		b	.L1
 151              		.cfi_endproc
 152              	.LFE0:
 154              		.section	.text.u8g2_draw_circle,"ax",%progbits
 155              		.align	1
 156              		.syntax unified
 157              		.thumb
 158              		.thumb_func
 160              	u8g2_draw_circle:
 161              	.LVL13:
 162              	.LFB1:
  73:Core/Src/u8g2/Src/u8g2_circle.c **** 
  74:Core/Src/u8g2/Src/u8g2_circle.c **** static void u8g2_draw_circle(u8g2_t *u8g2, u8g2_uint_t x0, u8g2_uint_t y0, u8g2_uint_t rad, uint8_t
  75:Core/Src/u8g2/Src/u8g2_circle.c **** {
 163              		.loc 1 75 1 is_stmt 1 view -0
 164              		.cfi_startproc
 165              		@ args = 4, pretend = 0, frame = 8
 166              		@ frame_needed = 0, uses_anonymous_args = 0
 167              		.loc 1 75 1 is_stmt 0 view .LVU23
 168 0000 2DE9F04F 		push	{r4, r5, r6, r7, r8, r9, r10, fp, lr}
 169              	.LCFI1:
 170              		.cfi_def_cfa_offset 36
 171              		.cfi_offset 4, -36
 172              		.cfi_offset 5, -32
 173              		.cfi_offset 6, -28
 174              		.cfi_offset 7, -24
 175              		.cfi_offset 8, -20
 176              		.cfi_offset 9, -16
 177              		.cfi_offset 10, -12
 178              		.cfi_offset 11, -8
 179              		.cfi_offset 14, -4
 180 0004 85B0     		sub	sp, sp, #20
 181              	.LCFI2:
 182              		.cfi_def_cfa_offset 56
 183 0006 0390     		str	r0, [sp, #12]
 184 0008 8946     		mov	r9, r1
 185 000a 9246     		mov	r10, r2
 186 000c 1E46     		mov	r6, r3
 187 000e 9DF838B0 		ldrb	fp, [sp, #56]	@ zero_extendqisi2
  76:Core/Src/u8g2/Src/u8g2_circle.c ****     u8g2_int_t f;
 188              		.loc 1 76 5 is_stmt 1 view .LVU24
  77:Core/Src/u8g2/Src/u8g2_circle.c ****     u8g2_int_t ddF_x;
 189              		.loc 1 77 5 view .LVU25
  78:Core/Src/u8g2/Src/u8g2_circle.c ****     u8g2_int_t ddF_y;
 190              		.loc 1 78 5 view .LVU26
  79:Core/Src/u8g2/Src/u8g2_circle.c ****     u8g2_uint_t x;
 191              		.loc 1 79 5 view .LVU27
  80:Core/Src/u8g2/Src/u8g2_circle.c ****     u8g2_uint_t y;
 192              		.loc 1 80 5 view .LVU28
  81:Core/Src/u8g2/Src/u8g2_circle.c **** 
  82:Core/Src/u8g2/Src/u8g2_circle.c ****     f = 1;
 193              		.loc 1 82 5 view .LVU29
 194              	.LVL14:
  83:Core/Src/u8g2/Src/u8g2_circle.c ****     f -= rad;
 195              		.loc 1 83 5 view .LVU30
ARM GAS  C:\Users\MOROSH~1\AppData\Local\Temp\ccXJN7S2.s 			page 6


 196              		.loc 1 83 7 is_stmt 0 view .LVU31
 197 0012 C3F10104 		rsb	r4, r3, #1
 198 0016 24B2     		sxth	r4, r4
 199              	.LVL15:
  84:Core/Src/u8g2/Src/u8g2_circle.c ****     ddF_x = 1;
 200              		.loc 1 84 5 is_stmt 1 view .LVU32
  85:Core/Src/u8g2/Src/u8g2_circle.c ****     ddF_y = 0;
 201              		.loc 1 85 5 view .LVU33
  86:Core/Src/u8g2/Src/u8g2_circle.c ****     ddF_y -= rad;
 202              		.loc 1 86 5 view .LVU34
  87:Core/Src/u8g2/Src/u8g2_circle.c ****     ddF_y *= 2;
 203              		.loc 1 87 5 view .LVU35
 204              		.loc 1 87 11 is_stmt 0 view .LVU36
 205 0018 C3EBC338 		rsb	r8, r3, r3, lsl #15
 206 001c 4FEA4808 		lsl	r8, r8, #1
 207 0020 0FFA88F8 		sxth	r8, r8
 208              	.LVL16:
  88:Core/Src/u8g2/Src/u8g2_circle.c ****     x = 0;
 209              		.loc 1 88 5 is_stmt 1 view .LVU37
  89:Core/Src/u8g2/Src/u8g2_circle.c ****     y = rad;
 210              		.loc 1 89 5 view .LVU38
  90:Core/Src/u8g2/Src/u8g2_circle.c **** 
  91:Core/Src/u8g2/Src/u8g2_circle.c ****     u8g2_draw_circle_section(u8g2, x, y, x0, y0, option);
 211              		.loc 1 91 5 view .LVU39
 212 0024 CDF804B0 		str	fp, [sp, #4]
 213 0028 0092     		str	r2, [sp]
 214 002a 0B46     		mov	r3, r1
 215              	.LVL17:
 216              		.loc 1 91 5 is_stmt 0 view .LVU40
 217 002c 3246     		mov	r2, r6
 218              	.LVL18:
 219              		.loc 1 91 5 view .LVU41
 220 002e 0021     		movs	r1, #0
 221              	.LVL19:
 222              		.loc 1 91 5 view .LVU42
 223 0030 FFF7FEFF 		bl	u8g2_draw_circle_section
 224              	.LVL20:
  92:Core/Src/u8g2/Src/u8g2_circle.c ****     
  93:Core/Src/u8g2/Src/u8g2_circle.c ****     while ( x < y )
 225              		.loc 1 93 5 is_stmt 1 view .LVU43
  88:Core/Src/u8g2/Src/u8g2_circle.c ****     y = rad;
 226              		.loc 1 88 7 is_stmt 0 view .LVU44
 227 0034 0025     		movs	r5, #0
  84:Core/Src/u8g2/Src/u8g2_circle.c ****     ddF_y = 0;
 228              		.loc 1 84 11 view .LVU45
 229 0036 0127     		movs	r7, #1
 230              		.loc 1 93 11 view .LVU46
 231 0038 19E0     		b	.L12
 232              	.LVL21:
 233              	.L17:
  94:Core/Src/u8g2/Src/u8g2_circle.c ****     {
  95:Core/Src/u8g2/Src/u8g2_circle.c ****       if (f >= 0) 
  96:Core/Src/u8g2/Src/u8g2_circle.c ****       {
  97:Core/Src/u8g2/Src/u8g2_circle.c ****         y--;
 234              		.loc 1 97 9 is_stmt 1 view .LVU47
 235              		.loc 1 97 10 is_stmt 0 view .LVU48
 236 003a 013E     		subs	r6, r6, #1
ARM GAS  C:\Users\MOROSH~1\AppData\Local\Temp\ccXJN7S2.s 			page 7


 237              	.LVL22:
 238              		.loc 1 97 10 view .LVU49
 239 003c B6B2     		uxth	r6, r6
 240              	.LVL23:
  98:Core/Src/u8g2/Src/u8g2_circle.c ****         ddF_y += 2;
 241              		.loc 1 98 9 is_stmt 1 view .LVU50
 242              		.loc 1 98 15 is_stmt 0 view .LVU51
 243 003e 08F10203 		add	r3, r8, #2
 244 0042 0FFA83F8 		sxth	r8, r3
 245              	.LVL24:
  99:Core/Src/u8g2/Src/u8g2_circle.c ****         f += ddF_y;
 246              		.loc 1 99 9 is_stmt 1 view .LVU52
 247              		.loc 1 99 11 is_stmt 0 view .LVU53
 248 0046 14FA83F4 		uxtah	r4, r4, r3
 249              	.LVL25:
 250              		.loc 1 99 11 view .LVU54
 251 004a 24B2     		sxth	r4, r4
 252              	.LVL26:
 253              	.L13:
 100:Core/Src/u8g2/Src/u8g2_circle.c ****       }
 101:Core/Src/u8g2/Src/u8g2_circle.c ****       x++;
 254              		.loc 1 101 7 is_stmt 1 view .LVU55
 255              		.loc 1 101 8 is_stmt 0 view .LVU56
 256 004c 0135     		adds	r5, r5, #1
 257              	.LVL27:
 258              		.loc 1 101 8 view .LVU57
 259 004e ADB2     		uxth	r5, r5
 260              	.LVL28:
 102:Core/Src/u8g2/Src/u8g2_circle.c ****       ddF_x += 2;
 261              		.loc 1 102 7 is_stmt 1 view .LVU58
 262              		.loc 1 102 13 is_stmt 0 view .LVU59
 263 0050 BB1C     		adds	r3, r7, #2
 264 0052 1FB2     		sxth	r7, r3
 265              	.LVL29:
 103:Core/Src/u8g2/Src/u8g2_circle.c ****       f += ddF_x;
 266              		.loc 1 103 7 is_stmt 1 view .LVU60
 267              		.loc 1 103 9 is_stmt 0 view .LVU61
 268 0054 14FA83F4 		uxtah	r4, r4, r3
 269              	.LVL30:
 270              		.loc 1 103 9 view .LVU62
 271 0058 24B2     		sxth	r4, r4
 272              	.LVL31:
 104:Core/Src/u8g2/Src/u8g2_circle.c **** 
 105:Core/Src/u8g2/Src/u8g2_circle.c ****       u8g2_draw_circle_section(u8g2, x, y, x0, y0, option);    
 273              		.loc 1 105 7 is_stmt 1 view .LVU63
 274 005a CDF804B0 		str	fp, [sp, #4]
 275 005e CDF800A0 		str	r10, [sp]
 276 0062 4B46     		mov	r3, r9
 277 0064 3246     		mov	r2, r6
 278 0066 2946     		mov	r1, r5
 279 0068 0398     		ldr	r0, [sp, #12]
 280 006a FFF7FEFF 		bl	u8g2_draw_circle_section
 281              	.LVL32:
 282              	.L12:
  93:Core/Src/u8g2/Src/u8g2_circle.c ****     {
 283              		.loc 1 93 11 view .LVU64
 284 006e B542     		cmp	r5, r6
ARM GAS  C:\Users\MOROSH~1\AppData\Local\Temp\ccXJN7S2.s 			page 8


 285 0070 02D2     		bcs	.L16
  95:Core/Src/u8g2/Src/u8g2_circle.c ****       {
 286              		.loc 1 95 7 view .LVU65
  95:Core/Src/u8g2/Src/u8g2_circle.c ****       {
 287              		.loc 1 95 10 is_stmt 0 view .LVU66
 288 0072 002C     		cmp	r4, #0
 289 0074 E1DA     		bge	.L17
 290 0076 E9E7     		b	.L13
 291              	.L16:
 106:Core/Src/u8g2/Src/u8g2_circle.c ****     }
 107:Core/Src/u8g2/Src/u8g2_circle.c **** }
 292              		.loc 1 107 1 view .LVU67
 293 0078 05B0     		add	sp, sp, #20
 294              	.LCFI3:
 295              		.cfi_def_cfa_offset 36
 296              		@ sp needed
 297 007a BDE8F08F 		pop	{r4, r5, r6, r7, r8, r9, r10, fp, pc}
 298              		.loc 1 107 1 view .LVU68
 299              		.cfi_endproc
 300              	.LFE1:
 302              		.section	.text.u8g2_draw_ellipse_section,"ax",%progbits
 303              		.align	1
 304              		.syntax unified
 305              		.thumb
 306              		.thumb_func
 308              	u8g2_draw_ellipse_section:
 309              	.LVL33:
 310              	.LFB6:
 108:Core/Src/u8g2/Src/u8g2_circle.c **** 
 109:Core/Src/u8g2/Src/u8g2_circle.c **** void u8g2_DrawCircle(u8g2_t *u8g2, u8g2_uint_t x0, u8g2_uint_t y0, u8g2_uint_t rad, uint8_t option)
 110:Core/Src/u8g2/Src/u8g2_circle.c **** {
 111:Core/Src/u8g2/Src/u8g2_circle.c ****   /* check for bounding box */
 112:Core/Src/u8g2/Src/u8g2_circle.c **** #ifdef U8G2_WITH_INTERSECTION
 113:Core/Src/u8g2/Src/u8g2_circle.c ****   {
 114:Core/Src/u8g2/Src/u8g2_circle.c ****     if ( u8g2_IsIntersection(u8g2, x0-rad, y0-rad, x0+rad+1, y0+rad+1) == 0 ) 
 115:Core/Src/u8g2/Src/u8g2_circle.c ****       return;
 116:Core/Src/u8g2/Src/u8g2_circle.c ****   }
 117:Core/Src/u8g2/Src/u8g2_circle.c **** #endif /* U8G2_WITH_INTERSECTION */
 118:Core/Src/u8g2/Src/u8g2_circle.c ****   
 119:Core/Src/u8g2/Src/u8g2_circle.c ****   
 120:Core/Src/u8g2/Src/u8g2_circle.c ****   /* draw circle */
 121:Core/Src/u8g2/Src/u8g2_circle.c ****   u8g2_draw_circle(u8g2, x0, y0, rad, option);
 122:Core/Src/u8g2/Src/u8g2_circle.c **** }
 123:Core/Src/u8g2/Src/u8g2_circle.c **** 
 124:Core/Src/u8g2/Src/u8g2_circle.c **** /*==============================================*/
 125:Core/Src/u8g2/Src/u8g2_circle.c **** /* Disk */
 126:Core/Src/u8g2/Src/u8g2_circle.c **** 
 127:Core/Src/u8g2/Src/u8g2_circle.c **** static void u8g2_draw_disc_section(u8g2_t *u8g2, u8g2_uint_t x, u8g2_uint_t y, u8g2_uint_t x0, u8g2
 128:Core/Src/u8g2/Src/u8g2_circle.c **** 
 129:Core/Src/u8g2/Src/u8g2_circle.c **** static void u8g2_draw_disc_section(u8g2_t *u8g2, u8g2_uint_t x, u8g2_uint_t y, u8g2_uint_t x0, u8g2
 130:Core/Src/u8g2/Src/u8g2_circle.c **** {
 131:Core/Src/u8g2/Src/u8g2_circle.c ****     /* upper right */
 132:Core/Src/u8g2/Src/u8g2_circle.c ****     if ( option & U8G2_DRAW_UPPER_RIGHT )
 133:Core/Src/u8g2/Src/u8g2_circle.c ****     {
 134:Core/Src/u8g2/Src/u8g2_circle.c ****       u8g2_DrawVLine(u8g2, x0+x, y0-y, y+1);
 135:Core/Src/u8g2/Src/u8g2_circle.c ****       u8g2_DrawVLine(u8g2, x0+y, y0-x, x+1);
 136:Core/Src/u8g2/Src/u8g2_circle.c ****     }
ARM GAS  C:\Users\MOROSH~1\AppData\Local\Temp\ccXJN7S2.s 			page 9


 137:Core/Src/u8g2/Src/u8g2_circle.c ****     
 138:Core/Src/u8g2/Src/u8g2_circle.c ****     /* upper left */
 139:Core/Src/u8g2/Src/u8g2_circle.c ****     if ( option & U8G2_DRAW_UPPER_LEFT )
 140:Core/Src/u8g2/Src/u8g2_circle.c ****     {
 141:Core/Src/u8g2/Src/u8g2_circle.c ****       u8g2_DrawVLine(u8g2, x0-x, y0-y, y+1);
 142:Core/Src/u8g2/Src/u8g2_circle.c ****       u8g2_DrawVLine(u8g2, x0-y, y0-x, x+1);
 143:Core/Src/u8g2/Src/u8g2_circle.c ****     }
 144:Core/Src/u8g2/Src/u8g2_circle.c ****     
 145:Core/Src/u8g2/Src/u8g2_circle.c ****     /* lower right */
 146:Core/Src/u8g2/Src/u8g2_circle.c ****     if ( option & U8G2_DRAW_LOWER_RIGHT )
 147:Core/Src/u8g2/Src/u8g2_circle.c ****     {
 148:Core/Src/u8g2/Src/u8g2_circle.c ****       u8g2_DrawVLine(u8g2, x0+x, y0, y+1);
 149:Core/Src/u8g2/Src/u8g2_circle.c ****       u8g2_DrawVLine(u8g2, x0+y, y0, x+1);
 150:Core/Src/u8g2/Src/u8g2_circle.c ****     }
 151:Core/Src/u8g2/Src/u8g2_circle.c ****     
 152:Core/Src/u8g2/Src/u8g2_circle.c ****     /* lower left */
 153:Core/Src/u8g2/Src/u8g2_circle.c ****     if ( option & U8G2_DRAW_LOWER_LEFT )
 154:Core/Src/u8g2/Src/u8g2_circle.c ****     {
 155:Core/Src/u8g2/Src/u8g2_circle.c ****       u8g2_DrawVLine(u8g2, x0-x, y0, y+1);
 156:Core/Src/u8g2/Src/u8g2_circle.c ****       u8g2_DrawVLine(u8g2, x0-y, y0, x+1);
 157:Core/Src/u8g2/Src/u8g2_circle.c ****     }
 158:Core/Src/u8g2/Src/u8g2_circle.c **** }
 159:Core/Src/u8g2/Src/u8g2_circle.c **** 
 160:Core/Src/u8g2/Src/u8g2_circle.c **** static void u8g2_draw_disc(u8g2_t *u8g2, u8g2_uint_t x0, u8g2_uint_t y0, u8g2_uint_t rad, uint8_t o
 161:Core/Src/u8g2/Src/u8g2_circle.c **** {
 162:Core/Src/u8g2/Src/u8g2_circle.c ****   u8g2_int_t f;
 163:Core/Src/u8g2/Src/u8g2_circle.c ****   u8g2_int_t ddF_x;
 164:Core/Src/u8g2/Src/u8g2_circle.c ****   u8g2_int_t ddF_y;
 165:Core/Src/u8g2/Src/u8g2_circle.c ****   u8g2_uint_t x;
 166:Core/Src/u8g2/Src/u8g2_circle.c ****   u8g2_uint_t y;
 167:Core/Src/u8g2/Src/u8g2_circle.c **** 
 168:Core/Src/u8g2/Src/u8g2_circle.c ****   f = 1;
 169:Core/Src/u8g2/Src/u8g2_circle.c ****   f -= rad;
 170:Core/Src/u8g2/Src/u8g2_circle.c ****   ddF_x = 1;
 171:Core/Src/u8g2/Src/u8g2_circle.c ****   ddF_y = 0;
 172:Core/Src/u8g2/Src/u8g2_circle.c ****   ddF_y -= rad;
 173:Core/Src/u8g2/Src/u8g2_circle.c ****   ddF_y *= 2;
 174:Core/Src/u8g2/Src/u8g2_circle.c ****   x = 0;
 175:Core/Src/u8g2/Src/u8g2_circle.c ****   y = rad;
 176:Core/Src/u8g2/Src/u8g2_circle.c **** 
 177:Core/Src/u8g2/Src/u8g2_circle.c ****   u8g2_draw_disc_section(u8g2, x, y, x0, y0, option);
 178:Core/Src/u8g2/Src/u8g2_circle.c ****   
 179:Core/Src/u8g2/Src/u8g2_circle.c ****   while ( x < y )
 180:Core/Src/u8g2/Src/u8g2_circle.c ****   {
 181:Core/Src/u8g2/Src/u8g2_circle.c ****     if (f >= 0) 
 182:Core/Src/u8g2/Src/u8g2_circle.c ****     {
 183:Core/Src/u8g2/Src/u8g2_circle.c ****       y--;
 184:Core/Src/u8g2/Src/u8g2_circle.c ****       ddF_y += 2;
 185:Core/Src/u8g2/Src/u8g2_circle.c ****       f += ddF_y;
 186:Core/Src/u8g2/Src/u8g2_circle.c ****     }
 187:Core/Src/u8g2/Src/u8g2_circle.c ****     x++;
 188:Core/Src/u8g2/Src/u8g2_circle.c ****     ddF_x += 2;
 189:Core/Src/u8g2/Src/u8g2_circle.c ****     f += ddF_x;
 190:Core/Src/u8g2/Src/u8g2_circle.c **** 
 191:Core/Src/u8g2/Src/u8g2_circle.c ****     u8g2_draw_disc_section(u8g2, x, y, x0, y0, option);    
 192:Core/Src/u8g2/Src/u8g2_circle.c ****   }
 193:Core/Src/u8g2/Src/u8g2_circle.c **** }
ARM GAS  C:\Users\MOROSH~1\AppData\Local\Temp\ccXJN7S2.s 			page 10


 194:Core/Src/u8g2/Src/u8g2_circle.c **** 
 195:Core/Src/u8g2/Src/u8g2_circle.c **** void u8g2_DrawDisc(u8g2_t *u8g2, u8g2_uint_t x0, u8g2_uint_t y0, u8g2_uint_t rad, uint8_t option)
 196:Core/Src/u8g2/Src/u8g2_circle.c **** {
 197:Core/Src/u8g2/Src/u8g2_circle.c ****   /* check for bounding box */
 198:Core/Src/u8g2/Src/u8g2_circle.c **** #ifdef U8G2_WITH_INTERSECTION
 199:Core/Src/u8g2/Src/u8g2_circle.c ****   {
 200:Core/Src/u8g2/Src/u8g2_circle.c ****     if ( u8g2_IsIntersection(u8g2, x0-rad, y0-rad, x0+rad+1, y0+rad+1) == 0 ) 
 201:Core/Src/u8g2/Src/u8g2_circle.c ****       return;
 202:Core/Src/u8g2/Src/u8g2_circle.c ****   }
 203:Core/Src/u8g2/Src/u8g2_circle.c **** #endif /* U8G2_WITH_INTERSECTION */
 204:Core/Src/u8g2/Src/u8g2_circle.c ****   
 205:Core/Src/u8g2/Src/u8g2_circle.c ****   /* draw disc */
 206:Core/Src/u8g2/Src/u8g2_circle.c ****   u8g2_draw_disc(u8g2, x0, y0, rad, option);
 207:Core/Src/u8g2/Src/u8g2_circle.c **** }
 208:Core/Src/u8g2/Src/u8g2_circle.c **** 
 209:Core/Src/u8g2/Src/u8g2_circle.c **** /*==============================================*/
 210:Core/Src/u8g2/Src/u8g2_circle.c **** /* Ellipse */
 211:Core/Src/u8g2/Src/u8g2_circle.c **** 
 212:Core/Src/u8g2/Src/u8g2_circle.c **** /*
 213:Core/Src/u8g2/Src/u8g2_circle.c ****   Source: 
 214:Core/Src/u8g2/Src/u8g2_circle.c ****     Foley, Computer Graphics, p 90
 215:Core/Src/u8g2/Src/u8g2_circle.c **** */
 216:Core/Src/u8g2/Src/u8g2_circle.c **** static void u8g2_draw_ellipse_section(u8g2_t *u8g2, u8g2_uint_t x, u8g2_uint_t y, u8g2_uint_t x0, u
 217:Core/Src/u8g2/Src/u8g2_circle.c **** static void u8g2_draw_ellipse_section(u8g2_t *u8g2, u8g2_uint_t x, u8g2_uint_t y, u8g2_uint_t x0, u
 218:Core/Src/u8g2/Src/u8g2_circle.c **** {
 311              		.loc 1 218 1 is_stmt 1 view -0
 312              		.cfi_startproc
 313              		@ args = 8, pretend = 0, frame = 0
 314              		@ frame_needed = 0, uses_anonymous_args = 0
 315              		.loc 1 218 1 is_stmt 0 view .LVU70
 316 0000 2DE9F843 		push	{r3, r4, r5, r6, r7, r8, r9, lr}
 317              	.LCFI4:
 318              		.cfi_def_cfa_offset 32
 319              		.cfi_offset 3, -32
 320              		.cfi_offset 4, -28
 321              		.cfi_offset 5, -24
 322              		.cfi_offset 6, -20
 323              		.cfi_offset 7, -16
 324              		.cfi_offset 8, -12
 325              		.cfi_offset 9, -8
 326              		.cfi_offset 14, -4
 327 0004 0746     		mov	r7, r0
 328 0006 8846     		mov	r8, r1
 329 0008 9146     		mov	r9, r2
 330 000a 1D46     		mov	r5, r3
 331 000c BDF82060 		ldrh	r6, [sp, #32]
 332 0010 9DF82440 		ldrb	r4, [sp, #36]	@ zero_extendqisi2
 219:Core/Src/u8g2/Src/u8g2_circle.c ****     /* upper right */
 220:Core/Src/u8g2/Src/u8g2_circle.c ****     if ( option & U8G2_DRAW_UPPER_RIGHT )
 333              		.loc 1 220 5 is_stmt 1 view .LVU71
 334              		.loc 1 220 8 is_stmt 0 view .LVU72
 335 0014 14F0010F 		tst	r4, #1
 336 0018 0AD1     		bne	.L24
 337              	.LVL34:
 338              	.L19:
 221:Core/Src/u8g2/Src/u8g2_circle.c ****     {
 222:Core/Src/u8g2/Src/u8g2_circle.c ****       u8g2_DrawPixel(u8g2, x0 + x, y0 - y);
ARM GAS  C:\Users\MOROSH~1\AppData\Local\Temp\ccXJN7S2.s 			page 11


 223:Core/Src/u8g2/Src/u8g2_circle.c ****     }
 224:Core/Src/u8g2/Src/u8g2_circle.c ****     
 225:Core/Src/u8g2/Src/u8g2_circle.c ****     /* upper left */
 226:Core/Src/u8g2/Src/u8g2_circle.c ****     if ( option & U8G2_DRAW_UPPER_LEFT )
 339              		.loc 1 226 5 is_stmt 1 view .LVU73
 340              		.loc 1 226 8 is_stmt 0 view .LVU74
 341 001a 14F0020F 		tst	r4, #2
 342 001e 0ED1     		bne	.L25
 343              	.L20:
 227:Core/Src/u8g2/Src/u8g2_circle.c ****     {
 228:Core/Src/u8g2/Src/u8g2_circle.c ****       u8g2_DrawPixel(u8g2, x0 - x, y0 - y);
 229:Core/Src/u8g2/Src/u8g2_circle.c ****     }
 230:Core/Src/u8g2/Src/u8g2_circle.c ****     
 231:Core/Src/u8g2/Src/u8g2_circle.c ****     /* lower right */
 232:Core/Src/u8g2/Src/u8g2_circle.c ****     if ( option & U8G2_DRAW_LOWER_RIGHT )
 344              		.loc 1 232 5 is_stmt 1 view .LVU75
 345              		.loc 1 232 8 is_stmt 0 view .LVU76
 346 0020 14F0080F 		tst	r4, #8
 347 0024 15D1     		bne	.L26
 348              	.L21:
 233:Core/Src/u8g2/Src/u8g2_circle.c ****     {
 234:Core/Src/u8g2/Src/u8g2_circle.c ****       u8g2_DrawPixel(u8g2, x0 + x, y0 + y);
 235:Core/Src/u8g2/Src/u8g2_circle.c ****     }
 236:Core/Src/u8g2/Src/u8g2_circle.c ****     
 237:Core/Src/u8g2/Src/u8g2_circle.c ****     /* lower left */
 238:Core/Src/u8g2/Src/u8g2_circle.c ****     if ( option & U8G2_DRAW_LOWER_LEFT )
 349              		.loc 1 238 5 is_stmt 1 view .LVU77
 350              		.loc 1 238 8 is_stmt 0 view .LVU78
 351 0026 14F0040F 		tst	r4, #4
 352 002a 1CD1     		bne	.L27
 353              	.L18:
 239:Core/Src/u8g2/Src/u8g2_circle.c ****     {
 240:Core/Src/u8g2/Src/u8g2_circle.c ****       u8g2_DrawPixel(u8g2, x0 - x, y0 + y);
 241:Core/Src/u8g2/Src/u8g2_circle.c ****     }
 242:Core/Src/u8g2/Src/u8g2_circle.c **** }
 354              		.loc 1 242 1 view .LVU79
 355 002c BDE8F883 		pop	{r3, r4, r5, r6, r7, r8, r9, pc}
 356              	.LVL35:
 357              	.L24:
 222:Core/Src/u8g2/Src/u8g2_circle.c ****     }
 358              		.loc 1 222 7 is_stmt 1 view .LVU80
 359 0030 B21A     		subs	r2, r6, r2
 360              	.LVL36:
 222:Core/Src/u8g2/Src/u8g2_circle.c ****     }
 361              		.loc 1 222 7 is_stmt 0 view .LVU81
 362 0032 5918     		adds	r1, r3, r1
 363              	.LVL37:
 222:Core/Src/u8g2/Src/u8g2_circle.c ****     }
 364              		.loc 1 222 7 view .LVU82
 365 0034 92B2     		uxth	r2, r2
 366 0036 89B2     		uxth	r1, r1
 367 0038 FFF7FEFF 		bl	u8g2_DrawPixel
 368              	.LVL38:
 222:Core/Src/u8g2/Src/u8g2_circle.c ****     }
 369              		.loc 1 222 7 view .LVU83
 370 003c EDE7     		b	.L19
 371              	.L25:
ARM GAS  C:\Users\MOROSH~1\AppData\Local\Temp\ccXJN7S2.s 			page 12


 228:Core/Src/u8g2/Src/u8g2_circle.c ****     }
 372              		.loc 1 228 7 is_stmt 1 view .LVU84
 373 003e A6EB0902 		sub	r2, r6, r9
 374 0042 A5EB0801 		sub	r1, r5, r8
 375 0046 92B2     		uxth	r2, r2
 376 0048 89B2     		uxth	r1, r1
 377 004a 3846     		mov	r0, r7
 378 004c FFF7FEFF 		bl	u8g2_DrawPixel
 379              	.LVL39:
 380 0050 E6E7     		b	.L20
 381              	.L26:
 234:Core/Src/u8g2/Src/u8g2_circle.c ****     }
 382              		.loc 1 234 7 view .LVU85
 383 0052 06EB0902 		add	r2, r6, r9
 384 0056 05EB0801 		add	r1, r5, r8
 385 005a 92B2     		uxth	r2, r2
 386 005c 89B2     		uxth	r1, r1
 387 005e 3846     		mov	r0, r7
 388 0060 FFF7FEFF 		bl	u8g2_DrawPixel
 389              	.LVL40:
 390 0064 DFE7     		b	.L21
 391              	.L27:
 240:Core/Src/u8g2/Src/u8g2_circle.c ****     }
 392              		.loc 1 240 7 view .LVU86
 393 0066 06EB0902 		add	r2, r6, r9
 394 006a A5EB0801 		sub	r1, r5, r8
 395 006e 92B2     		uxth	r2, r2
 396 0070 89B2     		uxth	r1, r1
 397 0072 3846     		mov	r0, r7
 398 0074 FFF7FEFF 		bl	u8g2_DrawPixel
 399              	.LVL41:
 400              		.loc 1 242 1 is_stmt 0 view .LVU87
 401 0078 D8E7     		b	.L18
 402              		.cfi_endproc
 403              	.LFE6:
 405              		.section	.text.u8g2_draw_ellipse,"ax",%progbits
 406              		.align	1
 407              		.syntax unified
 408              		.thumb
 409              		.thumb_func
 411              	u8g2_draw_ellipse:
 412              	.LVL42:
 413              	.LFB7:
 243:Core/Src/u8g2/Src/u8g2_circle.c **** 
 244:Core/Src/u8g2/Src/u8g2_circle.c **** static void u8g2_draw_ellipse(u8g2_t *u8g2, u8g2_uint_t x0, u8g2_uint_t y0, u8g2_uint_t rx, u8g2_ui
 245:Core/Src/u8g2/Src/u8g2_circle.c **** {
 414              		.loc 1 245 1 is_stmt 1 view -0
 415              		.cfi_startproc
 416              		@ args = 8, pretend = 0, frame = 40
 417              		@ frame_needed = 0, uses_anonymous_args = 0
 418              		.loc 1 245 1 is_stmt 0 view .LVU89
 419 0000 2DE9F04F 		push	{r4, r5, r6, r7, r8, r9, r10, fp, lr}
 420              	.LCFI5:
 421              		.cfi_def_cfa_offset 36
 422              		.cfi_offset 4, -36
 423              		.cfi_offset 5, -32
 424              		.cfi_offset 6, -28
ARM GAS  C:\Users\MOROSH~1\AppData\Local\Temp\ccXJN7S2.s 			page 13


 425              		.cfi_offset 7, -24
 426              		.cfi_offset 8, -20
 427              		.cfi_offset 9, -16
 428              		.cfi_offset 10, -12
 429              		.cfi_offset 11, -8
 430              		.cfi_offset 14, -4
 431 0004 8DB0     		sub	sp, sp, #52
 432              	.LCFI6:
 433              		.cfi_def_cfa_offset 88
 434 0006 0590     		str	r0, [sp, #20]
 435 0008 0691     		str	r1, [sp, #24]
 436 000a 0792     		str	r2, [sp, #28]
 437 000c 1D46     		mov	r5, r3
 438 000e BDF85830 		ldrh	r3, [sp, #88]
 439              	.LVL43:
 440              		.loc 1 245 1 view .LVU90
 441 0012 0493     		str	r3, [sp, #16]
 442 0014 9DF85C20 		ldrb	r2, [sp, #92]	@ zero_extendqisi2
 443              	.LVL44:
 444              		.loc 1 245 1 view .LVU91
 445 0018 0892     		str	r2, [sp, #32]
 246:Core/Src/u8g2/Src/u8g2_circle.c ****   u8g2_uint_t x, y;
 446              		.loc 1 246 3 is_stmt 1 view .LVU92
 247:Core/Src/u8g2/Src/u8g2_circle.c ****   u8g2_long_t xchg, ychg;
 447              		.loc 1 247 3 view .LVU93
 248:Core/Src/u8g2/Src/u8g2_circle.c ****   u8g2_long_t err;
 448              		.loc 1 248 3 view .LVU94
 249:Core/Src/u8g2/Src/u8g2_circle.c ****   u8g2_long_t rxrx2;
 449              		.loc 1 249 3 view .LVU95
 250:Core/Src/u8g2/Src/u8g2_circle.c ****   u8g2_long_t ryry2;
 450              		.loc 1 250 3 view .LVU96
 251:Core/Src/u8g2/Src/u8g2_circle.c ****   u8g2_long_t stopx, stopy;
 451              		.loc 1 251 3 view .LVU97
 252:Core/Src/u8g2/Src/u8g2_circle.c ****   
 253:Core/Src/u8g2/Src/u8g2_circle.c ****   rxrx2 = rx;
 452              		.loc 1 253 3 view .LVU98
 453              		.loc 1 253 9 is_stmt 0 view .LVU99
 454 001a 0995     		str	r5, [sp, #36]
 455              	.LVL45:
 254:Core/Src/u8g2/Src/u8g2_circle.c ****   rxrx2 *= rx;
 456              		.loc 1 254 3 is_stmt 1 view .LVU100
 457              		.loc 1 254 9 is_stmt 0 view .LVU101
 458 001c 05FB05FB 		mul	fp, r5, r5
 459              	.LVL46:
 255:Core/Src/u8g2/Src/u8g2_circle.c ****   rxrx2 *= 2;
 460              		.loc 1 255 3 is_stmt 1 view .LVU102
 461              		.loc 1 255 9 is_stmt 0 view .LVU103
 462 0020 4FEA4B08 		lsl	r8, fp, #1
 463              	.LVL47:
 256:Core/Src/u8g2/Src/u8g2_circle.c ****   
 257:Core/Src/u8g2/Src/u8g2_circle.c ****   ryry2 = ry;
 464              		.loc 1 257 3 is_stmt 1 view .LVU104
 465              		.loc 1 257 9 is_stmt 0 view .LVU105
 466 0024 0A93     		str	r3, [sp, #40]
 467              	.LVL48:
 258:Core/Src/u8g2/Src/u8g2_circle.c ****   ryry2 *= ry;
 468              		.loc 1 258 3 is_stmt 1 view .LVU106
ARM GAS  C:\Users\MOROSH~1\AppData\Local\Temp\ccXJN7S2.s 			page 14


 469              		.loc 1 258 9 is_stmt 0 view .LVU107
 470 0026 03FB03FA 		mul	r10, r3, r3
 471              	.LVL49:
 259:Core/Src/u8g2/Src/u8g2_circle.c ****   ryry2 *= 2;
 472              		.loc 1 259 3 is_stmt 1 view .LVU108
 473              		.loc 1 259 9 is_stmt 0 view .LVU109
 474 002a 4FEA4A09 		lsl	r9, r10, #1
 475              	.LVL50:
 260:Core/Src/u8g2/Src/u8g2_circle.c ****   
 261:Core/Src/u8g2/Src/u8g2_circle.c ****   x = rx;
 476              		.loc 1 261 3 is_stmt 1 view .LVU110
 262:Core/Src/u8g2/Src/u8g2_circle.c ****   y = 0;
 477              		.loc 1 262 3 view .LVU111
 263:Core/Src/u8g2/Src/u8g2_circle.c ****   
 264:Core/Src/u8g2/Src/u8g2_circle.c ****   xchg = 1;
 478              		.loc 1 264 3 view .LVU112
 265:Core/Src/u8g2/Src/u8g2_circle.c ****   xchg -= rx;
 479              		.loc 1 265 3 view .LVU113
 480              		.loc 1 265 8 is_stmt 0 view .LVU114
 481 002e C5F10107 		rsb	r7, r5, #1
 482              	.LVL51:
 266:Core/Src/u8g2/Src/u8g2_circle.c ****   xchg -= rx;
 483              		.loc 1 266 3 is_stmt 1 view .LVU115
 484              		.loc 1 266 8 is_stmt 0 view .LVU116
 485 0032 7F1B     		subs	r7, r7, r5
 486              	.LVL52:
 267:Core/Src/u8g2/Src/u8g2_circle.c ****   xchg *= ry;
 487              		.loc 1 267 3 is_stmt 1 view .LVU117
 488              		.loc 1 267 8 is_stmt 0 view .LVU118
 489 0034 03FB07F7 		mul	r7, r3, r7
 490              	.LVL53:
 268:Core/Src/u8g2/Src/u8g2_circle.c ****   xchg *= ry;
 491              		.loc 1 268 3 is_stmt 1 view .LVU119
 492              		.loc 1 268 8 is_stmt 0 view .LVU120
 493 0038 07FB03F3 		mul	r3, r7, r3
 494              	.LVL54:
 269:Core/Src/u8g2/Src/u8g2_circle.c ****   
 270:Core/Src/u8g2/Src/u8g2_circle.c ****   ychg = rx;
 495              		.loc 1 270 3 is_stmt 1 view .LVU121
 271:Core/Src/u8g2/Src/u8g2_circle.c ****   ychg *= rx;
 496              		.loc 1 271 3 view .LVU122
 272:Core/Src/u8g2/Src/u8g2_circle.c ****   
 273:Core/Src/u8g2/Src/u8g2_circle.c ****   err = 0;
 497              		.loc 1 273 3 view .LVU123
 274:Core/Src/u8g2/Src/u8g2_circle.c ****   
 275:Core/Src/u8g2/Src/u8g2_circle.c ****   stopx = ryry2;
 498              		.loc 1 275 3 view .LVU124
 276:Core/Src/u8g2/Src/u8g2_circle.c ****   stopx *= rx;
 499              		.loc 1 276 3 view .LVU125
 500              		.loc 1 276 9 is_stmt 0 view .LVU126
 501 003c 09FB05F2 		mul	r2, r9, r5
 502 0040 0392     		str	r2, [sp, #12]
 503              	.LVL55:
 277:Core/Src/u8g2/Src/u8g2_circle.c ****   stopy = 0;
 504              		.loc 1 277 3 is_stmt 1 view .LVU127
 278:Core/Src/u8g2/Src/u8g2_circle.c ****   
 279:Core/Src/u8g2/Src/u8g2_circle.c ****   while( stopx >= stopy )
ARM GAS  C:\Users\MOROSH~1\AppData\Local\Temp\ccXJN7S2.s 			page 15


 505              		.loc 1 279 3 view .LVU128
 277:Core/Src/u8g2/Src/u8g2_circle.c ****   stopy = 0;
 506              		.loc 1 277 9 is_stmt 0 view .LVU129
 507 0042 0027     		movs	r7, #0
 273:Core/Src/u8g2/Src/u8g2_circle.c ****   
 508              		.loc 1 273 7 view .LVU130
 509 0044 3E46     		mov	r6, r7
 262:Core/Src/u8g2/Src/u8g2_circle.c ****   
 510              		.loc 1 262 5 view .LVU131
 511 0046 3C46     		mov	r4, r7
 512 0048 CDF82CA0 		str	r10, [sp, #44]
 513 004c 9A46     		mov	r10, r3
 514              	.LVL56:
 515              	.L29:
 516              		.loc 1 279 8 is_stmt 1 view .LVU132
 517 004e 039B     		ldr	r3, [sp, #12]
 518 0050 BB42     		cmp	r3, r7
 519 0052 1BDB     		blt	.L36
 280:Core/Src/u8g2/Src/u8g2_circle.c ****   {
 281:Core/Src/u8g2/Src/u8g2_circle.c ****     u8g2_draw_ellipse_section(u8g2, x, y, x0, y0, option);
 520              		.loc 1 281 5 view .LVU133
 521 0054 089B     		ldr	r3, [sp, #32]
 522 0056 0193     		str	r3, [sp, #4]
 523 0058 079B     		ldr	r3, [sp, #28]
 524 005a 0093     		str	r3, [sp]
 525 005c 069B     		ldr	r3, [sp, #24]
 526 005e 2246     		mov	r2, r4
 527 0060 2946     		mov	r1, r5
 528 0062 0598     		ldr	r0, [sp, #20]
 529 0064 FFF7FEFF 		bl	u8g2_draw_ellipse_section
 530              	.LVL57:
 282:Core/Src/u8g2/Src/u8g2_circle.c ****     y++;
 531              		.loc 1 282 5 view .LVU134
 532              		.loc 1 282 6 is_stmt 0 view .LVU135
 533 0068 0134     		adds	r4, r4, #1
 534              	.LVL58:
 535              		.loc 1 282 6 view .LVU136
 536 006a A4B2     		uxth	r4, r4
 537              	.LVL59:
 283:Core/Src/u8g2/Src/u8g2_circle.c ****     stopy += rxrx2;
 538              		.loc 1 283 5 is_stmt 1 view .LVU137
 539              		.loc 1 283 11 is_stmt 0 view .LVU138
 540 006c 4744     		add	r7, r7, r8
 541              	.LVL60:
 284:Core/Src/u8g2/Src/u8g2_circle.c ****     err += ychg;
 542              		.loc 1 284 5 is_stmt 1 view .LVU139
 543              		.loc 1 284 9 is_stmt 0 view .LVU140
 544 006e 5E44     		add	r6, r6, fp
 545              	.LVL61:
 285:Core/Src/u8g2/Src/u8g2_circle.c ****     ychg += rxrx2;
 546              		.loc 1 285 5 is_stmt 1 view .LVU141
 547              		.loc 1 285 10 is_stmt 0 view .LVU142
 548 0070 C344     		add	fp, fp, r8
 549              	.LVL62:
 286:Core/Src/u8g2/Src/u8g2_circle.c ****     if ( 2*err+xchg > 0 )
 550              		.loc 1 286 5 is_stmt 1 view .LVU143
 551              		.loc 1 286 15 is_stmt 0 view .LVU144
ARM GAS  C:\Users\MOROSH~1\AppData\Local\Temp\ccXJN7S2.s 			page 16


 552 0072 0AEB4603 		add	r3, r10, r6, lsl #1
 553              		.loc 1 286 8 view .LVU145
 554 0076 002B     		cmp	r3, #0
 555 0078 E9DD     		ble	.L29
 287:Core/Src/u8g2/Src/u8g2_circle.c ****     {
 288:Core/Src/u8g2/Src/u8g2_circle.c ****       x--;
 556              		.loc 1 288 7 is_stmt 1 view .LVU146
 557              		.loc 1 288 8 is_stmt 0 view .LVU147
 558 007a 013D     		subs	r5, r5, #1
 559              	.LVL63:
 560              		.loc 1 288 8 view .LVU148
 561 007c ADB2     		uxth	r5, r5
 562              	.LVL64:
 289:Core/Src/u8g2/Src/u8g2_circle.c ****       stopx -= ryry2;
 563              		.loc 1 289 7 is_stmt 1 view .LVU149
 564              		.loc 1 289 13 is_stmt 0 view .LVU150
 565 007e 039B     		ldr	r3, [sp, #12]
 566 0080 A3EB0903 		sub	r3, r3, r9
 567 0084 0393     		str	r3, [sp, #12]
 568              	.LVL65:
 290:Core/Src/u8g2/Src/u8g2_circle.c ****       err += xchg;
 569              		.loc 1 290 7 is_stmt 1 view .LVU151
 570              		.loc 1 290 11 is_stmt 0 view .LVU152
 571 0086 5644     		add	r6, r6, r10
 572              	.LVL66:
 291:Core/Src/u8g2/Src/u8g2_circle.c ****       xchg += ryry2;      
 573              		.loc 1 291 7 is_stmt 1 view .LVU153
 574              		.loc 1 291 12 is_stmt 0 view .LVU154
 575 0088 CA44     		add	r10, r10, r9
 576              	.LVL67:
 577              		.loc 1 291 12 view .LVU155
 578 008a E0E7     		b	.L29
 579              	.L36:
 292:Core/Src/u8g2/Src/u8g2_circle.c ****     }
 293:Core/Src/u8g2/Src/u8g2_circle.c ****   }
 294:Core/Src/u8g2/Src/u8g2_circle.c **** 
 295:Core/Src/u8g2/Src/u8g2_circle.c ****   x = 0;
 296:Core/Src/u8g2/Src/u8g2_circle.c ****   y = ry;
 297:Core/Src/u8g2/Src/u8g2_circle.c ****   
 298:Core/Src/u8g2/Src/u8g2_circle.c ****   xchg = ry;
 299:Core/Src/u8g2/Src/u8g2_circle.c ****   xchg *= ry;
 300:Core/Src/u8g2/Src/u8g2_circle.c ****   
 301:Core/Src/u8g2/Src/u8g2_circle.c ****   ychg = 1;
 302:Core/Src/u8g2/Src/u8g2_circle.c ****   ychg -= ry;
 580              		.loc 1 302 8 view .LVU156
 581 008c DDF82CA0 		ldr	r10, [sp, #44]
 582              	.LVL68:
 295:Core/Src/u8g2/Src/u8g2_circle.c ****   y = ry;
 583              		.loc 1 295 3 is_stmt 1 view .LVU157
 296:Core/Src/u8g2/Src/u8g2_circle.c ****   
 584              		.loc 1 296 3 view .LVU158
 298:Core/Src/u8g2/Src/u8g2_circle.c ****   xchg *= ry;
 585              		.loc 1 298 3 view .LVU159
 299:Core/Src/u8g2/Src/u8g2_circle.c ****   
 586              		.loc 1 299 3 view .LVU160
 301:Core/Src/u8g2/Src/u8g2_circle.c ****   ychg -= ry;
 587              		.loc 1 301 3 view .LVU161
ARM GAS  C:\Users\MOROSH~1\AppData\Local\Temp\ccXJN7S2.s 			page 17


 588              		.loc 1 302 3 view .LVU162
 589              		.loc 1 302 8 is_stmt 0 view .LVU163
 590 0090 0A9B     		ldr	r3, [sp, #40]
 591              	.LVL69:
 592              		.loc 1 302 8 view .LVU164
 593 0092 C3F10106 		rsb	r6, r3, #1
 594              	.LVL70:
 303:Core/Src/u8g2/Src/u8g2_circle.c ****   ychg -= ry;
 595              		.loc 1 303 3 is_stmt 1 view .LVU165
 596              		.loc 1 303 8 is_stmt 0 view .LVU166
 597 0096 F61A     		subs	r6, r6, r3
 598              	.LVL71:
 304:Core/Src/u8g2/Src/u8g2_circle.c ****   ychg *= rx;
 599              		.loc 1 304 3 is_stmt 1 view .LVU167
 600              		.loc 1 304 8 is_stmt 0 view .LVU168
 601 0098 099A     		ldr	r2, [sp, #36]
 602 009a 02FB06F6 		mul	r6, r2, r6
 603              	.LVL72:
 305:Core/Src/u8g2/Src/u8g2_circle.c ****   ychg *= rx;
 604              		.loc 1 305 3 is_stmt 1 view .LVU169
 605              		.loc 1 305 8 is_stmt 0 view .LVU170
 606 009e 02FB06F6 		mul	r6, r2, r6
 607              	.LVL73:
 306:Core/Src/u8g2/Src/u8g2_circle.c ****   
 307:Core/Src/u8g2/Src/u8g2_circle.c ****   err = 0;
 608              		.loc 1 307 3 is_stmt 1 view .LVU171
 308:Core/Src/u8g2/Src/u8g2_circle.c ****   
 309:Core/Src/u8g2/Src/u8g2_circle.c ****   stopx = 0;
 609              		.loc 1 309 3 view .LVU172
 310:Core/Src/u8g2/Src/u8g2_circle.c **** 
 311:Core/Src/u8g2/Src/u8g2_circle.c ****   stopy = rxrx2;
 610              		.loc 1 311 3 view .LVU173
 312:Core/Src/u8g2/Src/u8g2_circle.c ****   stopy *= ry;
 611              		.loc 1 312 3 view .LVU174
 612              		.loc 1 312 9 is_stmt 0 view .LVU175
 613 00a2 03FB08FB 		mul	fp, r3, r8
 614              	.LVL74:
 313:Core/Src/u8g2/Src/u8g2_circle.c ****   
 314:Core/Src/u8g2/Src/u8g2_circle.c **** 
 315:Core/Src/u8g2/Src/u8g2_circle.c ****   while( stopx <= stopy )
 615              		.loc 1 315 3 is_stmt 1 view .LVU176
 309:Core/Src/u8g2/Src/u8g2_circle.c **** 
 616              		.loc 1 309 9 is_stmt 0 view .LVU177
 617 00a6 0027     		movs	r7, #0
 307:Core/Src/u8g2/Src/u8g2_circle.c ****   
 618              		.loc 1 307 7 view .LVU178
 619 00a8 3D46     		mov	r5, r7
 295:Core/Src/u8g2/Src/u8g2_circle.c ****   y = ry;
 620              		.loc 1 295 5 view .LVU179
 621 00aa 3C46     		mov	r4, r7
 622              	.LVL75:
 623              	.L32:
 624              		.loc 1 315 8 is_stmt 1 view .LVU180
 625 00ac 5F45     		cmp	r7, fp
 626 00ae 1BDC     		bgt	.L37
 316:Core/Src/u8g2/Src/u8g2_circle.c ****   {
 317:Core/Src/u8g2/Src/u8g2_circle.c ****     u8g2_draw_ellipse_section(u8g2, x, y, x0, y0, option);
ARM GAS  C:\Users\MOROSH~1\AppData\Local\Temp\ccXJN7S2.s 			page 18


 627              		.loc 1 317 5 view .LVU181
 628 00b0 089B     		ldr	r3, [sp, #32]
 629 00b2 0193     		str	r3, [sp, #4]
 630 00b4 079B     		ldr	r3, [sp, #28]
 631 00b6 0093     		str	r3, [sp]
 632 00b8 069B     		ldr	r3, [sp, #24]
 633 00ba 049A     		ldr	r2, [sp, #16]
 634 00bc 2146     		mov	r1, r4
 635 00be 0598     		ldr	r0, [sp, #20]
 636 00c0 FFF7FEFF 		bl	u8g2_draw_ellipse_section
 637              	.LVL76:
 318:Core/Src/u8g2/Src/u8g2_circle.c ****     x++;
 638              		.loc 1 318 5 view .LVU182
 639              		.loc 1 318 6 is_stmt 0 view .LVU183
 640 00c4 0134     		adds	r4, r4, #1
 641              	.LVL77:
 642              		.loc 1 318 6 view .LVU184
 643 00c6 A4B2     		uxth	r4, r4
 644              	.LVL78:
 319:Core/Src/u8g2/Src/u8g2_circle.c ****     stopx += ryry2;
 645              		.loc 1 319 5 is_stmt 1 view .LVU185
 646              		.loc 1 319 11 is_stmt 0 view .LVU186
 647 00c8 4F44     		add	r7, r7, r9
 648              	.LVL79:
 320:Core/Src/u8g2/Src/u8g2_circle.c ****     err += xchg;
 649              		.loc 1 320 5 is_stmt 1 view .LVU187
 650              		.loc 1 320 9 is_stmt 0 view .LVU188
 651 00ca 5544     		add	r5, r5, r10
 652              	.LVL80:
 321:Core/Src/u8g2/Src/u8g2_circle.c ****     xchg += ryry2;
 653              		.loc 1 321 5 is_stmt 1 view .LVU189
 654              		.loc 1 321 10 is_stmt 0 view .LVU190
 655 00cc CA44     		add	r10, r10, r9
 656              	.LVL81:
 322:Core/Src/u8g2/Src/u8g2_circle.c ****     if ( 2*err+ychg > 0 )
 657              		.loc 1 322 5 is_stmt 1 view .LVU191
 658              		.loc 1 322 15 is_stmt 0 view .LVU192
 659 00ce 06EB4503 		add	r3, r6, r5, lsl #1
 660              		.loc 1 322 8 view .LVU193
 661 00d2 002B     		cmp	r3, #0
 662 00d4 EADD     		ble	.L32
 323:Core/Src/u8g2/Src/u8g2_circle.c ****     {
 324:Core/Src/u8g2/Src/u8g2_circle.c ****       y--;
 663              		.loc 1 324 7 is_stmt 1 view .LVU194
 664              		.loc 1 324 8 is_stmt 0 view .LVU195
 665 00d6 049B     		ldr	r3, [sp, #16]
 666 00d8 013B     		subs	r3, r3, #1
 667 00da 9BB2     		uxth	r3, r3
 668 00dc 0493     		str	r3, [sp, #16]
 669              	.LVL82:
 325:Core/Src/u8g2/Src/u8g2_circle.c ****       stopy -= rxrx2;
 670              		.loc 1 325 7 is_stmt 1 view .LVU196
 671              		.loc 1 325 13 is_stmt 0 view .LVU197
 672 00de ABEB080B 		sub	fp, fp, r8
 673              	.LVL83:
 326:Core/Src/u8g2/Src/u8g2_circle.c ****       err += ychg;
 674              		.loc 1 326 7 is_stmt 1 view .LVU198
ARM GAS  C:\Users\MOROSH~1\AppData\Local\Temp\ccXJN7S2.s 			page 19


 675              		.loc 1 326 11 is_stmt 0 view .LVU199
 676 00e2 3544     		add	r5, r5, r6
 677              	.LVL84:
 327:Core/Src/u8g2/Src/u8g2_circle.c ****       ychg += rxrx2;
 678              		.loc 1 327 7 is_stmt 1 view .LVU200
 679              		.loc 1 327 12 is_stmt 0 view .LVU201
 680 00e4 4644     		add	r6, r6, r8
 681              	.LVL85:
 682              		.loc 1 327 12 view .LVU202
 683 00e6 E1E7     		b	.L32
 684              	.L37:
 328:Core/Src/u8g2/Src/u8g2_circle.c ****     }
 329:Core/Src/u8g2/Src/u8g2_circle.c ****   }
 330:Core/Src/u8g2/Src/u8g2_circle.c ****   
 331:Core/Src/u8g2/Src/u8g2_circle.c **** }
 685              		.loc 1 331 1 view .LVU203
 686 00e8 0DB0     		add	sp, sp, #52
 687              	.LCFI7:
 688              		.cfi_def_cfa_offset 36
 689              		@ sp needed
 690 00ea BDE8F08F 		pop	{r4, r5, r6, r7, r8, r9, r10, fp, pc}
 691              		.loc 1 331 1 view .LVU204
 692              		.cfi_endproc
 693              	.LFE7:
 695              		.section	.text.u8g2_draw_disc_section,"ax",%progbits
 696              		.align	1
 697              		.syntax unified
 698              		.thumb
 699              		.thumb_func
 701              	u8g2_draw_disc_section:
 702              	.LVL86:
 703              	.LFB3:
 130:Core/Src/u8g2/Src/u8g2_circle.c ****     /* upper right */
 704              		.loc 1 130 1 is_stmt 1 view -0
 705              		.cfi_startproc
 706              		@ args = 8, pretend = 0, frame = 0
 707              		@ frame_needed = 0, uses_anonymous_args = 0
 130:Core/Src/u8g2/Src/u8g2_circle.c ****     /* upper right */
 708              		.loc 1 130 1 is_stmt 0 view .LVU206
 709 0000 2DE9F843 		push	{r3, r4, r5, r6, r7, r8, r9, lr}
 710              	.LCFI8:
 711              		.cfi_def_cfa_offset 32
 712              		.cfi_offset 3, -32
 713              		.cfi_offset 4, -28
 714              		.cfi_offset 5, -24
 715              		.cfi_offset 6, -20
 716              		.cfi_offset 7, -16
 717              		.cfi_offset 8, -12
 718              		.cfi_offset 9, -8
 719              		.cfi_offset 14, -4
 720 0004 8046     		mov	r8, r0
 721 0006 0C46     		mov	r4, r1
 722 0008 1746     		mov	r7, r2
 723 000a 1D46     		mov	r5, r3
 724 000c BDF82090 		ldrh	r9, [sp, #32]
 725 0010 9DF82460 		ldrb	r6, [sp, #36]	@ zero_extendqisi2
 132:Core/Src/u8g2/Src/u8g2_circle.c ****     {
ARM GAS  C:\Users\MOROSH~1\AppData\Local\Temp\ccXJN7S2.s 			page 20


 726              		.loc 1 132 5 is_stmt 1 view .LVU207
 132:Core/Src/u8g2/Src/u8g2_circle.c ****     {
 727              		.loc 1 132 8 is_stmt 0 view .LVU208
 728 0014 16F0010F 		tst	r6, #1
 729 0018 0AD1     		bne	.L44
 730              	.LVL87:
 731              	.L39:
 139:Core/Src/u8g2/Src/u8g2_circle.c ****     {
 732              		.loc 1 139 5 is_stmt 1 view .LVU209
 139:Core/Src/u8g2/Src/u8g2_circle.c ****     {
 733              		.loc 1 139 8 is_stmt 0 view .LVU210
 734 001a 16F0020F 		tst	r6, #2
 735 001e 1BD1     		bne	.L45
 736              	.L40:
 146:Core/Src/u8g2/Src/u8g2_circle.c ****     {
 737              		.loc 1 146 5 is_stmt 1 view .LVU211
 146:Core/Src/u8g2/Src/u8g2_circle.c ****     {
 738              		.loc 1 146 8 is_stmt 0 view .LVU212
 739 0020 16F0080F 		tst	r6, #8
 740 0024 2DD1     		bne	.L46
 741              	.L41:
 153:Core/Src/u8g2/Src/u8g2_circle.c ****     {
 742              		.loc 1 153 5 is_stmt 1 view .LVU213
 153:Core/Src/u8g2/Src/u8g2_circle.c ****     {
 743              		.loc 1 153 8 is_stmt 0 view .LVU214
 744 0026 16F0040F 		tst	r6, #4
 745 002a 3BD1     		bne	.L47
 746              	.L38:
 158:Core/Src/u8g2/Src/u8g2_circle.c **** 
 747              		.loc 1 158 1 view .LVU215
 748 002c BDE8F883 		pop	{r3, r4, r5, r6, r7, r8, r9, pc}
 749              	.LVL88:
 750              	.L44:
 134:Core/Src/u8g2/Src/u8g2_circle.c ****       u8g2_DrawVLine(u8g2, x0+y, y0-x, x+1);
 751              		.loc 1 134 7 is_stmt 1 view .LVU216
 752 0030 531C     		adds	r3, r2, #1
 753              	.LVL89:
 134:Core/Src/u8g2/Src/u8g2_circle.c ****       u8g2_DrawVLine(u8g2, x0+y, y0-x, x+1);
 754              		.loc 1 134 7 is_stmt 0 view .LVU217
 755 0032 A9EB0202 		sub	r2, r9, r2
 756              	.LVL90:
 134:Core/Src/u8g2/Src/u8g2_circle.c ****       u8g2_DrawVLine(u8g2, x0+y, y0-x, x+1);
 757              		.loc 1 134 7 view .LVU218
 758 0036 6918     		adds	r1, r5, r1
 759              	.LVL91:
 134:Core/Src/u8g2/Src/u8g2_circle.c ****       u8g2_DrawVLine(u8g2, x0+y, y0-x, x+1);
 760              		.loc 1 134 7 view .LVU219
 761 0038 9BB2     		uxth	r3, r3
 762 003a 92B2     		uxth	r2, r2
 763 003c 89B2     		uxth	r1, r1
 764 003e FFF7FEFF 		bl	u8g2_DrawVLine
 765              	.LVL92:
 135:Core/Src/u8g2/Src/u8g2_circle.c ****     }
 766              		.loc 1 135 7 is_stmt 1 view .LVU220
 767 0042 631C     		adds	r3, r4, #1
 768 0044 A9EB0402 		sub	r2, r9, r4
 769 0048 E919     		adds	r1, r5, r7
ARM GAS  C:\Users\MOROSH~1\AppData\Local\Temp\ccXJN7S2.s 			page 21


 770 004a 9BB2     		uxth	r3, r3
 771 004c 92B2     		uxth	r2, r2
 772 004e 89B2     		uxth	r1, r1
 773 0050 4046     		mov	r0, r8
 774 0052 FFF7FEFF 		bl	u8g2_DrawVLine
 775              	.LVL93:
 776 0056 E0E7     		b	.L39
 777              	.L45:
 141:Core/Src/u8g2/Src/u8g2_circle.c ****       u8g2_DrawVLine(u8g2, x0-y, y0-x, x+1);
 778              		.loc 1 141 7 view .LVU221
 779 0058 7B1C     		adds	r3, r7, #1
 780 005a A9EB0702 		sub	r2, r9, r7
 781 005e 291B     		subs	r1, r5, r4
 782 0060 9BB2     		uxth	r3, r3
 783 0062 92B2     		uxth	r2, r2
 784 0064 89B2     		uxth	r1, r1
 785 0066 4046     		mov	r0, r8
 786 0068 FFF7FEFF 		bl	u8g2_DrawVLine
 787              	.LVL94:
 142:Core/Src/u8g2/Src/u8g2_circle.c ****     }
 788              		.loc 1 142 7 view .LVU222
 789 006c 631C     		adds	r3, r4, #1
 790 006e A9EB0402 		sub	r2, r9, r4
 791 0072 E91B     		subs	r1, r5, r7
 792 0074 9BB2     		uxth	r3, r3
 793 0076 92B2     		uxth	r2, r2
 794 0078 89B2     		uxth	r1, r1
 795 007a 4046     		mov	r0, r8
 796 007c FFF7FEFF 		bl	u8g2_DrawVLine
 797              	.LVL95:
 798 0080 CEE7     		b	.L40
 799              	.L46:
 148:Core/Src/u8g2/Src/u8g2_circle.c ****       u8g2_DrawVLine(u8g2, x0+y, y0, x+1);
 800              		.loc 1 148 7 view .LVU223
 801 0082 7B1C     		adds	r3, r7, #1
 802 0084 2919     		adds	r1, r5, r4
 803 0086 9BB2     		uxth	r3, r3
 804 0088 4A46     		mov	r2, r9
 805 008a 89B2     		uxth	r1, r1
 806 008c 4046     		mov	r0, r8
 807 008e FFF7FEFF 		bl	u8g2_DrawVLine
 808              	.LVL96:
 149:Core/Src/u8g2/Src/u8g2_circle.c ****     }
 809              		.loc 1 149 7 view .LVU224
 810 0092 631C     		adds	r3, r4, #1
 811 0094 E919     		adds	r1, r5, r7
 812 0096 9BB2     		uxth	r3, r3
 813 0098 4A46     		mov	r2, r9
 814 009a 89B2     		uxth	r1, r1
 815 009c 4046     		mov	r0, r8
 816 009e FFF7FEFF 		bl	u8g2_DrawVLine
 817              	.LVL97:
 818 00a2 C0E7     		b	.L41
 819              	.L47:
 155:Core/Src/u8g2/Src/u8g2_circle.c ****       u8g2_DrawVLine(u8g2, x0-y, y0, x+1);
 820              		.loc 1 155 7 view .LVU225
 821 00a4 7B1C     		adds	r3, r7, #1
ARM GAS  C:\Users\MOROSH~1\AppData\Local\Temp\ccXJN7S2.s 			page 22


 822 00a6 291B     		subs	r1, r5, r4
 823 00a8 9BB2     		uxth	r3, r3
 824 00aa 4A46     		mov	r2, r9
 825 00ac 89B2     		uxth	r1, r1
 826 00ae 4046     		mov	r0, r8
 827 00b0 FFF7FEFF 		bl	u8g2_DrawVLine
 828              	.LVL98:
 156:Core/Src/u8g2/Src/u8g2_circle.c ****     }
 829              		.loc 1 156 7 view .LVU226
 830 00b4 631C     		adds	r3, r4, #1
 831 00b6 E91B     		subs	r1, r5, r7
 832 00b8 9BB2     		uxth	r3, r3
 833 00ba 4A46     		mov	r2, r9
 834 00bc 89B2     		uxth	r1, r1
 835 00be 4046     		mov	r0, r8
 836 00c0 FFF7FEFF 		bl	u8g2_DrawVLine
 837              	.LVL99:
 158:Core/Src/u8g2/Src/u8g2_circle.c **** 
 838              		.loc 1 158 1 is_stmt 0 view .LVU227
 839 00c4 B2E7     		b	.L38
 840              		.cfi_endproc
 841              	.LFE3:
 843              		.section	.text.u8g2_draw_disc,"ax",%progbits
 844              		.align	1
 845              		.syntax unified
 846              		.thumb
 847              		.thumb_func
 849              	u8g2_draw_disc:
 850              	.LVL100:
 851              	.LFB4:
 161:Core/Src/u8g2/Src/u8g2_circle.c ****   u8g2_int_t f;
 852              		.loc 1 161 1 is_stmt 1 view -0
 853              		.cfi_startproc
 854              		@ args = 4, pretend = 0, frame = 8
 855              		@ frame_needed = 0, uses_anonymous_args = 0
 161:Core/Src/u8g2/Src/u8g2_circle.c ****   u8g2_int_t f;
 856              		.loc 1 161 1 is_stmt 0 view .LVU229
 857 0000 2DE9F04F 		push	{r4, r5, r6, r7, r8, r9, r10, fp, lr}
 858              	.LCFI9:
 859              		.cfi_def_cfa_offset 36
 860              		.cfi_offset 4, -36
 861              		.cfi_offset 5, -32
 862              		.cfi_offset 6, -28
 863              		.cfi_offset 7, -24
 864              		.cfi_offset 8, -20
 865              		.cfi_offset 9, -16
 866              		.cfi_offset 10, -12
 867              		.cfi_offset 11, -8
 868              		.cfi_offset 14, -4
 869 0004 85B0     		sub	sp, sp, #20
 870              	.LCFI10:
 871              		.cfi_def_cfa_offset 56
 872 0006 0390     		str	r0, [sp, #12]
 873 0008 8946     		mov	r9, r1
 874 000a 9246     		mov	r10, r2
 875 000c 1E46     		mov	r6, r3
 876 000e 9DF838B0 		ldrb	fp, [sp, #56]	@ zero_extendqisi2
ARM GAS  C:\Users\MOROSH~1\AppData\Local\Temp\ccXJN7S2.s 			page 23


 162:Core/Src/u8g2/Src/u8g2_circle.c ****   u8g2_int_t ddF_x;
 877              		.loc 1 162 3 is_stmt 1 view .LVU230
 163:Core/Src/u8g2/Src/u8g2_circle.c ****   u8g2_int_t ddF_y;
 878              		.loc 1 163 3 view .LVU231
 164:Core/Src/u8g2/Src/u8g2_circle.c ****   u8g2_uint_t x;
 879              		.loc 1 164 3 view .LVU232
 165:Core/Src/u8g2/Src/u8g2_circle.c ****   u8g2_uint_t y;
 880              		.loc 1 165 3 view .LVU233
 166:Core/Src/u8g2/Src/u8g2_circle.c **** 
 881              		.loc 1 166 3 view .LVU234
 168:Core/Src/u8g2/Src/u8g2_circle.c ****   f -= rad;
 882              		.loc 1 168 3 view .LVU235
 883              	.LVL101:
 169:Core/Src/u8g2/Src/u8g2_circle.c ****   ddF_x = 1;
 884              		.loc 1 169 3 view .LVU236
 169:Core/Src/u8g2/Src/u8g2_circle.c ****   ddF_x = 1;
 885              		.loc 1 169 5 is_stmt 0 view .LVU237
 886 0012 C3F10104 		rsb	r4, r3, #1
 887 0016 24B2     		sxth	r4, r4
 888              	.LVL102:
 170:Core/Src/u8g2/Src/u8g2_circle.c ****   ddF_y = 0;
 889              		.loc 1 170 3 is_stmt 1 view .LVU238
 171:Core/Src/u8g2/Src/u8g2_circle.c ****   ddF_y -= rad;
 890              		.loc 1 171 3 view .LVU239
 172:Core/Src/u8g2/Src/u8g2_circle.c ****   ddF_y *= 2;
 891              		.loc 1 172 3 view .LVU240
 173:Core/Src/u8g2/Src/u8g2_circle.c ****   x = 0;
 892              		.loc 1 173 3 view .LVU241
 173:Core/Src/u8g2/Src/u8g2_circle.c ****   x = 0;
 893              		.loc 1 173 9 is_stmt 0 view .LVU242
 894 0018 C3EBC338 		rsb	r8, r3, r3, lsl #15
 895 001c 4FEA4808 		lsl	r8, r8, #1
 896 0020 0FFA88F8 		sxth	r8, r8
 897              	.LVL103:
 174:Core/Src/u8g2/Src/u8g2_circle.c ****   y = rad;
 898              		.loc 1 174 3 is_stmt 1 view .LVU243
 175:Core/Src/u8g2/Src/u8g2_circle.c **** 
 899              		.loc 1 175 3 view .LVU244
 177:Core/Src/u8g2/Src/u8g2_circle.c ****   
 900              		.loc 1 177 3 view .LVU245
 901 0024 CDF804B0 		str	fp, [sp, #4]
 902 0028 0092     		str	r2, [sp]
 903 002a 0B46     		mov	r3, r1
 904              	.LVL104:
 177:Core/Src/u8g2/Src/u8g2_circle.c ****   
 905              		.loc 1 177 3 is_stmt 0 view .LVU246
 906 002c 3246     		mov	r2, r6
 907              	.LVL105:
 177:Core/Src/u8g2/Src/u8g2_circle.c ****   
 908              		.loc 1 177 3 view .LVU247
 909 002e 0021     		movs	r1, #0
 910              	.LVL106:
 177:Core/Src/u8g2/Src/u8g2_circle.c ****   
 911              		.loc 1 177 3 view .LVU248
 912 0030 FFF7FEFF 		bl	u8g2_draw_disc_section
 913              	.LVL107:
 179:Core/Src/u8g2/Src/u8g2_circle.c ****   {
ARM GAS  C:\Users\MOROSH~1\AppData\Local\Temp\ccXJN7S2.s 			page 24


 914              		.loc 1 179 3 is_stmt 1 view .LVU249
 174:Core/Src/u8g2/Src/u8g2_circle.c ****   y = rad;
 915              		.loc 1 174 5 is_stmt 0 view .LVU250
 916 0034 0025     		movs	r5, #0
 170:Core/Src/u8g2/Src/u8g2_circle.c ****   ddF_y = 0;
 917              		.loc 1 170 9 view .LVU251
 918 0036 0127     		movs	r7, #1
 179:Core/Src/u8g2/Src/u8g2_circle.c ****   {
 919              		.loc 1 179 9 view .LVU252
 920 0038 19E0     		b	.L49
 921              	.LVL108:
 922              	.L54:
 183:Core/Src/u8g2/Src/u8g2_circle.c ****       ddF_y += 2;
 923              		.loc 1 183 7 is_stmt 1 view .LVU253
 183:Core/Src/u8g2/Src/u8g2_circle.c ****       ddF_y += 2;
 924              		.loc 1 183 8 is_stmt 0 view .LVU254
 925 003a 013E     		subs	r6, r6, #1
 926              	.LVL109:
 183:Core/Src/u8g2/Src/u8g2_circle.c ****       ddF_y += 2;
 927              		.loc 1 183 8 view .LVU255
 928 003c B6B2     		uxth	r6, r6
 929              	.LVL110:
 184:Core/Src/u8g2/Src/u8g2_circle.c ****       f += ddF_y;
 930              		.loc 1 184 7 is_stmt 1 view .LVU256
 184:Core/Src/u8g2/Src/u8g2_circle.c ****       f += ddF_y;
 931              		.loc 1 184 13 is_stmt 0 view .LVU257
 932 003e 08F10203 		add	r3, r8, #2
 933 0042 0FFA83F8 		sxth	r8, r3
 934              	.LVL111:
 185:Core/Src/u8g2/Src/u8g2_circle.c ****     }
 935              		.loc 1 185 7 is_stmt 1 view .LVU258
 185:Core/Src/u8g2/Src/u8g2_circle.c ****     }
 936              		.loc 1 185 9 is_stmt 0 view .LVU259
 937 0046 14FA83F4 		uxtah	r4, r4, r3
 938              	.LVL112:
 185:Core/Src/u8g2/Src/u8g2_circle.c ****     }
 939              		.loc 1 185 9 view .LVU260
 940 004a 24B2     		sxth	r4, r4
 941              	.LVL113:
 942              	.L50:
 187:Core/Src/u8g2/Src/u8g2_circle.c ****     ddF_x += 2;
 943              		.loc 1 187 5 is_stmt 1 view .LVU261
 187:Core/Src/u8g2/Src/u8g2_circle.c ****     ddF_x += 2;
 944              		.loc 1 187 6 is_stmt 0 view .LVU262
 945 004c 0135     		adds	r5, r5, #1
 946              	.LVL114:
 187:Core/Src/u8g2/Src/u8g2_circle.c ****     ddF_x += 2;
 947              		.loc 1 187 6 view .LVU263
 948 004e ADB2     		uxth	r5, r5
 949              	.LVL115:
 188:Core/Src/u8g2/Src/u8g2_circle.c ****     f += ddF_x;
 950              		.loc 1 188 5 is_stmt 1 view .LVU264
 188:Core/Src/u8g2/Src/u8g2_circle.c ****     f += ddF_x;
 951              		.loc 1 188 11 is_stmt 0 view .LVU265
 952 0050 BB1C     		adds	r3, r7, #2
 953 0052 1FB2     		sxth	r7, r3
 954              	.LVL116:
ARM GAS  C:\Users\MOROSH~1\AppData\Local\Temp\ccXJN7S2.s 			page 25


 189:Core/Src/u8g2/Src/u8g2_circle.c **** 
 955              		.loc 1 189 5 is_stmt 1 view .LVU266
 189:Core/Src/u8g2/Src/u8g2_circle.c **** 
 956              		.loc 1 189 7 is_stmt 0 view .LVU267
 957 0054 14FA83F4 		uxtah	r4, r4, r3
 958              	.LVL117:
 189:Core/Src/u8g2/Src/u8g2_circle.c **** 
 959              		.loc 1 189 7 view .LVU268
 960 0058 24B2     		sxth	r4, r4
 961              	.LVL118:
 191:Core/Src/u8g2/Src/u8g2_circle.c ****   }
 962              		.loc 1 191 5 is_stmt 1 view .LVU269
 963 005a CDF804B0 		str	fp, [sp, #4]
 964 005e CDF800A0 		str	r10, [sp]
 965 0062 4B46     		mov	r3, r9
 966 0064 3246     		mov	r2, r6
 967 0066 2946     		mov	r1, r5
 968 0068 0398     		ldr	r0, [sp, #12]
 969 006a FFF7FEFF 		bl	u8g2_draw_disc_section
 970              	.LVL119:
 971              	.L49:
 179:Core/Src/u8g2/Src/u8g2_circle.c ****   {
 972              		.loc 1 179 9 view .LVU270
 973 006e B542     		cmp	r5, r6
 974 0070 02D2     		bcs	.L53
 181:Core/Src/u8g2/Src/u8g2_circle.c ****     {
 975              		.loc 1 181 5 view .LVU271
 181:Core/Src/u8g2/Src/u8g2_circle.c ****     {
 976              		.loc 1 181 8 is_stmt 0 view .LVU272
 977 0072 002C     		cmp	r4, #0
 978 0074 E1DA     		bge	.L54
 979 0076 E9E7     		b	.L50
 980              	.L53:
 193:Core/Src/u8g2/Src/u8g2_circle.c **** 
 981              		.loc 1 193 1 view .LVU273
 982 0078 05B0     		add	sp, sp, #20
 983              	.LCFI11:
 984              		.cfi_def_cfa_offset 36
 985              		@ sp needed
 986 007a BDE8F08F 		pop	{r4, r5, r6, r7, r8, r9, r10, fp, pc}
 193:Core/Src/u8g2/Src/u8g2_circle.c **** 
 987              		.loc 1 193 1 view .LVU274
 988              		.cfi_endproc
 989              	.LFE4:
 991              		.section	.text.u8g2_draw_filled_ellipse_section,"ax",%progbits
 992              		.align	1
 993              		.syntax unified
 994              		.thumb
 995              		.thumb_func
 997              	u8g2_draw_filled_ellipse_section:
 998              	.LVL120:
 999              	.LFB9:
 332:Core/Src/u8g2/Src/u8g2_circle.c **** 
 333:Core/Src/u8g2/Src/u8g2_circle.c **** void u8g2_DrawEllipse(u8g2_t *u8g2, u8g2_uint_t x0, u8g2_uint_t y0, u8g2_uint_t rx, u8g2_uint_t ry,
 334:Core/Src/u8g2/Src/u8g2_circle.c **** {
 335:Core/Src/u8g2/Src/u8g2_circle.c ****   /* check for bounding box */
 336:Core/Src/u8g2/Src/u8g2_circle.c **** #ifdef U8G2_WITH_INTERSECTION
ARM GAS  C:\Users\MOROSH~1\AppData\Local\Temp\ccXJN7S2.s 			page 26


 337:Core/Src/u8g2/Src/u8g2_circle.c ****   {
 338:Core/Src/u8g2/Src/u8g2_circle.c ****     if ( u8g2_IsIntersection(u8g2, x0-rx, y0-ry, x0+rx+1, y0+ry+1) == 0 ) 
 339:Core/Src/u8g2/Src/u8g2_circle.c ****       return;
 340:Core/Src/u8g2/Src/u8g2_circle.c ****   }
 341:Core/Src/u8g2/Src/u8g2_circle.c **** #endif /* U8G2_WITH_INTERSECTION */
 342:Core/Src/u8g2/Src/u8g2_circle.c ****   
 343:Core/Src/u8g2/Src/u8g2_circle.c ****   u8g2_draw_ellipse(u8g2, x0, y0, rx, ry, option);
 344:Core/Src/u8g2/Src/u8g2_circle.c **** }
 345:Core/Src/u8g2/Src/u8g2_circle.c **** 
 346:Core/Src/u8g2/Src/u8g2_circle.c **** /*==============================================*/
 347:Core/Src/u8g2/Src/u8g2_circle.c **** /* Filled Ellipse */
 348:Core/Src/u8g2/Src/u8g2_circle.c **** 
 349:Core/Src/u8g2/Src/u8g2_circle.c **** static void u8g2_draw_filled_ellipse_section(u8g2_t *u8g2, u8g2_uint_t x, u8g2_uint_t y, u8g2_uint_
 350:Core/Src/u8g2/Src/u8g2_circle.c **** static void u8g2_draw_filled_ellipse_section(u8g2_t *u8g2, u8g2_uint_t x, u8g2_uint_t y, u8g2_uint_
 351:Core/Src/u8g2/Src/u8g2_circle.c **** {
 1000              		.loc 1 351 1 is_stmt 1 view -0
 1001              		.cfi_startproc
 1002              		@ args = 8, pretend = 0, frame = 0
 1003              		@ frame_needed = 0, uses_anonymous_args = 0
 1004              		.loc 1 351 1 is_stmt 0 view .LVU276
 1005 0000 2DE9F843 		push	{r3, r4, r5, r6, r7, r8, r9, lr}
 1006              	.LCFI12:
 1007              		.cfi_def_cfa_offset 32
 1008              		.cfi_offset 3, -32
 1009              		.cfi_offset 4, -28
 1010              		.cfi_offset 5, -24
 1011              		.cfi_offset 6, -20
 1012              		.cfi_offset 7, -16
 1013              		.cfi_offset 8, -12
 1014              		.cfi_offset 9, -8
 1015              		.cfi_offset 14, -4
 1016 0004 0746     		mov	r7, r0
 1017 0006 8846     		mov	r8, r1
 1018 0008 1446     		mov	r4, r2
 1019 000a 1E46     		mov	r6, r3
 1020 000c BDF82090 		ldrh	r9, [sp, #32]
 1021 0010 9DF82450 		ldrb	r5, [sp, #36]	@ zero_extendqisi2
 352:Core/Src/u8g2/Src/u8g2_circle.c ****     /* upper right */
 353:Core/Src/u8g2/Src/u8g2_circle.c ****     if ( option & U8G2_DRAW_UPPER_RIGHT )
 1022              		.loc 1 353 5 is_stmt 1 view .LVU277
 1023              		.loc 1 353 8 is_stmt 0 view .LVU278
 1024 0014 15F0010F 		tst	r5, #1
 1025 0018 0AD1     		bne	.L61
 1026              	.LVL121:
 1027              	.L56:
 354:Core/Src/u8g2/Src/u8g2_circle.c ****     {
 355:Core/Src/u8g2/Src/u8g2_circle.c ****       u8g2_DrawVLine(u8g2, x0+x, y0-y, y+1);
 356:Core/Src/u8g2/Src/u8g2_circle.c ****     }
 357:Core/Src/u8g2/Src/u8g2_circle.c ****     
 358:Core/Src/u8g2/Src/u8g2_circle.c ****     /* upper left */
 359:Core/Src/u8g2/Src/u8g2_circle.c ****     if ( option & U8G2_DRAW_UPPER_LEFT )
 1028              		.loc 1 359 5 is_stmt 1 view .LVU279
 1029              		.loc 1 359 8 is_stmt 0 view .LVU280
 1030 001a 15F0020F 		tst	r5, #2
 1031 001e 11D1     		bne	.L62
 1032              	.L57:
 360:Core/Src/u8g2/Src/u8g2_circle.c ****     {
ARM GAS  C:\Users\MOROSH~1\AppData\Local\Temp\ccXJN7S2.s 			page 27


 361:Core/Src/u8g2/Src/u8g2_circle.c ****       u8g2_DrawVLine(u8g2, x0-x, y0-y, y+1);
 362:Core/Src/u8g2/Src/u8g2_circle.c ****     }
 363:Core/Src/u8g2/Src/u8g2_circle.c ****     
 364:Core/Src/u8g2/Src/u8g2_circle.c ****     /* lower right */
 365:Core/Src/u8g2/Src/u8g2_circle.c ****     if ( option & U8G2_DRAW_LOWER_RIGHT )
 1033              		.loc 1 365 5 is_stmt 1 view .LVU281
 1034              		.loc 1 365 8 is_stmt 0 view .LVU282
 1035 0020 15F0080F 		tst	r5, #8
 1036 0024 1AD1     		bne	.L63
 1037              	.L58:
 366:Core/Src/u8g2/Src/u8g2_circle.c ****     {
 367:Core/Src/u8g2/Src/u8g2_circle.c ****       u8g2_DrawVLine(u8g2, x0+x, y0, y+1);
 368:Core/Src/u8g2/Src/u8g2_circle.c ****     }
 369:Core/Src/u8g2/Src/u8g2_circle.c ****     
 370:Core/Src/u8g2/Src/u8g2_circle.c ****     /* lower left */
 371:Core/Src/u8g2/Src/u8g2_circle.c ****     if ( option & U8G2_DRAW_LOWER_LEFT )
 1038              		.loc 1 371 5 is_stmt 1 view .LVU283
 1039              		.loc 1 371 8 is_stmt 0 view .LVU284
 1040 0026 15F0040F 		tst	r5, #4
 1041 002a 21D1     		bne	.L64
 1042              	.L55:
 372:Core/Src/u8g2/Src/u8g2_circle.c ****     {
 373:Core/Src/u8g2/Src/u8g2_circle.c ****       u8g2_DrawVLine(u8g2, x0-x, y0, y+1);
 374:Core/Src/u8g2/Src/u8g2_circle.c ****     }
 375:Core/Src/u8g2/Src/u8g2_circle.c **** }
 1043              		.loc 1 375 1 view .LVU285
 1044 002c BDE8F883 		pop	{r3, r4, r5, r6, r7, r8, r9, pc}
 1045              	.LVL122:
 1046              	.L61:
 355:Core/Src/u8g2/Src/u8g2_circle.c ****     }
 1047              		.loc 1 355 7 is_stmt 1 view .LVU286
 1048 0030 531C     		adds	r3, r2, #1
 1049              	.LVL123:
 355:Core/Src/u8g2/Src/u8g2_circle.c ****     }
 1050              		.loc 1 355 7 is_stmt 0 view .LVU287
 1051 0032 A9EB0202 		sub	r2, r9, r2
 1052              	.LVL124:
 355:Core/Src/u8g2/Src/u8g2_circle.c ****     }
 1053              		.loc 1 355 7 view .LVU288
 1054 0036 7118     		adds	r1, r6, r1
 1055              	.LVL125:
 355:Core/Src/u8g2/Src/u8g2_circle.c ****     }
 1056              		.loc 1 355 7 view .LVU289
 1057 0038 9BB2     		uxth	r3, r3
 1058 003a 92B2     		uxth	r2, r2
 1059 003c 89B2     		uxth	r1, r1
 1060 003e FFF7FEFF 		bl	u8g2_DrawVLine
 1061              	.LVL126:
 355:Core/Src/u8g2/Src/u8g2_circle.c ****     }
 1062              		.loc 1 355 7 view .LVU290
 1063 0042 EAE7     		b	.L56
 1064              	.L62:
 361:Core/Src/u8g2/Src/u8g2_circle.c ****     }
 1065              		.loc 1 361 7 is_stmt 1 view .LVU291
 1066 0044 631C     		adds	r3, r4, #1
 1067 0046 A9EB0402 		sub	r2, r9, r4
 1068 004a A6EB0801 		sub	r1, r6, r8
ARM GAS  C:\Users\MOROSH~1\AppData\Local\Temp\ccXJN7S2.s 			page 28


 1069 004e 9BB2     		uxth	r3, r3
 1070 0050 92B2     		uxth	r2, r2
 1071 0052 89B2     		uxth	r1, r1
 1072 0054 3846     		mov	r0, r7
 1073 0056 FFF7FEFF 		bl	u8g2_DrawVLine
 1074              	.LVL127:
 1075 005a E1E7     		b	.L57
 1076              	.L63:
 367:Core/Src/u8g2/Src/u8g2_circle.c ****     }
 1077              		.loc 1 367 7 view .LVU292
 1078 005c 631C     		adds	r3, r4, #1
 1079 005e 06EB0801 		add	r1, r6, r8
 1080 0062 9BB2     		uxth	r3, r3
 1081 0064 4A46     		mov	r2, r9
 1082 0066 89B2     		uxth	r1, r1
 1083 0068 3846     		mov	r0, r7
 1084 006a FFF7FEFF 		bl	u8g2_DrawVLine
 1085              	.LVL128:
 1086 006e DAE7     		b	.L58
 1087              	.L64:
 373:Core/Src/u8g2/Src/u8g2_circle.c ****     }
 1088              		.loc 1 373 7 view .LVU293
 1089 0070 631C     		adds	r3, r4, #1
 1090 0072 A6EB0801 		sub	r1, r6, r8
 1091 0076 9BB2     		uxth	r3, r3
 1092 0078 4A46     		mov	r2, r9
 1093 007a 89B2     		uxth	r1, r1
 1094 007c 3846     		mov	r0, r7
 1095 007e FFF7FEFF 		bl	u8g2_DrawVLine
 1096              	.LVL129:
 1097              		.loc 1 375 1 is_stmt 0 view .LVU294
 1098 0082 D3E7     		b	.L55
 1099              		.cfi_endproc
 1100              	.LFE9:
 1102              		.section	.text.u8g2_draw_filled_ellipse,"ax",%progbits
 1103              		.align	1
 1104              		.syntax unified
 1105              		.thumb
 1106              		.thumb_func
 1108              	u8g2_draw_filled_ellipse:
 1109              	.LVL130:
 1110              	.LFB10:
 376:Core/Src/u8g2/Src/u8g2_circle.c **** 
 377:Core/Src/u8g2/Src/u8g2_circle.c **** static void u8g2_draw_filled_ellipse(u8g2_t *u8g2, u8g2_uint_t x0, u8g2_uint_t y0, u8g2_uint_t rx, 
 378:Core/Src/u8g2/Src/u8g2_circle.c **** {
 1111              		.loc 1 378 1 is_stmt 1 view -0
 1112              		.cfi_startproc
 1113              		@ args = 8, pretend = 0, frame = 40
 1114              		@ frame_needed = 0, uses_anonymous_args = 0
 1115              		.loc 1 378 1 is_stmt 0 view .LVU296
 1116 0000 2DE9F04F 		push	{r4, r5, r6, r7, r8, r9, r10, fp, lr}
 1117              	.LCFI13:
 1118              		.cfi_def_cfa_offset 36
 1119              		.cfi_offset 4, -36
 1120              		.cfi_offset 5, -32
 1121              		.cfi_offset 6, -28
 1122              		.cfi_offset 7, -24
ARM GAS  C:\Users\MOROSH~1\AppData\Local\Temp\ccXJN7S2.s 			page 29


 1123              		.cfi_offset 8, -20
 1124              		.cfi_offset 9, -16
 1125              		.cfi_offset 10, -12
 1126              		.cfi_offset 11, -8
 1127              		.cfi_offset 14, -4
 1128 0004 8DB0     		sub	sp, sp, #52
 1129              	.LCFI14:
 1130              		.cfi_def_cfa_offset 88
 1131 0006 0590     		str	r0, [sp, #20]
 1132 0008 0691     		str	r1, [sp, #24]
 1133 000a 0792     		str	r2, [sp, #28]
 1134 000c 1D46     		mov	r5, r3
 1135 000e BDF85830 		ldrh	r3, [sp, #88]
 1136              	.LVL131:
 1137              		.loc 1 378 1 view .LVU297
 1138 0012 0493     		str	r3, [sp, #16]
 1139 0014 9DF85C20 		ldrb	r2, [sp, #92]	@ zero_extendqisi2
 1140              	.LVL132:
 1141              		.loc 1 378 1 view .LVU298
 1142 0018 0892     		str	r2, [sp, #32]
 379:Core/Src/u8g2/Src/u8g2_circle.c ****   u8g2_uint_t x, y;
 1143              		.loc 1 379 3 is_stmt 1 view .LVU299
 380:Core/Src/u8g2/Src/u8g2_circle.c ****   u8g2_long_t xchg, ychg;
 1144              		.loc 1 380 3 view .LVU300
 381:Core/Src/u8g2/Src/u8g2_circle.c ****   u8g2_long_t err;
 1145              		.loc 1 381 3 view .LVU301
 382:Core/Src/u8g2/Src/u8g2_circle.c ****   u8g2_long_t rxrx2;
 1146              		.loc 1 382 3 view .LVU302
 383:Core/Src/u8g2/Src/u8g2_circle.c ****   u8g2_long_t ryry2;
 1147              		.loc 1 383 3 view .LVU303
 384:Core/Src/u8g2/Src/u8g2_circle.c ****   u8g2_long_t stopx, stopy;
 1148              		.loc 1 384 3 view .LVU304
 385:Core/Src/u8g2/Src/u8g2_circle.c ****   
 386:Core/Src/u8g2/Src/u8g2_circle.c ****   rxrx2 = rx;
 1149              		.loc 1 386 3 view .LVU305
 1150              		.loc 1 386 9 is_stmt 0 view .LVU306
 1151 001a 0995     		str	r5, [sp, #36]
 1152              	.LVL133:
 387:Core/Src/u8g2/Src/u8g2_circle.c ****   rxrx2 *= rx;
 1153              		.loc 1 387 3 is_stmt 1 view .LVU307
 1154              		.loc 1 387 9 is_stmt 0 view .LVU308
 1155 001c 05FB05FB 		mul	fp, r5, r5
 1156              	.LVL134:
 388:Core/Src/u8g2/Src/u8g2_circle.c ****   rxrx2 *= 2;
 1157              		.loc 1 388 3 is_stmt 1 view .LVU309
 1158              		.loc 1 388 9 is_stmt 0 view .LVU310
 1159 0020 4FEA4B08 		lsl	r8, fp, #1
 1160              	.LVL135:
 389:Core/Src/u8g2/Src/u8g2_circle.c ****   
 390:Core/Src/u8g2/Src/u8g2_circle.c ****   ryry2 = ry;
 1161              		.loc 1 390 3 is_stmt 1 view .LVU311
 1162              		.loc 1 390 9 is_stmt 0 view .LVU312
 1163 0024 0A93     		str	r3, [sp, #40]
 1164              	.LVL136:
 391:Core/Src/u8g2/Src/u8g2_circle.c ****   ryry2 *= ry;
 1165              		.loc 1 391 3 is_stmt 1 view .LVU313
 1166              		.loc 1 391 9 is_stmt 0 view .LVU314
ARM GAS  C:\Users\MOROSH~1\AppData\Local\Temp\ccXJN7S2.s 			page 30


 1167 0026 03FB03FA 		mul	r10, r3, r3
 1168              	.LVL137:
 392:Core/Src/u8g2/Src/u8g2_circle.c ****   ryry2 *= 2;
 1169              		.loc 1 392 3 is_stmt 1 view .LVU315
 1170              		.loc 1 392 9 is_stmt 0 view .LVU316
 1171 002a 4FEA4A09 		lsl	r9, r10, #1
 1172              	.LVL138:
 393:Core/Src/u8g2/Src/u8g2_circle.c ****   
 394:Core/Src/u8g2/Src/u8g2_circle.c ****   x = rx;
 1173              		.loc 1 394 3 is_stmt 1 view .LVU317
 395:Core/Src/u8g2/Src/u8g2_circle.c ****   y = 0;
 1174              		.loc 1 395 3 view .LVU318
 396:Core/Src/u8g2/Src/u8g2_circle.c ****   
 397:Core/Src/u8g2/Src/u8g2_circle.c ****   xchg = 1;
 1175              		.loc 1 397 3 view .LVU319
 398:Core/Src/u8g2/Src/u8g2_circle.c ****   xchg -= rx;
 1176              		.loc 1 398 3 view .LVU320
 1177              		.loc 1 398 8 is_stmt 0 view .LVU321
 1178 002e C5F10107 		rsb	r7, r5, #1
 1179              	.LVL139:
 399:Core/Src/u8g2/Src/u8g2_circle.c ****   xchg -= rx;
 1180              		.loc 1 399 3 is_stmt 1 view .LVU322
 1181              		.loc 1 399 8 is_stmt 0 view .LVU323
 1182 0032 7F1B     		subs	r7, r7, r5
 1183              	.LVL140:
 400:Core/Src/u8g2/Src/u8g2_circle.c ****   xchg *= ry;
 1184              		.loc 1 400 3 is_stmt 1 view .LVU324
 1185              		.loc 1 400 8 is_stmt 0 view .LVU325
 1186 0034 03FB07F7 		mul	r7, r3, r7
 1187              	.LVL141:
 401:Core/Src/u8g2/Src/u8g2_circle.c ****   xchg *= ry;
 1188              		.loc 1 401 3 is_stmt 1 view .LVU326
 1189              		.loc 1 401 8 is_stmt 0 view .LVU327
 1190 0038 07FB03F3 		mul	r3, r7, r3
 1191              	.LVL142:
 402:Core/Src/u8g2/Src/u8g2_circle.c ****   
 403:Core/Src/u8g2/Src/u8g2_circle.c ****   ychg = rx;
 1192              		.loc 1 403 3 is_stmt 1 view .LVU328
 404:Core/Src/u8g2/Src/u8g2_circle.c ****   ychg *= rx;
 1193              		.loc 1 404 3 view .LVU329
 405:Core/Src/u8g2/Src/u8g2_circle.c ****   
 406:Core/Src/u8g2/Src/u8g2_circle.c ****   err = 0;
 1194              		.loc 1 406 3 view .LVU330
 407:Core/Src/u8g2/Src/u8g2_circle.c ****   
 408:Core/Src/u8g2/Src/u8g2_circle.c ****   stopx = ryry2;
 1195              		.loc 1 408 3 view .LVU331
 409:Core/Src/u8g2/Src/u8g2_circle.c ****   stopx *= rx;
 1196              		.loc 1 409 3 view .LVU332
 1197              		.loc 1 409 9 is_stmt 0 view .LVU333
 1198 003c 09FB05F2 		mul	r2, r9, r5
 1199 0040 0392     		str	r2, [sp, #12]
 1200              	.LVL143:
 410:Core/Src/u8g2/Src/u8g2_circle.c ****   stopy = 0;
 1201              		.loc 1 410 3 is_stmt 1 view .LVU334
 411:Core/Src/u8g2/Src/u8g2_circle.c ****   
 412:Core/Src/u8g2/Src/u8g2_circle.c ****   while( stopx >= stopy )
 1202              		.loc 1 412 3 view .LVU335
ARM GAS  C:\Users\MOROSH~1\AppData\Local\Temp\ccXJN7S2.s 			page 31


 410:Core/Src/u8g2/Src/u8g2_circle.c ****   stopy = 0;
 1203              		.loc 1 410 9 is_stmt 0 view .LVU336
 1204 0042 0027     		movs	r7, #0
 406:Core/Src/u8g2/Src/u8g2_circle.c ****   
 1205              		.loc 1 406 7 view .LVU337
 1206 0044 3E46     		mov	r6, r7
 395:Core/Src/u8g2/Src/u8g2_circle.c ****   
 1207              		.loc 1 395 5 view .LVU338
 1208 0046 3C46     		mov	r4, r7
 1209 0048 CDF82CA0 		str	r10, [sp, #44]
 1210 004c 9A46     		mov	r10, r3
 1211              	.LVL144:
 1212              	.L66:
 1213              		.loc 1 412 8 is_stmt 1 view .LVU339
 1214 004e 039B     		ldr	r3, [sp, #12]
 1215 0050 BB42     		cmp	r3, r7
 1216 0052 1BDB     		blt	.L73
 413:Core/Src/u8g2/Src/u8g2_circle.c ****   {
 414:Core/Src/u8g2/Src/u8g2_circle.c ****     u8g2_draw_filled_ellipse_section(u8g2, x, y, x0, y0, option);
 1217              		.loc 1 414 5 view .LVU340
 1218 0054 089B     		ldr	r3, [sp, #32]
 1219 0056 0193     		str	r3, [sp, #4]
 1220 0058 079B     		ldr	r3, [sp, #28]
 1221 005a 0093     		str	r3, [sp]
 1222 005c 069B     		ldr	r3, [sp, #24]
 1223 005e 2246     		mov	r2, r4
 1224 0060 2946     		mov	r1, r5
 1225 0062 0598     		ldr	r0, [sp, #20]
 1226 0064 FFF7FEFF 		bl	u8g2_draw_filled_ellipse_section
 1227              	.LVL145:
 415:Core/Src/u8g2/Src/u8g2_circle.c ****     y++;
 1228              		.loc 1 415 5 view .LVU341
 1229              		.loc 1 415 6 is_stmt 0 view .LVU342
 1230 0068 0134     		adds	r4, r4, #1
 1231              	.LVL146:
 1232              		.loc 1 415 6 view .LVU343
 1233 006a A4B2     		uxth	r4, r4
 1234              	.LVL147:
 416:Core/Src/u8g2/Src/u8g2_circle.c ****     stopy += rxrx2;
 1235              		.loc 1 416 5 is_stmt 1 view .LVU344
 1236              		.loc 1 416 11 is_stmt 0 view .LVU345
 1237 006c 4744     		add	r7, r7, r8
 1238              	.LVL148:
 417:Core/Src/u8g2/Src/u8g2_circle.c ****     err += ychg;
 1239              		.loc 1 417 5 is_stmt 1 view .LVU346
 1240              		.loc 1 417 9 is_stmt 0 view .LVU347
 1241 006e 5E44     		add	r6, r6, fp
 1242              	.LVL149:
 418:Core/Src/u8g2/Src/u8g2_circle.c ****     ychg += rxrx2;
 1243              		.loc 1 418 5 is_stmt 1 view .LVU348
 1244              		.loc 1 418 10 is_stmt 0 view .LVU349
 1245 0070 C344     		add	fp, fp, r8
 1246              	.LVL150:
 419:Core/Src/u8g2/Src/u8g2_circle.c ****     if ( 2*err+xchg > 0 )
 1247              		.loc 1 419 5 is_stmt 1 view .LVU350
 1248              		.loc 1 419 15 is_stmt 0 view .LVU351
 1249 0072 0AEB4603 		add	r3, r10, r6, lsl #1
ARM GAS  C:\Users\MOROSH~1\AppData\Local\Temp\ccXJN7S2.s 			page 32


 1250              		.loc 1 419 8 view .LVU352
 1251 0076 002B     		cmp	r3, #0
 1252 0078 E9DD     		ble	.L66
 420:Core/Src/u8g2/Src/u8g2_circle.c ****     {
 421:Core/Src/u8g2/Src/u8g2_circle.c ****       x--;
 1253              		.loc 1 421 7 is_stmt 1 view .LVU353
 1254              		.loc 1 421 8 is_stmt 0 view .LVU354
 1255 007a 013D     		subs	r5, r5, #1
 1256              	.LVL151:
 1257              		.loc 1 421 8 view .LVU355
 1258 007c ADB2     		uxth	r5, r5
 1259              	.LVL152:
 422:Core/Src/u8g2/Src/u8g2_circle.c ****       stopx -= ryry2;
 1260              		.loc 1 422 7 is_stmt 1 view .LVU356
 1261              		.loc 1 422 13 is_stmt 0 view .LVU357
 1262 007e 039B     		ldr	r3, [sp, #12]
 1263 0080 A3EB0903 		sub	r3, r3, r9
 1264 0084 0393     		str	r3, [sp, #12]
 1265              	.LVL153:
 423:Core/Src/u8g2/Src/u8g2_circle.c ****       err += xchg;
 1266              		.loc 1 423 7 is_stmt 1 view .LVU358
 1267              		.loc 1 423 11 is_stmt 0 view .LVU359
 1268 0086 5644     		add	r6, r6, r10
 1269              	.LVL154:
 424:Core/Src/u8g2/Src/u8g2_circle.c ****       xchg += ryry2;      
 1270              		.loc 1 424 7 is_stmt 1 view .LVU360
 1271              		.loc 1 424 12 is_stmt 0 view .LVU361
 1272 0088 CA44     		add	r10, r10, r9
 1273              	.LVL155:
 1274              		.loc 1 424 12 view .LVU362
 1275 008a E0E7     		b	.L66
 1276              	.L73:
 425:Core/Src/u8g2/Src/u8g2_circle.c ****     }
 426:Core/Src/u8g2/Src/u8g2_circle.c ****   }
 427:Core/Src/u8g2/Src/u8g2_circle.c **** 
 428:Core/Src/u8g2/Src/u8g2_circle.c ****   x = 0;
 429:Core/Src/u8g2/Src/u8g2_circle.c ****   y = ry;
 430:Core/Src/u8g2/Src/u8g2_circle.c ****   
 431:Core/Src/u8g2/Src/u8g2_circle.c ****   xchg = ry;
 432:Core/Src/u8g2/Src/u8g2_circle.c ****   xchg *= ry;
 433:Core/Src/u8g2/Src/u8g2_circle.c ****   
 434:Core/Src/u8g2/Src/u8g2_circle.c ****   ychg = 1;
 435:Core/Src/u8g2/Src/u8g2_circle.c ****   ychg -= ry;
 1277              		.loc 1 435 8 view .LVU363
 1278 008c DDF82CA0 		ldr	r10, [sp, #44]
 1279              	.LVL156:
 428:Core/Src/u8g2/Src/u8g2_circle.c ****   y = ry;
 1280              		.loc 1 428 3 is_stmt 1 view .LVU364
 429:Core/Src/u8g2/Src/u8g2_circle.c ****   
 1281              		.loc 1 429 3 view .LVU365
 431:Core/Src/u8g2/Src/u8g2_circle.c ****   xchg *= ry;
 1282              		.loc 1 431 3 view .LVU366
 432:Core/Src/u8g2/Src/u8g2_circle.c ****   
 1283              		.loc 1 432 3 view .LVU367
 434:Core/Src/u8g2/Src/u8g2_circle.c ****   ychg -= ry;
 1284              		.loc 1 434 3 view .LVU368
 1285              		.loc 1 435 3 view .LVU369
ARM GAS  C:\Users\MOROSH~1\AppData\Local\Temp\ccXJN7S2.s 			page 33


 1286              		.loc 1 435 8 is_stmt 0 view .LVU370
 1287 0090 0A9B     		ldr	r3, [sp, #40]
 1288              	.LVL157:
 1289              		.loc 1 435 8 view .LVU371
 1290 0092 C3F10106 		rsb	r6, r3, #1
 1291              	.LVL158:
 436:Core/Src/u8g2/Src/u8g2_circle.c ****   ychg -= ry;
 1292              		.loc 1 436 3 is_stmt 1 view .LVU372
 1293              		.loc 1 436 8 is_stmt 0 view .LVU373
 1294 0096 F61A     		subs	r6, r6, r3
 1295              	.LVL159:
 437:Core/Src/u8g2/Src/u8g2_circle.c ****   ychg *= rx;
 1296              		.loc 1 437 3 is_stmt 1 view .LVU374
 1297              		.loc 1 437 8 is_stmt 0 view .LVU375
 1298 0098 099A     		ldr	r2, [sp, #36]
 1299 009a 02FB06F6 		mul	r6, r2, r6
 1300              	.LVL160:
 438:Core/Src/u8g2/Src/u8g2_circle.c ****   ychg *= rx;
 1301              		.loc 1 438 3 is_stmt 1 view .LVU376
 1302              		.loc 1 438 8 is_stmt 0 view .LVU377
 1303 009e 02FB06F6 		mul	r6, r2, r6
 1304              	.LVL161:
 439:Core/Src/u8g2/Src/u8g2_circle.c ****   
 440:Core/Src/u8g2/Src/u8g2_circle.c ****   err = 0;
 1305              		.loc 1 440 3 is_stmt 1 view .LVU378
 441:Core/Src/u8g2/Src/u8g2_circle.c ****   
 442:Core/Src/u8g2/Src/u8g2_circle.c ****   stopx = 0;
 1306              		.loc 1 442 3 view .LVU379
 443:Core/Src/u8g2/Src/u8g2_circle.c **** 
 444:Core/Src/u8g2/Src/u8g2_circle.c ****   stopy = rxrx2;
 1307              		.loc 1 444 3 view .LVU380
 445:Core/Src/u8g2/Src/u8g2_circle.c ****   stopy *= ry;
 1308              		.loc 1 445 3 view .LVU381
 1309              		.loc 1 445 9 is_stmt 0 view .LVU382
 1310 00a2 03FB08FB 		mul	fp, r3, r8
 1311              	.LVL162:
 446:Core/Src/u8g2/Src/u8g2_circle.c ****   
 447:Core/Src/u8g2/Src/u8g2_circle.c **** 
 448:Core/Src/u8g2/Src/u8g2_circle.c ****   while( stopx <= stopy )
 1312              		.loc 1 448 3 is_stmt 1 view .LVU383
 442:Core/Src/u8g2/Src/u8g2_circle.c **** 
 1313              		.loc 1 442 9 is_stmt 0 view .LVU384
 1314 00a6 0027     		movs	r7, #0
 440:Core/Src/u8g2/Src/u8g2_circle.c ****   
 1315              		.loc 1 440 7 view .LVU385
 1316 00a8 3D46     		mov	r5, r7
 428:Core/Src/u8g2/Src/u8g2_circle.c ****   y = ry;
 1317              		.loc 1 428 5 view .LVU386
 1318 00aa 3C46     		mov	r4, r7
 1319              	.LVL163:
 1320              	.L69:
 1321              		.loc 1 448 8 is_stmt 1 view .LVU387
 1322 00ac 5F45     		cmp	r7, fp
 1323 00ae 1BDC     		bgt	.L74
 449:Core/Src/u8g2/Src/u8g2_circle.c ****   {
 450:Core/Src/u8g2/Src/u8g2_circle.c ****     u8g2_draw_filled_ellipse_section(u8g2, x, y, x0, y0, option);
 1324              		.loc 1 450 5 view .LVU388
ARM GAS  C:\Users\MOROSH~1\AppData\Local\Temp\ccXJN7S2.s 			page 34


 1325 00b0 089B     		ldr	r3, [sp, #32]
 1326 00b2 0193     		str	r3, [sp, #4]
 1327 00b4 079B     		ldr	r3, [sp, #28]
 1328 00b6 0093     		str	r3, [sp]
 1329 00b8 069B     		ldr	r3, [sp, #24]
 1330 00ba 049A     		ldr	r2, [sp, #16]
 1331 00bc 2146     		mov	r1, r4
 1332 00be 0598     		ldr	r0, [sp, #20]
 1333 00c0 FFF7FEFF 		bl	u8g2_draw_filled_ellipse_section
 1334              	.LVL164:
 451:Core/Src/u8g2/Src/u8g2_circle.c ****     x++;
 1335              		.loc 1 451 5 view .LVU389
 1336              		.loc 1 451 6 is_stmt 0 view .LVU390
 1337 00c4 0134     		adds	r4, r4, #1
 1338              	.LVL165:
 1339              		.loc 1 451 6 view .LVU391
 1340 00c6 A4B2     		uxth	r4, r4
 1341              	.LVL166:
 452:Core/Src/u8g2/Src/u8g2_circle.c ****     stopx += ryry2;
 1342              		.loc 1 452 5 is_stmt 1 view .LVU392
 1343              		.loc 1 452 11 is_stmt 0 view .LVU393
 1344 00c8 4F44     		add	r7, r7, r9
 1345              	.LVL167:
 453:Core/Src/u8g2/Src/u8g2_circle.c ****     err += xchg;
 1346              		.loc 1 453 5 is_stmt 1 view .LVU394
 1347              		.loc 1 453 9 is_stmt 0 view .LVU395
 1348 00ca 5544     		add	r5, r5, r10
 1349              	.LVL168:
 454:Core/Src/u8g2/Src/u8g2_circle.c ****     xchg += ryry2;
 1350              		.loc 1 454 5 is_stmt 1 view .LVU396
 1351              		.loc 1 454 10 is_stmt 0 view .LVU397
 1352 00cc CA44     		add	r10, r10, r9
 1353              	.LVL169:
 455:Core/Src/u8g2/Src/u8g2_circle.c ****     if ( 2*err+ychg > 0 )
 1354              		.loc 1 455 5 is_stmt 1 view .LVU398
 1355              		.loc 1 455 15 is_stmt 0 view .LVU399
 1356 00ce 06EB4503 		add	r3, r6, r5, lsl #1
 1357              		.loc 1 455 8 view .LVU400
 1358 00d2 002B     		cmp	r3, #0
 1359 00d4 EADD     		ble	.L69
 456:Core/Src/u8g2/Src/u8g2_circle.c ****     {
 457:Core/Src/u8g2/Src/u8g2_circle.c ****       y--;
 1360              		.loc 1 457 7 is_stmt 1 view .LVU401
 1361              		.loc 1 457 8 is_stmt 0 view .LVU402
 1362 00d6 049B     		ldr	r3, [sp, #16]
 1363 00d8 013B     		subs	r3, r3, #1
 1364 00da 9BB2     		uxth	r3, r3
 1365 00dc 0493     		str	r3, [sp, #16]
 1366              	.LVL170:
 458:Core/Src/u8g2/Src/u8g2_circle.c ****       stopy -= rxrx2;
 1367              		.loc 1 458 7 is_stmt 1 view .LVU403
 1368              		.loc 1 458 13 is_stmt 0 view .LVU404
 1369 00de ABEB080B 		sub	fp, fp, r8
 1370              	.LVL171:
 459:Core/Src/u8g2/Src/u8g2_circle.c ****       err += ychg;
 1371              		.loc 1 459 7 is_stmt 1 view .LVU405
 1372              		.loc 1 459 11 is_stmt 0 view .LVU406
ARM GAS  C:\Users\MOROSH~1\AppData\Local\Temp\ccXJN7S2.s 			page 35


 1373 00e2 3544     		add	r5, r5, r6
 1374              	.LVL172:
 460:Core/Src/u8g2/Src/u8g2_circle.c ****       ychg += rxrx2;
 1375              		.loc 1 460 7 is_stmt 1 view .LVU407
 1376              		.loc 1 460 12 is_stmt 0 view .LVU408
 1377 00e4 4644     		add	r6, r6, r8
 1378              	.LVL173:
 1379              		.loc 1 460 12 view .LVU409
 1380 00e6 E1E7     		b	.L69
 1381              	.L74:
 461:Core/Src/u8g2/Src/u8g2_circle.c ****     }
 462:Core/Src/u8g2/Src/u8g2_circle.c ****   }
 463:Core/Src/u8g2/Src/u8g2_circle.c ****   
 464:Core/Src/u8g2/Src/u8g2_circle.c **** }
 1382              		.loc 1 464 1 view .LVU410
 1383 00e8 0DB0     		add	sp, sp, #52
 1384              	.LCFI15:
 1385              		.cfi_def_cfa_offset 36
 1386              		@ sp needed
 1387 00ea BDE8F08F 		pop	{r4, r5, r6, r7, r8, r9, r10, fp, pc}
 1388              		.loc 1 464 1 view .LVU411
 1389              		.cfi_endproc
 1390              	.LFE10:
 1392              		.section	.text.u8g2_DrawCircle,"ax",%progbits
 1393              		.align	1
 1394              		.global	u8g2_DrawCircle
 1395              		.syntax unified
 1396              		.thumb
 1397              		.thumb_func
 1399              	u8g2_DrawCircle:
 1400              	.LVL174:
 1401              	.LFB2:
 110:Core/Src/u8g2/Src/u8g2_circle.c ****   /* check for bounding box */
 1402              		.loc 1 110 1 is_stmt 1 view -0
 1403              		.cfi_startproc
 1404              		@ args = 4, pretend = 0, frame = 0
 1405              		@ frame_needed = 0, uses_anonymous_args = 0
 110:Core/Src/u8g2/Src/u8g2_circle.c ****   /* check for bounding box */
 1406              		.loc 1 110 1 is_stmt 0 view .LVU413
 1407 0000 2DE9F041 		push	{r4, r5, r6, r7, r8, lr}
 1408              	.LCFI16:
 1409              		.cfi_def_cfa_offset 24
 1410              		.cfi_offset 4, -24
 1411              		.cfi_offset 5, -20
 1412              		.cfi_offset 6, -16
 1413              		.cfi_offset 7, -12
 1414              		.cfi_offset 8, -8
 1415              		.cfi_offset 14, -4
 1416 0004 82B0     		sub	sp, sp, #8
 1417              	.LCFI17:
 1418              		.cfi_def_cfa_offset 32
 1419 0006 8046     		mov	r8, r0
 1420 0008 0E46     		mov	r6, r1
 1421 000a 1746     		mov	r7, r2
 1422 000c 1D46     		mov	r5, r3
 114:Core/Src/u8g2/Src/u8g2_circle.c ****       return;
 1423              		.loc 1 114 5 is_stmt 1 view .LVU414
ARM GAS  C:\Users\MOROSH~1\AppData\Local\Temp\ccXJN7S2.s 			page 36


 114:Core/Src/u8g2/Src/u8g2_circle.c ****       return;
 1424              		.loc 1 114 54 is_stmt 0 view .LVU415
 1425 000e CB18     		adds	r3, r1, r3
 1426              	.LVL175:
 114:Core/Src/u8g2/Src/u8g2_circle.c ****       return;
 1427              		.loc 1 114 54 view .LVU416
 1428 0010 9BB2     		uxth	r3, r3
 114:Core/Src/u8g2/Src/u8g2_circle.c ****       return;
 1429              		.loc 1 114 64 view .LVU417
 1430 0012 AC18     		adds	r4, r5, r2
 1431 0014 A4B2     		uxth	r4, r4
 114:Core/Src/u8g2/Src/u8g2_circle.c ****       return;
 1432              		.loc 1 114 10 view .LVU418
 1433 0016 0133     		adds	r3, r3, #1
 1434 0018 521B     		subs	r2, r2, r5
 1435              	.LVL176:
 114:Core/Src/u8g2/Src/u8g2_circle.c ****       return;
 1436              		.loc 1 114 10 view .LVU419
 1437 001a 491B     		subs	r1, r1, r5
 1438              	.LVL177:
 114:Core/Src/u8g2/Src/u8g2_circle.c ****       return;
 1439              		.loc 1 114 10 view .LVU420
 1440 001c 0134     		adds	r4, r4, #1
 1441 001e A4B2     		uxth	r4, r4
 1442 0020 0094     		str	r4, [sp]
 1443 0022 9BB2     		uxth	r3, r3
 1444 0024 92B2     		uxth	r2, r2
 1445 0026 89B2     		uxth	r1, r1
 1446 0028 FFF7FEFF 		bl	u8g2_IsIntersection
 1447              	.LVL178:
 114:Core/Src/u8g2/Src/u8g2_circle.c ****       return;
 1448              		.loc 1 114 8 view .LVU421
 1449 002c 10B9     		cbnz	r0, .L78
 1450              	.L75:
 122:Core/Src/u8g2/Src/u8g2_circle.c **** 
 1451              		.loc 1 122 1 view .LVU422
 1452 002e 02B0     		add	sp, sp, #8
 1453              	.LCFI18:
 1454              		.cfi_remember_state
 1455              		.cfi_def_cfa_offset 24
 1456              		@ sp needed
 1457 0030 BDE8F081 		pop	{r4, r5, r6, r7, r8, pc}
 1458              	.LVL179:
 1459              	.L78:
 1460              	.LCFI19:
 1461              		.cfi_restore_state
 121:Core/Src/u8g2/Src/u8g2_circle.c **** }
 1462              		.loc 1 121 3 is_stmt 1 view .LVU423
 1463 0034 9DF82030 		ldrb	r3, [sp, #32]	@ zero_extendqisi2
 1464 0038 0093     		str	r3, [sp]
 1465 003a 2B46     		mov	r3, r5
 1466 003c 3A46     		mov	r2, r7
 1467 003e 3146     		mov	r1, r6
 1468 0040 4046     		mov	r0, r8
 1469 0042 FFF7FEFF 		bl	u8g2_draw_circle
 1470              	.LVL180:
 1471 0046 F2E7     		b	.L75
ARM GAS  C:\Users\MOROSH~1\AppData\Local\Temp\ccXJN7S2.s 			page 37


 1472              		.cfi_endproc
 1473              	.LFE2:
 1475              		.section	.text.u8g2_DrawDisc,"ax",%progbits
 1476              		.align	1
 1477              		.global	u8g2_DrawDisc
 1478              		.syntax unified
 1479              		.thumb
 1480              		.thumb_func
 1482              	u8g2_DrawDisc:
 1483              	.LVL181:
 1484              	.LFB5:
 196:Core/Src/u8g2/Src/u8g2_circle.c ****   /* check for bounding box */
 1485              		.loc 1 196 1 view -0
 1486              		.cfi_startproc
 1487              		@ args = 4, pretend = 0, frame = 0
 1488              		@ frame_needed = 0, uses_anonymous_args = 0
 196:Core/Src/u8g2/Src/u8g2_circle.c ****   /* check for bounding box */
 1489              		.loc 1 196 1 is_stmt 0 view .LVU425
 1490 0000 2DE9F041 		push	{r4, r5, r6, r7, r8, lr}
 1491              	.LCFI20:
 1492              		.cfi_def_cfa_offset 24
 1493              		.cfi_offset 4, -24
 1494              		.cfi_offset 5, -20
 1495              		.cfi_offset 6, -16
 1496              		.cfi_offset 7, -12
 1497              		.cfi_offset 8, -8
 1498              		.cfi_offset 14, -4
 1499 0004 82B0     		sub	sp, sp, #8
 1500              	.LCFI21:
 1501              		.cfi_def_cfa_offset 32
 1502 0006 8046     		mov	r8, r0
 1503 0008 0E46     		mov	r6, r1
 1504 000a 1746     		mov	r7, r2
 1505 000c 1D46     		mov	r5, r3
 200:Core/Src/u8g2/Src/u8g2_circle.c ****       return;
 1506              		.loc 1 200 5 is_stmt 1 view .LVU426
 200:Core/Src/u8g2/Src/u8g2_circle.c ****       return;
 1507              		.loc 1 200 54 is_stmt 0 view .LVU427
 1508 000e CB18     		adds	r3, r1, r3
 1509              	.LVL182:
 200:Core/Src/u8g2/Src/u8g2_circle.c ****       return;
 1510              		.loc 1 200 54 view .LVU428
 1511 0010 9BB2     		uxth	r3, r3
 200:Core/Src/u8g2/Src/u8g2_circle.c ****       return;
 1512              		.loc 1 200 64 view .LVU429
 1513 0012 AC18     		adds	r4, r5, r2
 1514 0014 A4B2     		uxth	r4, r4
 200:Core/Src/u8g2/Src/u8g2_circle.c ****       return;
 1515              		.loc 1 200 10 view .LVU430
 1516 0016 0133     		adds	r3, r3, #1
 1517 0018 521B     		subs	r2, r2, r5
 1518              	.LVL183:
 200:Core/Src/u8g2/Src/u8g2_circle.c ****       return;
 1519              		.loc 1 200 10 view .LVU431
 1520 001a 491B     		subs	r1, r1, r5
 1521              	.LVL184:
 200:Core/Src/u8g2/Src/u8g2_circle.c ****       return;
ARM GAS  C:\Users\MOROSH~1\AppData\Local\Temp\ccXJN7S2.s 			page 38


 1522              		.loc 1 200 10 view .LVU432
 1523 001c 0134     		adds	r4, r4, #1
 1524 001e A4B2     		uxth	r4, r4
 1525 0020 0094     		str	r4, [sp]
 1526 0022 9BB2     		uxth	r3, r3
 1527 0024 92B2     		uxth	r2, r2
 1528 0026 89B2     		uxth	r1, r1
 1529 0028 FFF7FEFF 		bl	u8g2_IsIntersection
 1530              	.LVL185:
 200:Core/Src/u8g2/Src/u8g2_circle.c ****       return;
 1531              		.loc 1 200 8 view .LVU433
 1532 002c 10B9     		cbnz	r0, .L82
 1533              	.L79:
 207:Core/Src/u8g2/Src/u8g2_circle.c **** 
 1534              		.loc 1 207 1 view .LVU434
 1535 002e 02B0     		add	sp, sp, #8
 1536              	.LCFI22:
 1537              		.cfi_remember_state
 1538              		.cfi_def_cfa_offset 24
 1539              		@ sp needed
 1540 0030 BDE8F081 		pop	{r4, r5, r6, r7, r8, pc}
 1541              	.LVL186:
 1542              	.L82:
 1543              	.LCFI23:
 1544              		.cfi_restore_state
 206:Core/Src/u8g2/Src/u8g2_circle.c **** }
 1545              		.loc 1 206 3 is_stmt 1 view .LVU435
 1546 0034 9DF82030 		ldrb	r3, [sp, #32]	@ zero_extendqisi2
 1547 0038 0093     		str	r3, [sp]
 1548 003a 2B46     		mov	r3, r5
 1549 003c 3A46     		mov	r2, r7
 1550 003e 3146     		mov	r1, r6
 1551 0040 4046     		mov	r0, r8
 1552 0042 FFF7FEFF 		bl	u8g2_draw_disc
 1553              	.LVL187:
 1554 0046 F2E7     		b	.L79
 1555              		.cfi_endproc
 1556              	.LFE5:
 1558              		.section	.text.u8g2_DrawEllipse,"ax",%progbits
 1559              		.align	1
 1560              		.global	u8g2_DrawEllipse
 1561              		.syntax unified
 1562              		.thumb
 1563              		.thumb_func
 1565              	u8g2_DrawEllipse:
 1566              	.LVL188:
 1567              	.LFB8:
 334:Core/Src/u8g2/Src/u8g2_circle.c ****   /* check for bounding box */
 1568              		.loc 1 334 1 view -0
 1569              		.cfi_startproc
 1570              		@ args = 8, pretend = 0, frame = 0
 1571              		@ frame_needed = 0, uses_anonymous_args = 0
 334:Core/Src/u8g2/Src/u8g2_circle.c ****   /* check for bounding box */
 1572              		.loc 1 334 1 is_stmt 0 view .LVU437
 1573 0000 2DE9F043 		push	{r4, r5, r6, r7, r8, r9, lr}
 1574              	.LCFI24:
 1575              		.cfi_def_cfa_offset 28
ARM GAS  C:\Users\MOROSH~1\AppData\Local\Temp\ccXJN7S2.s 			page 39


 1576              		.cfi_offset 4, -28
 1577              		.cfi_offset 5, -24
 1578              		.cfi_offset 6, -20
 1579              		.cfi_offset 7, -16
 1580              		.cfi_offset 8, -12
 1581              		.cfi_offset 9, -8
 1582              		.cfi_offset 14, -4
 1583 0004 83B0     		sub	sp, sp, #12
 1584              	.LCFI25:
 1585              		.cfi_def_cfa_offset 40
 1586 0006 8046     		mov	r8, r0
 1587 0008 0D46     		mov	r5, r1
 1588 000a 1646     		mov	r6, r2
 1589 000c 1F46     		mov	r7, r3
 1590 000e BDF82890 		ldrh	r9, [sp, #40]
 338:Core/Src/u8g2/Src/u8g2_circle.c ****       return;
 1591              		.loc 1 338 5 is_stmt 1 view .LVU438
 338:Core/Src/u8g2/Src/u8g2_circle.c ****       return;
 1592              		.loc 1 338 52 is_stmt 0 view .LVU439
 1593 0012 CB18     		adds	r3, r1, r3
 1594              	.LVL189:
 338:Core/Src/u8g2/Src/u8g2_circle.c ****       return;
 1595              		.loc 1 338 52 view .LVU440
 1596 0014 9BB2     		uxth	r3, r3
 338:Core/Src/u8g2/Src/u8g2_circle.c ****       return;
 1597              		.loc 1 338 61 view .LVU441
 1598 0016 02EB0904 		add	r4, r2, r9
 1599 001a A4B2     		uxth	r4, r4
 338:Core/Src/u8g2/Src/u8g2_circle.c ****       return;
 1600              		.loc 1 338 10 view .LVU442
 1601 001c 0133     		adds	r3, r3, #1
 1602 001e A2EB0902 		sub	r2, r2, r9
 1603              	.LVL190:
 338:Core/Src/u8g2/Src/u8g2_circle.c ****       return;
 1604              		.loc 1 338 10 view .LVU443
 1605 0022 C91B     		subs	r1, r1, r7
 1606              	.LVL191:
 338:Core/Src/u8g2/Src/u8g2_circle.c ****       return;
 1607              		.loc 1 338 10 view .LVU444
 1608 0024 0134     		adds	r4, r4, #1
 1609 0026 A4B2     		uxth	r4, r4
 1610 0028 0094     		str	r4, [sp]
 1611 002a 9BB2     		uxth	r3, r3
 1612 002c 92B2     		uxth	r2, r2
 1613 002e 89B2     		uxth	r1, r1
 1614 0030 FFF7FEFF 		bl	u8g2_IsIntersection
 1615              	.LVL192:
 338:Core/Src/u8g2/Src/u8g2_circle.c ****       return;
 1616              		.loc 1 338 8 view .LVU445
 1617 0034 10B9     		cbnz	r0, .L86
 1618              	.L83:
 344:Core/Src/u8g2/Src/u8g2_circle.c **** 
 1619              		.loc 1 344 1 view .LVU446
 1620 0036 03B0     		add	sp, sp, #12
 1621              	.LCFI26:
 1622              		.cfi_remember_state
 1623              		.cfi_def_cfa_offset 28
ARM GAS  C:\Users\MOROSH~1\AppData\Local\Temp\ccXJN7S2.s 			page 40


 1624              		@ sp needed
 1625 0038 BDE8F083 		pop	{r4, r5, r6, r7, r8, r9, pc}
 1626              	.LVL193:
 1627              	.L86:
 1628              	.LCFI27:
 1629              		.cfi_restore_state
 343:Core/Src/u8g2/Src/u8g2_circle.c **** }
 1630              		.loc 1 343 3 is_stmt 1 view .LVU447
 1631 003c 9DF82C30 		ldrb	r3, [sp, #44]	@ zero_extendqisi2
 1632 0040 0193     		str	r3, [sp, #4]
 1633 0042 CDF80090 		str	r9, [sp]
 1634 0046 3B46     		mov	r3, r7
 1635 0048 3246     		mov	r2, r6
 1636 004a 2946     		mov	r1, r5
 1637 004c 4046     		mov	r0, r8
 1638 004e FFF7FEFF 		bl	u8g2_draw_ellipse
 1639              	.LVL194:
 1640 0052 F0E7     		b	.L83
 1641              		.cfi_endproc
 1642              	.LFE8:
 1644              		.section	.text.u8g2_DrawFilledEllipse,"ax",%progbits
 1645              		.align	1
 1646              		.global	u8g2_DrawFilledEllipse
 1647              		.syntax unified
 1648              		.thumb
 1649              		.thumb_func
 1651              	u8g2_DrawFilledEllipse:
 1652              	.LVL195:
 1653              	.LFB11:
 465:Core/Src/u8g2/Src/u8g2_circle.c **** 
 466:Core/Src/u8g2/Src/u8g2_circle.c **** void u8g2_DrawFilledEllipse(u8g2_t *u8g2, u8g2_uint_t x0, u8g2_uint_t y0, u8g2_uint_t rx, u8g2_uint
 467:Core/Src/u8g2/Src/u8g2_circle.c **** {
 1654              		.loc 1 467 1 view -0
 1655              		.cfi_startproc
 1656              		@ args = 8, pretend = 0, frame = 0
 1657              		@ frame_needed = 0, uses_anonymous_args = 0
 1658              		.loc 1 467 1 is_stmt 0 view .LVU449
 1659 0000 2DE9F043 		push	{r4, r5, r6, r7, r8, r9, lr}
 1660              	.LCFI28:
 1661              		.cfi_def_cfa_offset 28
 1662              		.cfi_offset 4, -28
 1663              		.cfi_offset 5, -24
 1664              		.cfi_offset 6, -20
 1665              		.cfi_offset 7, -16
 1666              		.cfi_offset 8, -12
 1667              		.cfi_offset 9, -8
 1668              		.cfi_offset 14, -4
 1669 0004 83B0     		sub	sp, sp, #12
 1670              	.LCFI29:
 1671              		.cfi_def_cfa_offset 40
 1672 0006 8046     		mov	r8, r0
 1673 0008 0D46     		mov	r5, r1
 1674 000a 1646     		mov	r6, r2
 1675 000c 1F46     		mov	r7, r3
 1676 000e BDF82890 		ldrh	r9, [sp, #40]
 468:Core/Src/u8g2/Src/u8g2_circle.c ****   /* check for bounding box */
 469:Core/Src/u8g2/Src/u8g2_circle.c **** #ifdef U8G2_WITH_INTERSECTION
ARM GAS  C:\Users\MOROSH~1\AppData\Local\Temp\ccXJN7S2.s 			page 41


 470:Core/Src/u8g2/Src/u8g2_circle.c ****   {
 471:Core/Src/u8g2/Src/u8g2_circle.c ****     if ( u8g2_IsIntersection(u8g2, x0-rx, y0-ry, x0+rx+1, y0+ry+1) == 0 ) 
 1677              		.loc 1 471 5 is_stmt 1 view .LVU450
 1678              		.loc 1 471 52 is_stmt 0 view .LVU451
 1679 0012 CB18     		adds	r3, r1, r3
 1680              	.LVL196:
 1681              		.loc 1 471 52 view .LVU452
 1682 0014 9BB2     		uxth	r3, r3
 1683              		.loc 1 471 61 view .LVU453
 1684 0016 02EB0904 		add	r4, r2, r9
 1685 001a A4B2     		uxth	r4, r4
 1686              		.loc 1 471 10 view .LVU454
 1687 001c 0133     		adds	r3, r3, #1
 1688 001e A2EB0902 		sub	r2, r2, r9
 1689              	.LVL197:
 1690              		.loc 1 471 10 view .LVU455
 1691 0022 C91B     		subs	r1, r1, r7
 1692              	.LVL198:
 1693              		.loc 1 471 10 view .LVU456
 1694 0024 0134     		adds	r4, r4, #1
 1695 0026 A4B2     		uxth	r4, r4
 1696 0028 0094     		str	r4, [sp]
 1697 002a 9BB2     		uxth	r3, r3
 1698 002c 92B2     		uxth	r2, r2
 1699 002e 89B2     		uxth	r1, r1
 1700 0030 FFF7FEFF 		bl	u8g2_IsIntersection
 1701              	.LVL199:
 1702              		.loc 1 471 8 view .LVU457
 1703 0034 10B9     		cbnz	r0, .L90
 1704              	.L87:
 472:Core/Src/u8g2/Src/u8g2_circle.c ****       return;
 473:Core/Src/u8g2/Src/u8g2_circle.c ****   }
 474:Core/Src/u8g2/Src/u8g2_circle.c **** #endif /* U8G2_WITH_INTERSECTION */
 475:Core/Src/u8g2/Src/u8g2_circle.c ****   
 476:Core/Src/u8g2/Src/u8g2_circle.c ****   u8g2_draw_filled_ellipse(u8g2, x0, y0, rx, ry, option);
 477:Core/Src/u8g2/Src/u8g2_circle.c **** }
 1705              		.loc 1 477 1 view .LVU458
 1706 0036 03B0     		add	sp, sp, #12
 1707              	.LCFI30:
 1708              		.cfi_remember_state
 1709              		.cfi_def_cfa_offset 28
 1710              		@ sp needed
 1711 0038 BDE8F083 		pop	{r4, r5, r6, r7, r8, r9, pc}
 1712              	.LVL200:
 1713              	.L90:
 1714              	.LCFI31:
 1715              		.cfi_restore_state
 476:Core/Src/u8g2/Src/u8g2_circle.c **** }
 1716              		.loc 1 476 3 is_stmt 1 view .LVU459
 1717 003c 9DF82C30 		ldrb	r3, [sp, #44]	@ zero_extendqisi2
 1718 0040 0193     		str	r3, [sp, #4]
 1719 0042 CDF80090 		str	r9, [sp]
 1720 0046 3B46     		mov	r3, r7
 1721 0048 3246     		mov	r2, r6
 1722 004a 2946     		mov	r1, r5
 1723 004c 4046     		mov	r0, r8
 1724 004e FFF7FEFF 		bl	u8g2_draw_filled_ellipse
ARM GAS  C:\Users\MOROSH~1\AppData\Local\Temp\ccXJN7S2.s 			page 42


 1725              	.LVL201:
 1726 0052 F0E7     		b	.L87
 1727              		.cfi_endproc
 1728              	.LFE11:
 1730              		.text
 1731              	.Letext0:
 1732              		.file 2 "c:\\program files (x86)\\gnu arm embedded toolchain\\10 2021.10\\arm-none-eabi\\include\\
 1733              		.file 3 "c:\\program files (x86)\\gnu arm embedded toolchain\\10 2021.10\\arm-none-eabi\\include\\
 1734              		.file 4 "Core/Src/u8g2/Inc/u8x8.h"
 1735              		.file 5 "Core/Src/u8g2/Inc/u8g2.h"
ARM GAS  C:\Users\MOROSH~1\AppData\Local\Temp\ccXJN7S2.s 			page 43

