ARM GAS  C:\Users\MOROSH~1\AppData\Local\Temp\ccItWpza.s 			page 1


   1              		.cpu cortex-m4
   2              		.arch armv7e-m
   3              		.fpu fpv4-sp-d16
   4              		.eabi_attribute 27, 1
   5              		.eabi_attribute 28, 1
   6              		.eabi_attribute 20, 1
   7              		.eabi_attribute 21, 1
   8              		.eabi_attribute 23, 3
   9              		.eabi_attribute 24, 1
  10              		.eabi_attribute 25, 1
  11              		.eabi_attribute 26, 1
  12              		.eabi_attribute 30, 1
  13              		.eabi_attribute 34, 1
  14              		.eabi_attribute 18, 4
  15              		.file	"u8g2_line.c"
  16              		.text
  17              	.Ltext0:
  18              		.cfi_sections	.debug_frame
  19              		.section	.text.u8g2_DrawLine,"ax",%progbits
  20              		.align	1
  21              		.global	u8g2_DrawLine
  22              		.syntax unified
  23              		.thumb
  24              		.thumb_func
  26              	u8g2_DrawLine:
  27              	.LVL0:
  28              	.LFB0:
  29              		.file 1 "Core/Src/u8g2/Src/u8g2_line.c"
   1:Core/Src/u8g2/Src/u8g2_line.c **** /*
   2:Core/Src/u8g2/Src/u8g2_line.c **** 
   3:Core/Src/u8g2/Src/u8g2_line.c ****   u8g2_box.c
   4:Core/Src/u8g2/Src/u8g2_line.c **** 
   5:Core/Src/u8g2/Src/u8g2_line.c ****   Universal 8bit Graphics Library (https://github.com/olikraus/u8g2/)
   6:Core/Src/u8g2/Src/u8g2_line.c **** 
   7:Core/Src/u8g2/Src/u8g2_line.c ****   Copyright (c) 2016, olikraus@gmail.com
   8:Core/Src/u8g2/Src/u8g2_line.c ****   All rights reserved.
   9:Core/Src/u8g2/Src/u8g2_line.c **** 
  10:Core/Src/u8g2/Src/u8g2_line.c ****   Redistribution and use in source and binary forms, with or without modification, 
  11:Core/Src/u8g2/Src/u8g2_line.c ****   are permitted provided that the following conditions are met:
  12:Core/Src/u8g2/Src/u8g2_line.c **** 
  13:Core/Src/u8g2/Src/u8g2_line.c ****   * Redistributions of source code must retain the above copyright notice, this list 
  14:Core/Src/u8g2/Src/u8g2_line.c ****     of conditions and the following disclaimer.
  15:Core/Src/u8g2/Src/u8g2_line.c ****     
  16:Core/Src/u8g2/Src/u8g2_line.c ****   * Redistributions in binary form must reproduce the above copyright notice, this 
  17:Core/Src/u8g2/Src/u8g2_line.c ****     list of conditions and the following disclaimer in the documentation and/or other 
  18:Core/Src/u8g2/Src/u8g2_line.c ****     materials provided with the distribution.
  19:Core/Src/u8g2/Src/u8g2_line.c **** 
  20:Core/Src/u8g2/Src/u8g2_line.c ****   THIS SOFTWARE IS PROVIDED BY THE COPYRIGHT HOLDERS AND 
  21:Core/Src/u8g2/Src/u8g2_line.c ****   CONTRIBUTORS "AS IS" AND ANY EXPRESS OR IMPLIED WARRANTIES, 
  22:Core/Src/u8g2/Src/u8g2_line.c ****   INCLUDING, BUT NOT LIMITED TO, THE IMPLIED WARRANTIES OF 
  23:Core/Src/u8g2/Src/u8g2_line.c ****   MERCHANTABILITY AND FITNESS FOR A PARTICULAR PURPOSE ARE 
  24:Core/Src/u8g2/Src/u8g2_line.c ****   DISCLAIMED. IN NO EVENT SHALL THE COPYRIGHT HOLDER OR 
  25:Core/Src/u8g2/Src/u8g2_line.c ****   CONTRIBUTORS BE LIABLE FOR ANY DIRECT, INDIRECT, INCIDENTAL, 
  26:Core/Src/u8g2/Src/u8g2_line.c ****   SPECIAL, EXEMPLARY, OR CONSEQUENTIAL DAMAGES (INCLUDING, BUT 
  27:Core/Src/u8g2/Src/u8g2_line.c ****   NOT LIMITED TO, PROCUREMENT OF SUBSTITUTE GOODS OR SERVICES; 
  28:Core/Src/u8g2/Src/u8g2_line.c ****   LOSS OF USE, DATA, OR PROFITS; OR BUSINESS INTERRUPTION) HOWEVER 
  29:Core/Src/u8g2/Src/u8g2_line.c ****   CAUSED AND ON ANY THEORY OF LIABILITY, WHETHER IN CONTRACT, 
ARM GAS  C:\Users\MOROSH~1\AppData\Local\Temp\ccItWpza.s 			page 2


  30:Core/Src/u8g2/Src/u8g2_line.c ****   STRICT LIABILITY, OR TORT (INCLUDING NEGLIGENCE OR OTHERWISE) 
  31:Core/Src/u8g2/Src/u8g2_line.c ****   ARISING IN ANY WAY OUT OF THE USE OF THIS SOFTWARE, EVEN IF 
  32:Core/Src/u8g2/Src/u8g2_line.c ****   ADVISED OF THE POSSIBILITY OF SUCH DAMAGE.  
  33:Core/Src/u8g2/Src/u8g2_line.c **** 
  34:Core/Src/u8g2/Src/u8g2_line.c **** */
  35:Core/Src/u8g2/Src/u8g2_line.c **** 
  36:Core/Src/u8g2/Src/u8g2_line.c **** #include "u8g2.h"
  37:Core/Src/u8g2/Src/u8g2_line.c **** 
  38:Core/Src/u8g2/Src/u8g2_line.c **** 
  39:Core/Src/u8g2/Src/u8g2_line.c **** void u8g2_DrawLine(u8g2_t *u8g2, u8g2_uint_t x1, u8g2_uint_t y1, u8g2_uint_t x2, u8g2_uint_t y2)
  40:Core/Src/u8g2/Src/u8g2_line.c **** {
  30              		.loc 1 40 1 view -0
  31              		.cfi_startproc
  32              		@ args = 4, pretend = 0, frame = 8
  33              		@ frame_needed = 0, uses_anonymous_args = 0
  34              		.loc 1 40 1 is_stmt 0 view .LVU1
  35 0000 2DE9F04F 		push	{r4, r5, r6, r7, r8, r9, r10, fp, lr}
  36              	.LCFI0:
  37              		.cfi_def_cfa_offset 36
  38              		.cfi_offset 4, -36
  39              		.cfi_offset 5, -32
  40              		.cfi_offset 6, -28
  41              		.cfi_offset 7, -24
  42              		.cfi_offset 8, -20
  43              		.cfi_offset 9, -16
  44              		.cfi_offset 10, -12
  45              		.cfi_offset 11, -8
  46              		.cfi_offset 14, -4
  47 0004 83B0     		sub	sp, sp, #12
  48              	.LCFI1:
  49              		.cfi_def_cfa_offset 48
  50 0006 8146     		mov	r9, r0
  51 0008 1746     		mov	r7, r2
  52 000a 1E46     		mov	r6, r3
  53 000c BDF83040 		ldrh	r4, [sp, #48]
  41:Core/Src/u8g2/Src/u8g2_line.c ****   u8g2_uint_t tmp;
  54              		.loc 1 41 3 is_stmt 1 view .LVU2
  42:Core/Src/u8g2/Src/u8g2_line.c ****   u8g2_uint_t x,y;
  55              		.loc 1 42 3 view .LVU3
  43:Core/Src/u8g2/Src/u8g2_line.c ****   u8g2_uint_t dx, dy;
  56              		.loc 1 43 3 view .LVU4
  44:Core/Src/u8g2/Src/u8g2_line.c ****   u8g2_int_t err;
  57              		.loc 1 44 3 view .LVU5
  45:Core/Src/u8g2/Src/u8g2_line.c ****   u8g2_int_t ystep;
  58              		.loc 1 45 3 view .LVU6
  46:Core/Src/u8g2/Src/u8g2_line.c **** 
  47:Core/Src/u8g2/Src/u8g2_line.c ****   uint8_t swapxy = 0;
  59              		.loc 1 47 3 view .LVU7
  60              	.LVL1:
  48:Core/Src/u8g2/Src/u8g2_line.c ****   
  49:Core/Src/u8g2/Src/u8g2_line.c ****   /* no intersection check at the moment, should be added... */
  50:Core/Src/u8g2/Src/u8g2_line.c **** 
  51:Core/Src/u8g2/Src/u8g2_line.c ****   if ( x1 > x2 ) dx = x1-x2; else dx = x2-x1;
  61              		.loc 1 51 3 view .LVU8
  62              		.loc 1 51 6 is_stmt 0 view .LVU9
  63 0010 9942     		cmp	r1, r3
  64 0012 2BD9     		bls	.L2
ARM GAS  C:\Users\MOROSH~1\AppData\Local\Temp\ccItWpza.s 			page 3


  65              		.loc 1 51 18 is_stmt 1 discriminator 1 view .LVU10
  66              		.loc 1 51 21 is_stmt 0 discriminator 1 view .LVU11
  67 0014 A1EB0308 		sub	r8, r1, r3
  68 0018 1FFA88F8 		uxth	r8, r8
  69              	.LVL2:
  70              	.L3:
  52:Core/Src/u8g2/Src/u8g2_line.c ****   if ( y1 > y2 ) dy = y1-y2; else dy = y2-y1;
  71              		.loc 1 52 3 is_stmt 1 view .LVU12
  72              		.loc 1 52 6 is_stmt 0 view .LVU13
  73 001c A742     		cmp	r7, r4
  74 001e 2AD9     		bls	.L4
  75              		.loc 1 52 18 is_stmt 1 discriminator 1 view .LVU14
  76              		.loc 1 52 21 is_stmt 0 discriminator 1 view .LVU15
  77 0020 A7EB040A 		sub	r10, r7, r4
  78 0024 1FFA8AFA 		uxth	r10, r10
  79              	.LVL3:
  80              	.L5:
  53:Core/Src/u8g2/Src/u8g2_line.c **** 
  54:Core/Src/u8g2/Src/u8g2_line.c ****   if ( dy > dx ) 
  81              		.loc 1 54 3 is_stmt 1 view .LVU16
  82              		.loc 1 54 6 is_stmt 0 view .LVU17
  83 0028 D045     		cmp	r8, r10
  84 002a 29D3     		bcc	.L15
  85              		.loc 1 54 6 view .LVU18
  86 002c 5346     		mov	r3, r10
  87              	.LVL4:
  88              		.loc 1 54 6 view .LVU19
  89 002e C246     		mov	r10, r8
  90              	.LVL5:
  91              		.loc 1 54 6 view .LVU20
  92 0030 9846     		mov	r8, r3
  93              	.LVL6:
  94              		.loc 1 54 6 view .LVU21
  95 0032 2346     		mov	r3, r4
  96 0034 3446     		mov	r4, r6
  97 0036 1E46     		mov	r6, r3
  98 0038 3B46     		mov	r3, r7
  99 003a 0F46     		mov	r7, r1
 100 003c 1946     		mov	r1, r3
 101              	.LVL7:
  47:Core/Src/u8g2/Src/u8g2_line.c ****   
 102              		.loc 1 47 11 view .LVU22
 103 003e 4FF0000B 		mov	fp, #0
 104              	.L6:
 105              	.LVL8:
  55:Core/Src/u8g2/Src/u8g2_line.c ****   {
  56:Core/Src/u8g2/Src/u8g2_line.c ****     swapxy = 1;
  57:Core/Src/u8g2/Src/u8g2_line.c ****     tmp = dx; dx =dy; dy = tmp;
  58:Core/Src/u8g2/Src/u8g2_line.c ****     tmp = x1; x1 =y1; y1 = tmp;
  59:Core/Src/u8g2/Src/u8g2_line.c ****     tmp = x2; x2 =y2; y2 = tmp;
  60:Core/Src/u8g2/Src/u8g2_line.c ****   }
  61:Core/Src/u8g2/Src/u8g2_line.c ****   if ( x1 > x2 ) 
 106              		.loc 1 61 3 is_stmt 1 view .LVU23
 107              		.loc 1 61 6 is_stmt 0 view .LVU24
 108 0042 A742     		cmp	r7, r4
 109 0044 05D8     		bhi	.L7
 110 0046 3346     		mov	r3, r6
ARM GAS  C:\Users\MOROSH~1\AppData\Local\Temp\ccItWpza.s 			page 4


 111 0048 0E46     		mov	r6, r1
 112              	.LVL9:
 113              		.loc 1 61 6 view .LVU25
 114 004a 1946     		mov	r1, r3
 115              	.LVL10:
 116              		.loc 1 61 6 view .LVU26
 117 004c 2346     		mov	r3, r4
 118 004e 3C46     		mov	r4, r7
 119              	.LVL11:
 120              		.loc 1 61 6 view .LVU27
 121 0050 1F46     		mov	r7, r3
 122              	.LVL12:
 123              	.L7:
  62:Core/Src/u8g2/Src/u8g2_line.c ****   {
  63:Core/Src/u8g2/Src/u8g2_line.c ****     tmp = x1; x1 =x2; x2 = tmp;
  64:Core/Src/u8g2/Src/u8g2_line.c ****     tmp = y1; y1 =y2; y2 = tmp;
  65:Core/Src/u8g2/Src/u8g2_line.c ****   }
  66:Core/Src/u8g2/Src/u8g2_line.c ****   err = dx >> 1;
 124              		.loc 1 66 3 is_stmt 1 view .LVU28
 125              		.loc 1 66 7 is_stmt 0 view .LVU29
 126 0052 4AF34F05 		sbfx	r5, r10, #1, #16
 127              	.LVL13:
  67:Core/Src/u8g2/Src/u8g2_line.c ****   if ( y2 > y1 ) ystep = 1; else ystep = -1;
 128              		.loc 1 67 3 is_stmt 1 view .LVU30
 129              		.loc 1 67 6 is_stmt 0 view .LVU31
 130 0056 8E42     		cmp	r6, r1
 131 0058 15D2     		bcs	.L16
 132              		.loc 1 67 24 view .LVU32
 133 005a 0123     		movs	r3, #1
 134 005c 0193     		str	r3, [sp, #4]
 135              	.L8:
 136              	.LVL14:
  68:Core/Src/u8g2/Src/u8g2_line.c ****   y = y1;
 137              		.loc 1 68 3 is_stmt 1 view .LVU33
  69:Core/Src/u8g2/Src/u8g2_line.c **** 
  70:Core/Src/u8g2/Src/u8g2_line.c **** #ifndef  U8G2_16BIT
  71:Core/Src/u8g2/Src/u8g2_line.c ****   if ( x2 == 255 )
  72:Core/Src/u8g2/Src/u8g2_line.c ****     x2--;
  73:Core/Src/u8g2/Src/u8g2_line.c **** #else
  74:Core/Src/u8g2/Src/u8g2_line.c ****   if ( x2 == 0xffff )
 138              		.loc 1 74 3 view .LVU34
 139              		.loc 1 74 6 is_stmt 0 view .LVU35
 140 005e 4FF6FF73 		movw	r3, #65535
 141 0062 9F42     		cmp	r7, r3
 142 0064 20D1     		bne	.L10
  75:Core/Src/u8g2/Src/u8g2_line.c ****     x2--;
 143              		.loc 1 75 5 is_stmt 1 view .LVU36
 144              		.loc 1 75 7 is_stmt 0 view .LVU37
 145 0066 013F     		subs	r7, r7, #1
 146              	.LVL15:
 147              		.loc 1 75 7 view .LVU38
 148 0068 BFB2     		uxth	r7, r7
 149              	.LVL16:
  76:Core/Src/u8g2/Src/u8g2_line.c **** #endif
  77:Core/Src/u8g2/Src/u8g2_line.c **** 
  78:Core/Src/u8g2/Src/u8g2_line.c ****   for( x = x1; x <= x2; x++ )
 150              		.loc 1 78 3 is_stmt 1 view .LVU39
ARM GAS  C:\Users\MOROSH~1\AppData\Local\Temp\ccItWpza.s 			page 5


 151              		.loc 1 78 3 is_stmt 0 view .LVU40
 152 006a 1DE0     		b	.L10
 153              	.LVL17:
 154              	.L2:
  51:Core/Src/u8g2/Src/u8g2_line.c ****   if ( y1 > y2 ) dy = y1-y2; else dy = y2-y1;
 155              		.loc 1 51 35 is_stmt 1 discriminator 2 view .LVU41
  51:Core/Src/u8g2/Src/u8g2_line.c ****   if ( y1 > y2 ) dy = y1-y2; else dy = y2-y1;
 156              		.loc 1 51 38 is_stmt 0 discriminator 2 view .LVU42
 157 006c A3EB0108 		sub	r8, r3, r1
 158 0070 1FFA88F8 		uxth	r8, r8
 159              	.LVL18:
  51:Core/Src/u8g2/Src/u8g2_line.c ****   if ( y1 > y2 ) dy = y1-y2; else dy = y2-y1;
 160              		.loc 1 51 38 discriminator 2 view .LVU43
 161 0074 D2E7     		b	.L3
 162              	.L4:
  52:Core/Src/u8g2/Src/u8g2_line.c **** 
 163              		.loc 1 52 35 is_stmt 1 discriminator 2 view .LVU44
  52:Core/Src/u8g2/Src/u8g2_line.c **** 
 164              		.loc 1 52 38 is_stmt 0 discriminator 2 view .LVU45
 165 0076 A4EB070A 		sub	r10, r4, r7
 166 007a 1FFA8AFA 		uxth	r10, r10
 167              	.LVL19:
  52:Core/Src/u8g2/Src/u8g2_line.c **** 
 168              		.loc 1 52 38 discriminator 2 view .LVU46
 169 007e D3E7     		b	.L5
 170              	.L15:
  56:Core/Src/u8g2/Src/u8g2_line.c ****     tmp = dx; dx =dy; dy = tmp;
 171              		.loc 1 56 12 view .LVU47
 172 0080 4FF0010B 		mov	fp, #1
 173 0084 DDE7     		b	.L6
 174              	.LVL20:
 175              	.L16:
  67:Core/Src/u8g2/Src/u8g2_line.c ****   y = y1;
 176              		.loc 1 67 40 view .LVU48
 177 0086 4FF0FF33 		mov	r3, #-1
 178 008a 0193     		str	r3, [sp, #4]
 179 008c E7E7     		b	.L8
 180              	.LVL21:
 181              	.L11:
  79:Core/Src/u8g2/Src/u8g2_line.c ****   {
  80:Core/Src/u8g2/Src/u8g2_line.c ****     if ( swapxy == 0 ) 
  81:Core/Src/u8g2/Src/u8g2_line.c ****       u8g2_DrawPixel(u8g2, x, y); 
  82:Core/Src/u8g2/Src/u8g2_line.c ****     else 
  83:Core/Src/u8g2/Src/u8g2_line.c ****       u8g2_DrawPixel(u8g2, y, x); 
 182              		.loc 1 83 7 is_stmt 1 view .LVU49
 183 008e 2246     		mov	r2, r4
 184 0090 3146     		mov	r1, r6
 185 0092 4846     		mov	r0, r9
 186 0094 FFF7FEFF 		bl	u8g2_DrawPixel
 187              	.LVL22:
 188              	.L12:
  84:Core/Src/u8g2/Src/u8g2_line.c ****     err -= (u8g2_uint_t)dy;
 189              		.loc 1 84 5 view .LVU50
 190              		.loc 1 84 9 is_stmt 0 view .LVU51
 191 0098 A5EB0805 		sub	r5, r5, r8
 192              	.LVL23:
 193              		.loc 1 84 9 view .LVU52
ARM GAS  C:\Users\MOROSH~1\AppData\Local\Temp\ccItWpza.s 			page 6


 194 009c AAB2     		uxth	r2, r5
 195 009e 2DB2     		sxth	r5, r5
 196              	.LVL24:
  85:Core/Src/u8g2/Src/u8g2_line.c ****     if ( err < 0 ) 
 197              		.loc 1 85 5 is_stmt 1 view .LVU53
 198              		.loc 1 85 8 is_stmt 0 view .LVU54
 199 00a0 002D     		cmp	r5, #0
 200 00a2 0CDB     		blt	.L18
 201              	.L13:
  78:Core/Src/u8g2/Src/u8g2_line.c ****   {
 202              		.loc 1 78 25 is_stmt 1 discriminator 2 view .LVU55
  78:Core/Src/u8g2/Src/u8g2_line.c ****   {
 203              		.loc 1 78 26 is_stmt 0 discriminator 2 view .LVU56
 204 00a4 0134     		adds	r4, r4, #1
 205              	.LVL25:
  78:Core/Src/u8g2/Src/u8g2_line.c ****   {
 206              		.loc 1 78 26 discriminator 2 view .LVU57
 207 00a6 A4B2     		uxth	r4, r4
 208              	.LVL26:
 209              	.L10:
  78:Core/Src/u8g2/Src/u8g2_line.c ****   {
 210              		.loc 1 78 16 is_stmt 1 discriminator 1 view .LVU58
  78:Core/Src/u8g2/Src/u8g2_line.c ****   {
 211              		.loc 1 78 3 is_stmt 0 discriminator 1 view .LVU59
 212 00a8 A742     		cmp	r7, r4
 213 00aa 0FD3     		bcc	.L19
  80:Core/Src/u8g2/Src/u8g2_line.c ****       u8g2_DrawPixel(u8g2, x, y); 
 214              		.loc 1 80 5 is_stmt 1 view .LVU60
  80:Core/Src/u8g2/Src/u8g2_line.c ****       u8g2_DrawPixel(u8g2, x, y); 
 215              		.loc 1 80 8 is_stmt 0 view .LVU61
 216 00ac BBF1000F 		cmp	fp, #0
 217 00b0 EDD1     		bne	.L11
  81:Core/Src/u8g2/Src/u8g2_line.c ****     else 
 218              		.loc 1 81 7 is_stmt 1 view .LVU62
 219 00b2 3246     		mov	r2, r6
 220 00b4 2146     		mov	r1, r4
 221 00b6 4846     		mov	r0, r9
 222 00b8 FFF7FEFF 		bl	u8g2_DrawPixel
 223              	.LVL27:
 224 00bc ECE7     		b	.L12
 225              	.L18:
  86:Core/Src/u8g2/Src/u8g2_line.c ****     {
  87:Core/Src/u8g2/Src/u8g2_line.c ****       y += (u8g2_uint_t)ystep;
 226              		.loc 1 87 7 view .LVU63
 227              		.loc 1 87 9 is_stmt 0 view .LVU64
 228 00be 019B     		ldr	r3, [sp, #4]
 229 00c0 16FA83F6 		uxtah	r6, r6, r3
 230              	.LVL28:
 231              		.loc 1 87 9 view .LVU65
 232 00c4 B6B2     		uxth	r6, r6
 233              	.LVL29:
  88:Core/Src/u8g2/Src/u8g2_line.c ****       err += (u8g2_uint_t)dx;
 234              		.loc 1 88 7 is_stmt 1 view .LVU66
 235              		.loc 1 88 11 is_stmt 0 view .LVU67
 236 00c6 5244     		add	r2, r2, r10
 237 00c8 15B2     		sxth	r5, r2
 238              	.LVL30:
ARM GAS  C:\Users\MOROSH~1\AppData\Local\Temp\ccItWpza.s 			page 7


 239              		.loc 1 88 11 view .LVU68
 240 00ca EBE7     		b	.L13
 241              	.L19:
  89:Core/Src/u8g2/Src/u8g2_line.c ****     }
  90:Core/Src/u8g2/Src/u8g2_line.c ****   }
  91:Core/Src/u8g2/Src/u8g2_line.c **** }
 242              		.loc 1 91 1 view .LVU69
 243 00cc 03B0     		add	sp, sp, #12
 244              	.LCFI2:
 245              		.cfi_def_cfa_offset 36
 246              		@ sp needed
 247 00ce BDE8F08F 		pop	{r4, r5, r6, r7, r8, r9, r10, fp, pc}
 248              		.loc 1 91 1 view .LVU70
 249              		.cfi_endproc
 250              	.LFE0:
 252              		.text
 253              	.Letext0:
 254              		.file 2 "c:\\program files (x86)\\gnu arm embedded toolchain\\10 2021.10\\arm-none-eabi\\include\\
 255              		.file 3 "c:\\program files (x86)\\gnu arm embedded toolchain\\10 2021.10\\arm-none-eabi\\include\\
 256              		.file 4 "Core/Src/u8g2/Inc/u8x8.h"
 257              		.file 5 "Core/Src/u8g2/Inc/u8g2.h"
ARM GAS  C:\Users\MOROSH~1\AppData\Local\Temp\ccItWpza.s 			page 8

