ARM GAS  C:\Users\MOROSH~1\AppData\Local\Temp\ccO8NVXv.s 			page 1


   1              		.cpu cortex-m4
   2              		.arch armv7e-m
   3              		.fpu fpv4-sp-d16
   4              		.eabi_attribute 27, 1
   5              		.eabi_attribute 28, 1
   6              		.eabi_attribute 20, 1
   7              		.eabi_attribute 21, 1
   8              		.eabi_attribute 23, 3
   9              		.eabi_attribute 24, 1
  10              		.eabi_attribute 25, 1
  11              		.eabi_attribute 26, 1
  12              		.eabi_attribute 30, 1
  13              		.eabi_attribute 34, 1
  14              		.eabi_attribute 18, 4
  15              		.file	"u8g2_d_setup.c"
  16              		.text
  17              	.Ltext0:
  18              		.cfi_sections	.debug_frame
  19              		.section	.text.u8g2_Setup_ssd1305_128x32_noname_1,"ax",%progbits
  20              		.align	1
  21              		.global	u8g2_Setup_ssd1305_128x32_noname_1
  22              		.syntax unified
  23              		.thumb
  24              		.thumb_func
  26              	u8g2_Setup_ssd1305_128x32_noname_1:
  27              	.LVL0:
  28              	.LFB0:
  29              		.file 1 "Core/Src/u8g2/Src/u8g2_d_setup.c"
   1:Core/Src/u8g2/Src/u8g2_d_setup.c **** /* u8g2_d_setup.c */
   2:Core/Src/u8g2/Src/u8g2_d_setup.c **** /* generated code, codebuild, u8g2 project */
   3:Core/Src/u8g2/Src/u8g2_d_setup.c **** 
   4:Core/Src/u8g2/Src/u8g2_d_setup.c **** #include "u8g2.h"
   5:Core/Src/u8g2/Src/u8g2_d_setup.c **** 
   6:Core/Src/u8g2/Src/u8g2_d_setup.c **** /* ssd1305 */
   7:Core/Src/u8g2/Src/u8g2_d_setup.c **** /* ssd1305 1 */
   8:Core/Src/u8g2/Src/u8g2_d_setup.c **** void u8g2_Setup_ssd1305_128x32_noname_1(u8g2_t *u8g2, const u8g2_cb_t *rotation, u8x8_msg_cb byte_c
   9:Core/Src/u8g2/Src/u8g2_d_setup.c **** {
  30              		.loc 1 9 1 view -0
  31              		.cfi_startproc
  32              		@ args = 0, pretend = 0, frame = 8
  33              		@ frame_needed = 0, uses_anonymous_args = 0
  34              		.loc 1 9 1 is_stmt 0 view .LVU1
  35 0000 30B5     		push	{r4, r5, lr}
  36              	.LCFI0:
  37              		.cfi_def_cfa_offset 12
  38              		.cfi_offset 4, -12
  39              		.cfi_offset 5, -8
  40              		.cfi_offset 14, -4
  41 0002 85B0     		sub	sp, sp, #20
  42              	.LCFI1:
  43              		.cfi_def_cfa_offset 32
  44 0004 0446     		mov	r4, r0
  45 0006 0D46     		mov	r5, r1
  10:Core/Src/u8g2/Src/u8g2_d_setup.c ****   uint8_t tile_buf_height;
  46              		.loc 1 10 3 is_stmt 1 view .LVU2
  11:Core/Src/u8g2/Src/u8g2_d_setup.c ****   uint8_t *buf;
  47              		.loc 1 11 3 view .LVU3
ARM GAS  C:\Users\MOROSH~1\AppData\Local\Temp\ccO8NVXv.s 			page 2


  12:Core/Src/u8g2/Src/u8g2_d_setup.c ****   u8g2_SetupDisplay(u8g2, u8x8_d_ssd1305_128x32_noname, u8x8_cad_001, byte_cb, gpio_and_delay_cb);
  48              		.loc 1 12 3 view .LVU4
  49 0008 0093     		str	r3, [sp]
  50 000a 1346     		mov	r3, r2
  51              	.LVL1:
  52              		.loc 1 12 3 is_stmt 0 view .LVU5
  53 000c 084A     		ldr	r2, .L3
  54              	.LVL2:
  55              		.loc 1 12 3 view .LVU6
  56 000e 0949     		ldr	r1, .L3+4
  57              	.LVL3:
  58              		.loc 1 12 3 view .LVU7
  59 0010 FFF7FEFF 		bl	u8x8_Setup
  60              	.LVL4:
  13:Core/Src/u8g2/Src/u8g2_d_setup.c ****   buf = u8g2_m_16_4_1(&tile_buf_height);
  61              		.loc 1 13 3 is_stmt 1 view .LVU8
  62              		.loc 1 13 9 is_stmt 0 view .LVU9
  63 0014 0DF10F00 		add	r0, sp, #15
  64 0018 FFF7FEFF 		bl	u8g2_m_16_4_1
  65              	.LVL5:
  66 001c 0146     		mov	r1, r0
  67              	.LVL6:
  14:Core/Src/u8g2/Src/u8g2_d_setup.c ****   u8g2_SetupBuffer(u8g2, buf, tile_buf_height, u8g2_ll_hvline_vertical_top_lsb, rotation);
  68              		.loc 1 14 3 is_stmt 1 view .LVU10
  69 001e 0095     		str	r5, [sp]
  70 0020 054B     		ldr	r3, .L3+8
  71 0022 9DF80F20 		ldrb	r2, [sp, #15]	@ zero_extendqisi2
  72 0026 2046     		mov	r0, r4
  73              	.LVL7:
  74              		.loc 1 14 3 is_stmt 0 view .LVU11
  75 0028 FFF7FEFF 		bl	u8g2_SetupBuffer
  76              	.LVL8:
  15:Core/Src/u8g2/Src/u8g2_d_setup.c **** }
  77              		.loc 1 15 1 view .LVU12
  78 002c 05B0     		add	sp, sp, #20
  79              	.LCFI2:
  80              		.cfi_def_cfa_offset 12
  81              		@ sp needed
  82 002e 30BD     		pop	{r4, r5, pc}
  83              	.LVL9:
  84              	.L4:
  85              		.loc 1 15 1 view .LVU13
  86              		.align	2
  87              	.L3:
  88 0030 00000000 		.word	u8x8_cad_001
  89 0034 00000000 		.word	u8x8_d_ssd1305_128x32_noname
  90 0038 00000000 		.word	u8g2_ll_hvline_vertical_top_lsb
  91              		.cfi_endproc
  92              	.LFE0:
  94              		.section	.text.u8g2_Setup_ssd1305_128x32_adafruit_1,"ax",%progbits
  95              		.align	1
  96              		.global	u8g2_Setup_ssd1305_128x32_adafruit_1
  97              		.syntax unified
  98              		.thumb
  99              		.thumb_func
 101              	u8g2_Setup_ssd1305_128x32_adafruit_1:
 102              	.LVL10:
ARM GAS  C:\Users\MOROSH~1\AppData\Local\Temp\ccO8NVXv.s 			page 3


 103              	.LFB1:
  16:Core/Src/u8g2/Src/u8g2_d_setup.c **** void u8g2_Setup_ssd1305_128x32_adafruit_1(u8g2_t *u8g2, const u8g2_cb_t *rotation, u8x8_msg_cb byte
  17:Core/Src/u8g2/Src/u8g2_d_setup.c **** {
 104              		.loc 1 17 1 is_stmt 1 view -0
 105              		.cfi_startproc
 106              		@ args = 0, pretend = 0, frame = 8
 107              		@ frame_needed = 0, uses_anonymous_args = 0
 108              		.loc 1 17 1 is_stmt 0 view .LVU15
 109 0000 30B5     		push	{r4, r5, lr}
 110              	.LCFI3:
 111              		.cfi_def_cfa_offset 12
 112              		.cfi_offset 4, -12
 113              		.cfi_offset 5, -8
 114              		.cfi_offset 14, -4
 115 0002 85B0     		sub	sp, sp, #20
 116              	.LCFI4:
 117              		.cfi_def_cfa_offset 32
 118 0004 0446     		mov	r4, r0
 119 0006 0D46     		mov	r5, r1
  18:Core/Src/u8g2/Src/u8g2_d_setup.c ****   uint8_t tile_buf_height;
 120              		.loc 1 18 3 is_stmt 1 view .LVU16
  19:Core/Src/u8g2/Src/u8g2_d_setup.c ****   uint8_t *buf;
 121              		.loc 1 19 3 view .LVU17
  20:Core/Src/u8g2/Src/u8g2_d_setup.c ****   u8g2_SetupDisplay(u8g2, u8x8_d_ssd1305_128x32_adafruit, u8x8_cad_001, byte_cb, gpio_and_delay_cb)
 122              		.loc 1 20 3 view .LVU18
 123 0008 0093     		str	r3, [sp]
 124 000a 1346     		mov	r3, r2
 125              	.LVL11:
 126              		.loc 1 20 3 is_stmt 0 view .LVU19
 127 000c 084A     		ldr	r2, .L7
 128              	.LVL12:
 129              		.loc 1 20 3 view .LVU20
 130 000e 0949     		ldr	r1, .L7+4
 131              	.LVL13:
 132              		.loc 1 20 3 view .LVU21
 133 0010 FFF7FEFF 		bl	u8x8_Setup
 134              	.LVL14:
  21:Core/Src/u8g2/Src/u8g2_d_setup.c ****   buf = u8g2_m_16_4_1(&tile_buf_height);
 135              		.loc 1 21 3 is_stmt 1 view .LVU22
 136              		.loc 1 21 9 is_stmt 0 view .LVU23
 137 0014 0DF10F00 		add	r0, sp, #15
 138 0018 FFF7FEFF 		bl	u8g2_m_16_4_1
 139              	.LVL15:
 140 001c 0146     		mov	r1, r0
 141              	.LVL16:
  22:Core/Src/u8g2/Src/u8g2_d_setup.c ****   u8g2_SetupBuffer(u8g2, buf, tile_buf_height, u8g2_ll_hvline_vertical_top_lsb, rotation);
 142              		.loc 1 22 3 is_stmt 1 view .LVU24
 143 001e 0095     		str	r5, [sp]
 144 0020 054B     		ldr	r3, .L7+8
 145 0022 9DF80F20 		ldrb	r2, [sp, #15]	@ zero_extendqisi2
 146 0026 2046     		mov	r0, r4
 147              	.LVL17:
 148              		.loc 1 22 3 is_stmt 0 view .LVU25
 149 0028 FFF7FEFF 		bl	u8g2_SetupBuffer
 150              	.LVL18:
  23:Core/Src/u8g2/Src/u8g2_d_setup.c **** }
 151              		.loc 1 23 1 view .LVU26
ARM GAS  C:\Users\MOROSH~1\AppData\Local\Temp\ccO8NVXv.s 			page 4


 152 002c 05B0     		add	sp, sp, #20
 153              	.LCFI5:
 154              		.cfi_def_cfa_offset 12
 155              		@ sp needed
 156 002e 30BD     		pop	{r4, r5, pc}
 157              	.LVL19:
 158              	.L8:
 159              		.loc 1 23 1 view .LVU27
 160              		.align	2
 161              	.L7:
 162 0030 00000000 		.word	u8x8_cad_001
 163 0034 00000000 		.word	u8x8_d_ssd1305_128x32_adafruit
 164 0038 00000000 		.word	u8g2_ll_hvline_vertical_top_lsb
 165              		.cfi_endproc
 166              	.LFE1:
 168              		.section	.text.u8g2_Setup_ssd1305_128x32_noname_2,"ax",%progbits
 169              		.align	1
 170              		.global	u8g2_Setup_ssd1305_128x32_noname_2
 171              		.syntax unified
 172              		.thumb
 173              		.thumb_func
 175              	u8g2_Setup_ssd1305_128x32_noname_2:
 176              	.LVL20:
 177              	.LFB2:
  24:Core/Src/u8g2/Src/u8g2_d_setup.c **** /* ssd1305 2 */
  25:Core/Src/u8g2/Src/u8g2_d_setup.c **** void u8g2_Setup_ssd1305_128x32_noname_2(u8g2_t *u8g2, const u8g2_cb_t *rotation, u8x8_msg_cb byte_c
  26:Core/Src/u8g2/Src/u8g2_d_setup.c **** {
 178              		.loc 1 26 1 is_stmt 1 view -0
 179              		.cfi_startproc
 180              		@ args = 0, pretend = 0, frame = 8
 181              		@ frame_needed = 0, uses_anonymous_args = 0
 182              		.loc 1 26 1 is_stmt 0 view .LVU29
 183 0000 30B5     		push	{r4, r5, lr}
 184              	.LCFI6:
 185              		.cfi_def_cfa_offset 12
 186              		.cfi_offset 4, -12
 187              		.cfi_offset 5, -8
 188              		.cfi_offset 14, -4
 189 0002 85B0     		sub	sp, sp, #20
 190              	.LCFI7:
 191              		.cfi_def_cfa_offset 32
 192 0004 0446     		mov	r4, r0
 193 0006 0D46     		mov	r5, r1
  27:Core/Src/u8g2/Src/u8g2_d_setup.c ****   uint8_t tile_buf_height;
 194              		.loc 1 27 3 is_stmt 1 view .LVU30
  28:Core/Src/u8g2/Src/u8g2_d_setup.c ****   uint8_t *buf;
 195              		.loc 1 28 3 view .LVU31
  29:Core/Src/u8g2/Src/u8g2_d_setup.c ****   u8g2_SetupDisplay(u8g2, u8x8_d_ssd1305_128x32_noname, u8x8_cad_001, byte_cb, gpio_and_delay_cb);
 196              		.loc 1 29 3 view .LVU32
 197 0008 0093     		str	r3, [sp]
 198 000a 1346     		mov	r3, r2
 199              	.LVL21:
 200              		.loc 1 29 3 is_stmt 0 view .LVU33
 201 000c 084A     		ldr	r2, .L11
 202              	.LVL22:
 203              		.loc 1 29 3 view .LVU34
 204 000e 0949     		ldr	r1, .L11+4
ARM GAS  C:\Users\MOROSH~1\AppData\Local\Temp\ccO8NVXv.s 			page 5


 205              	.LVL23:
 206              		.loc 1 29 3 view .LVU35
 207 0010 FFF7FEFF 		bl	u8x8_Setup
 208              	.LVL24:
  30:Core/Src/u8g2/Src/u8g2_d_setup.c ****   buf = u8g2_m_16_4_2(&tile_buf_height);
 209              		.loc 1 30 3 is_stmt 1 view .LVU36
 210              		.loc 1 30 9 is_stmt 0 view .LVU37
 211 0014 0DF10F00 		add	r0, sp, #15
 212 0018 FFF7FEFF 		bl	u8g2_m_16_4_2
 213              	.LVL25:
 214 001c 0146     		mov	r1, r0
 215              	.LVL26:
  31:Core/Src/u8g2/Src/u8g2_d_setup.c ****   u8g2_SetupBuffer(u8g2, buf, tile_buf_height, u8g2_ll_hvline_vertical_top_lsb, rotation);
 216              		.loc 1 31 3 is_stmt 1 view .LVU38
 217 001e 0095     		str	r5, [sp]
 218 0020 054B     		ldr	r3, .L11+8
 219 0022 9DF80F20 		ldrb	r2, [sp, #15]	@ zero_extendqisi2
 220 0026 2046     		mov	r0, r4
 221              	.LVL27:
 222              		.loc 1 31 3 is_stmt 0 view .LVU39
 223 0028 FFF7FEFF 		bl	u8g2_SetupBuffer
 224              	.LVL28:
  32:Core/Src/u8g2/Src/u8g2_d_setup.c **** }
 225              		.loc 1 32 1 view .LVU40
 226 002c 05B0     		add	sp, sp, #20
 227              	.LCFI8:
 228              		.cfi_def_cfa_offset 12
 229              		@ sp needed
 230 002e 30BD     		pop	{r4, r5, pc}
 231              	.LVL29:
 232              	.L12:
 233              		.loc 1 32 1 view .LVU41
 234              		.align	2
 235              	.L11:
 236 0030 00000000 		.word	u8x8_cad_001
 237 0034 00000000 		.word	u8x8_d_ssd1305_128x32_noname
 238 0038 00000000 		.word	u8g2_ll_hvline_vertical_top_lsb
 239              		.cfi_endproc
 240              	.LFE2:
 242              		.section	.text.u8g2_Setup_ssd1305_128x32_adafruit_2,"ax",%progbits
 243              		.align	1
 244              		.global	u8g2_Setup_ssd1305_128x32_adafruit_2
 245              		.syntax unified
 246              		.thumb
 247              		.thumb_func
 249              	u8g2_Setup_ssd1305_128x32_adafruit_2:
 250              	.LVL30:
 251              	.LFB3:
  33:Core/Src/u8g2/Src/u8g2_d_setup.c **** void u8g2_Setup_ssd1305_128x32_adafruit_2(u8g2_t *u8g2, const u8g2_cb_t *rotation, u8x8_msg_cb byte
  34:Core/Src/u8g2/Src/u8g2_d_setup.c **** {
 252              		.loc 1 34 1 is_stmt 1 view -0
 253              		.cfi_startproc
 254              		@ args = 0, pretend = 0, frame = 8
 255              		@ frame_needed = 0, uses_anonymous_args = 0
 256              		.loc 1 34 1 is_stmt 0 view .LVU43
 257 0000 30B5     		push	{r4, r5, lr}
 258              	.LCFI9:
ARM GAS  C:\Users\MOROSH~1\AppData\Local\Temp\ccO8NVXv.s 			page 6


 259              		.cfi_def_cfa_offset 12
 260              		.cfi_offset 4, -12
 261              		.cfi_offset 5, -8
 262              		.cfi_offset 14, -4
 263 0002 85B0     		sub	sp, sp, #20
 264              	.LCFI10:
 265              		.cfi_def_cfa_offset 32
 266 0004 0446     		mov	r4, r0
 267 0006 0D46     		mov	r5, r1
  35:Core/Src/u8g2/Src/u8g2_d_setup.c ****   uint8_t tile_buf_height;
 268              		.loc 1 35 3 is_stmt 1 view .LVU44
  36:Core/Src/u8g2/Src/u8g2_d_setup.c ****   uint8_t *buf;
 269              		.loc 1 36 3 view .LVU45
  37:Core/Src/u8g2/Src/u8g2_d_setup.c ****   u8g2_SetupDisplay(u8g2, u8x8_d_ssd1305_128x32_adafruit, u8x8_cad_001, byte_cb, gpio_and_delay_cb)
 270              		.loc 1 37 3 view .LVU46
 271 0008 0093     		str	r3, [sp]
 272 000a 1346     		mov	r3, r2
 273              	.LVL31:
 274              		.loc 1 37 3 is_stmt 0 view .LVU47
 275 000c 084A     		ldr	r2, .L15
 276              	.LVL32:
 277              		.loc 1 37 3 view .LVU48
 278 000e 0949     		ldr	r1, .L15+4
 279              	.LVL33:
 280              		.loc 1 37 3 view .LVU49
 281 0010 FFF7FEFF 		bl	u8x8_Setup
 282              	.LVL34:
  38:Core/Src/u8g2/Src/u8g2_d_setup.c ****   buf = u8g2_m_16_4_2(&tile_buf_height);
 283              		.loc 1 38 3 is_stmt 1 view .LVU50
 284              		.loc 1 38 9 is_stmt 0 view .LVU51
 285 0014 0DF10F00 		add	r0, sp, #15
 286 0018 FFF7FEFF 		bl	u8g2_m_16_4_2
 287              	.LVL35:
 288 001c 0146     		mov	r1, r0
 289              	.LVL36:
  39:Core/Src/u8g2/Src/u8g2_d_setup.c ****   u8g2_SetupBuffer(u8g2, buf, tile_buf_height, u8g2_ll_hvline_vertical_top_lsb, rotation);
 290              		.loc 1 39 3 is_stmt 1 view .LVU52
 291 001e 0095     		str	r5, [sp]
 292 0020 054B     		ldr	r3, .L15+8
 293 0022 9DF80F20 		ldrb	r2, [sp, #15]	@ zero_extendqisi2
 294 0026 2046     		mov	r0, r4
 295              	.LVL37:
 296              		.loc 1 39 3 is_stmt 0 view .LVU53
 297 0028 FFF7FEFF 		bl	u8g2_SetupBuffer
 298              	.LVL38:
  40:Core/Src/u8g2/Src/u8g2_d_setup.c **** }
 299              		.loc 1 40 1 view .LVU54
 300 002c 05B0     		add	sp, sp, #20
 301              	.LCFI11:
 302              		.cfi_def_cfa_offset 12
 303              		@ sp needed
 304 002e 30BD     		pop	{r4, r5, pc}
 305              	.LVL39:
 306              	.L16:
 307              		.loc 1 40 1 view .LVU55
 308              		.align	2
 309              	.L15:
ARM GAS  C:\Users\MOROSH~1\AppData\Local\Temp\ccO8NVXv.s 			page 7


 310 0030 00000000 		.word	u8x8_cad_001
 311 0034 00000000 		.word	u8x8_d_ssd1305_128x32_adafruit
 312 0038 00000000 		.word	u8g2_ll_hvline_vertical_top_lsb
 313              		.cfi_endproc
 314              	.LFE3:
 316              		.section	.text.u8g2_Setup_ssd1305_128x32_noname_f,"ax",%progbits
 317              		.align	1
 318              		.global	u8g2_Setup_ssd1305_128x32_noname_f
 319              		.syntax unified
 320              		.thumb
 321              		.thumb_func
 323              	u8g2_Setup_ssd1305_128x32_noname_f:
 324              	.LVL40:
 325              	.LFB4:
  41:Core/Src/u8g2/Src/u8g2_d_setup.c **** /* ssd1305 f */
  42:Core/Src/u8g2/Src/u8g2_d_setup.c **** void u8g2_Setup_ssd1305_128x32_noname_f(u8g2_t *u8g2, const u8g2_cb_t *rotation, u8x8_msg_cb byte_c
  43:Core/Src/u8g2/Src/u8g2_d_setup.c **** {
 326              		.loc 1 43 1 is_stmt 1 view -0
 327              		.cfi_startproc
 328              		@ args = 0, pretend = 0, frame = 8
 329              		@ frame_needed = 0, uses_anonymous_args = 0
 330              		.loc 1 43 1 is_stmt 0 view .LVU57
 331 0000 30B5     		push	{r4, r5, lr}
 332              	.LCFI12:
 333              		.cfi_def_cfa_offset 12
 334              		.cfi_offset 4, -12
 335              		.cfi_offset 5, -8
 336              		.cfi_offset 14, -4
 337 0002 85B0     		sub	sp, sp, #20
 338              	.LCFI13:
 339              		.cfi_def_cfa_offset 32
 340 0004 0446     		mov	r4, r0
 341 0006 0D46     		mov	r5, r1
  44:Core/Src/u8g2/Src/u8g2_d_setup.c ****   uint8_t tile_buf_height;
 342              		.loc 1 44 3 is_stmt 1 view .LVU58
  45:Core/Src/u8g2/Src/u8g2_d_setup.c ****   uint8_t *buf;
 343              		.loc 1 45 3 view .LVU59
  46:Core/Src/u8g2/Src/u8g2_d_setup.c ****   u8g2_SetupDisplay(u8g2, u8x8_d_ssd1305_128x32_noname, u8x8_cad_001, byte_cb, gpio_and_delay_cb);
 344              		.loc 1 46 3 view .LVU60
 345 0008 0093     		str	r3, [sp]
 346 000a 1346     		mov	r3, r2
 347              	.LVL41:
 348              		.loc 1 46 3 is_stmt 0 view .LVU61
 349 000c 084A     		ldr	r2, .L19
 350              	.LVL42:
 351              		.loc 1 46 3 view .LVU62
 352 000e 0949     		ldr	r1, .L19+4
 353              	.LVL43:
 354              		.loc 1 46 3 view .LVU63
 355 0010 FFF7FEFF 		bl	u8x8_Setup
 356              	.LVL44:
  47:Core/Src/u8g2/Src/u8g2_d_setup.c ****   buf = u8g2_m_16_4_f(&tile_buf_height);
 357              		.loc 1 47 3 is_stmt 1 view .LVU64
 358              		.loc 1 47 9 is_stmt 0 view .LVU65
 359 0014 0DF10F00 		add	r0, sp, #15
 360 0018 FFF7FEFF 		bl	u8g2_m_16_4_f
 361              	.LVL45:
ARM GAS  C:\Users\MOROSH~1\AppData\Local\Temp\ccO8NVXv.s 			page 8


 362 001c 0146     		mov	r1, r0
 363              	.LVL46:
  48:Core/Src/u8g2/Src/u8g2_d_setup.c ****   u8g2_SetupBuffer(u8g2, buf, tile_buf_height, u8g2_ll_hvline_vertical_top_lsb, rotation);
 364              		.loc 1 48 3 is_stmt 1 view .LVU66
 365 001e 0095     		str	r5, [sp]
 366 0020 054B     		ldr	r3, .L19+8
 367 0022 9DF80F20 		ldrb	r2, [sp, #15]	@ zero_extendqisi2
 368 0026 2046     		mov	r0, r4
 369              	.LVL47:
 370              		.loc 1 48 3 is_stmt 0 view .LVU67
 371 0028 FFF7FEFF 		bl	u8g2_SetupBuffer
 372              	.LVL48:
  49:Core/Src/u8g2/Src/u8g2_d_setup.c **** }
 373              		.loc 1 49 1 view .LVU68
 374 002c 05B0     		add	sp, sp, #20
 375              	.LCFI14:
 376              		.cfi_def_cfa_offset 12
 377              		@ sp needed
 378 002e 30BD     		pop	{r4, r5, pc}
 379              	.LVL49:
 380              	.L20:
 381              		.loc 1 49 1 view .LVU69
 382              		.align	2
 383              	.L19:
 384 0030 00000000 		.word	u8x8_cad_001
 385 0034 00000000 		.word	u8x8_d_ssd1305_128x32_noname
 386 0038 00000000 		.word	u8g2_ll_hvline_vertical_top_lsb
 387              		.cfi_endproc
 388              	.LFE4:
 390              		.section	.text.u8g2_Setup_ssd1305_128x32_adafruit_f,"ax",%progbits
 391              		.align	1
 392              		.global	u8g2_Setup_ssd1305_128x32_adafruit_f
 393              		.syntax unified
 394              		.thumb
 395              		.thumb_func
 397              	u8g2_Setup_ssd1305_128x32_adafruit_f:
 398              	.LVL50:
 399              	.LFB5:
  50:Core/Src/u8g2/Src/u8g2_d_setup.c **** void u8g2_Setup_ssd1305_128x32_adafruit_f(u8g2_t *u8g2, const u8g2_cb_t *rotation, u8x8_msg_cb byte
  51:Core/Src/u8g2/Src/u8g2_d_setup.c **** {
 400              		.loc 1 51 1 is_stmt 1 view -0
 401              		.cfi_startproc
 402              		@ args = 0, pretend = 0, frame = 8
 403              		@ frame_needed = 0, uses_anonymous_args = 0
 404              		.loc 1 51 1 is_stmt 0 view .LVU71
 405 0000 30B5     		push	{r4, r5, lr}
 406              	.LCFI15:
 407              		.cfi_def_cfa_offset 12
 408              		.cfi_offset 4, -12
 409              		.cfi_offset 5, -8
 410              		.cfi_offset 14, -4
 411 0002 85B0     		sub	sp, sp, #20
 412              	.LCFI16:
 413              		.cfi_def_cfa_offset 32
 414 0004 0446     		mov	r4, r0
 415 0006 0D46     		mov	r5, r1
  52:Core/Src/u8g2/Src/u8g2_d_setup.c ****   uint8_t tile_buf_height;
ARM GAS  C:\Users\MOROSH~1\AppData\Local\Temp\ccO8NVXv.s 			page 9


 416              		.loc 1 52 3 is_stmt 1 view .LVU72
  53:Core/Src/u8g2/Src/u8g2_d_setup.c ****   uint8_t *buf;
 417              		.loc 1 53 3 view .LVU73
  54:Core/Src/u8g2/Src/u8g2_d_setup.c ****   u8g2_SetupDisplay(u8g2, u8x8_d_ssd1305_128x32_adafruit, u8x8_cad_001, byte_cb, gpio_and_delay_cb)
 418              		.loc 1 54 3 view .LVU74
 419 0008 0093     		str	r3, [sp]
 420 000a 1346     		mov	r3, r2
 421              	.LVL51:
 422              		.loc 1 54 3 is_stmt 0 view .LVU75
 423 000c 084A     		ldr	r2, .L23
 424              	.LVL52:
 425              		.loc 1 54 3 view .LVU76
 426 000e 0949     		ldr	r1, .L23+4
 427              	.LVL53:
 428              		.loc 1 54 3 view .LVU77
 429 0010 FFF7FEFF 		bl	u8x8_Setup
 430              	.LVL54:
  55:Core/Src/u8g2/Src/u8g2_d_setup.c ****   buf = u8g2_m_16_4_f(&tile_buf_height);
 431              		.loc 1 55 3 is_stmt 1 view .LVU78
 432              		.loc 1 55 9 is_stmt 0 view .LVU79
 433 0014 0DF10F00 		add	r0, sp, #15
 434 0018 FFF7FEFF 		bl	u8g2_m_16_4_f
 435              	.LVL55:
 436 001c 0146     		mov	r1, r0
 437              	.LVL56:
  56:Core/Src/u8g2/Src/u8g2_d_setup.c ****   u8g2_SetupBuffer(u8g2, buf, tile_buf_height, u8g2_ll_hvline_vertical_top_lsb, rotation);
 438              		.loc 1 56 3 is_stmt 1 view .LVU80
 439 001e 0095     		str	r5, [sp]
 440 0020 054B     		ldr	r3, .L23+8
 441 0022 9DF80F20 		ldrb	r2, [sp, #15]	@ zero_extendqisi2
 442 0026 2046     		mov	r0, r4
 443              	.LVL57:
 444              		.loc 1 56 3 is_stmt 0 view .LVU81
 445 0028 FFF7FEFF 		bl	u8g2_SetupBuffer
 446              	.LVL58:
  57:Core/Src/u8g2/Src/u8g2_d_setup.c **** }
 447              		.loc 1 57 1 view .LVU82
 448 002c 05B0     		add	sp, sp, #20
 449              	.LCFI17:
 450              		.cfi_def_cfa_offset 12
 451              		@ sp needed
 452 002e 30BD     		pop	{r4, r5, pc}
 453              	.LVL59:
 454              	.L24:
 455              		.loc 1 57 1 view .LVU83
 456              		.align	2
 457              	.L23:
 458 0030 00000000 		.word	u8x8_cad_001
 459 0034 00000000 		.word	u8x8_d_ssd1305_128x32_adafruit
 460 0038 00000000 		.word	u8g2_ll_hvline_vertical_top_lsb
 461              		.cfi_endproc
 462              	.LFE5:
 464              		.section	.text.u8g2_Setup_ssd1305_i2c_128x32_noname_1,"ax",%progbits
 465              		.align	1
 466              		.global	u8g2_Setup_ssd1305_i2c_128x32_noname_1
 467              		.syntax unified
 468              		.thumb
ARM GAS  C:\Users\MOROSH~1\AppData\Local\Temp\ccO8NVXv.s 			page 10


 469              		.thumb_func
 471              	u8g2_Setup_ssd1305_i2c_128x32_noname_1:
 472              	.LVL60:
 473              	.LFB6:
  58:Core/Src/u8g2/Src/u8g2_d_setup.c **** /* ssd1305 */
  59:Core/Src/u8g2/Src/u8g2_d_setup.c **** /* ssd1305 1 */
  60:Core/Src/u8g2/Src/u8g2_d_setup.c **** void u8g2_Setup_ssd1305_i2c_128x32_noname_1(u8g2_t *u8g2, const u8g2_cb_t *rotation, u8x8_msg_cb by
  61:Core/Src/u8g2/Src/u8g2_d_setup.c **** {
 474              		.loc 1 61 1 is_stmt 1 view -0
 475              		.cfi_startproc
 476              		@ args = 0, pretend = 0, frame = 8
 477              		@ frame_needed = 0, uses_anonymous_args = 0
 478              		.loc 1 61 1 is_stmt 0 view .LVU85
 479 0000 30B5     		push	{r4, r5, lr}
 480              	.LCFI18:
 481              		.cfi_def_cfa_offset 12
 482              		.cfi_offset 4, -12
 483              		.cfi_offset 5, -8
 484              		.cfi_offset 14, -4
 485 0002 85B0     		sub	sp, sp, #20
 486              	.LCFI19:
 487              		.cfi_def_cfa_offset 32
 488 0004 0446     		mov	r4, r0
 489 0006 0D46     		mov	r5, r1
  62:Core/Src/u8g2/Src/u8g2_d_setup.c ****   uint8_t tile_buf_height;
 490              		.loc 1 62 3 is_stmt 1 view .LVU86
  63:Core/Src/u8g2/Src/u8g2_d_setup.c ****   uint8_t *buf;
 491              		.loc 1 63 3 view .LVU87
  64:Core/Src/u8g2/Src/u8g2_d_setup.c ****   u8g2_SetupDisplay(u8g2, u8x8_d_ssd1305_128x32_noname, u8x8_cad_ssd13xx_i2c, byte_cb, gpio_and_del
 492              		.loc 1 64 3 view .LVU88
 493 0008 0093     		str	r3, [sp]
 494 000a 1346     		mov	r3, r2
 495              	.LVL61:
 496              		.loc 1 64 3 is_stmt 0 view .LVU89
 497 000c 084A     		ldr	r2, .L27
 498              	.LVL62:
 499              		.loc 1 64 3 view .LVU90
 500 000e 0949     		ldr	r1, .L27+4
 501              	.LVL63:
 502              		.loc 1 64 3 view .LVU91
 503 0010 FFF7FEFF 		bl	u8x8_Setup
 504              	.LVL64:
  65:Core/Src/u8g2/Src/u8g2_d_setup.c ****   buf = u8g2_m_16_4_1(&tile_buf_height);
 505              		.loc 1 65 3 is_stmt 1 view .LVU92
 506              		.loc 1 65 9 is_stmt 0 view .LVU93
 507 0014 0DF10F00 		add	r0, sp, #15
 508 0018 FFF7FEFF 		bl	u8g2_m_16_4_1
 509              	.LVL65:
 510 001c 0146     		mov	r1, r0
 511              	.LVL66:
  66:Core/Src/u8g2/Src/u8g2_d_setup.c ****   u8g2_SetupBuffer(u8g2, buf, tile_buf_height, u8g2_ll_hvline_vertical_top_lsb, rotation);
 512              		.loc 1 66 3 is_stmt 1 view .LVU94
 513 001e 0095     		str	r5, [sp]
 514 0020 054B     		ldr	r3, .L27+8
 515 0022 9DF80F20 		ldrb	r2, [sp, #15]	@ zero_extendqisi2
 516 0026 2046     		mov	r0, r4
 517              	.LVL67:
ARM GAS  C:\Users\MOROSH~1\AppData\Local\Temp\ccO8NVXv.s 			page 11


 518              		.loc 1 66 3 is_stmt 0 view .LVU95
 519 0028 FFF7FEFF 		bl	u8g2_SetupBuffer
 520              	.LVL68:
  67:Core/Src/u8g2/Src/u8g2_d_setup.c **** }
 521              		.loc 1 67 1 view .LVU96
 522 002c 05B0     		add	sp, sp, #20
 523              	.LCFI20:
 524              		.cfi_def_cfa_offset 12
 525              		@ sp needed
 526 002e 30BD     		pop	{r4, r5, pc}
 527              	.LVL69:
 528              	.L28:
 529              		.loc 1 67 1 view .LVU97
 530              		.align	2
 531              	.L27:
 532 0030 00000000 		.word	u8x8_cad_ssd13xx_i2c
 533 0034 00000000 		.word	u8x8_d_ssd1305_128x32_noname
 534 0038 00000000 		.word	u8g2_ll_hvline_vertical_top_lsb
 535              		.cfi_endproc
 536              	.LFE6:
 538              		.section	.text.u8g2_Setup_ssd1305_i2c_128x32_adafruit_1,"ax",%progbits
 539              		.align	1
 540              		.global	u8g2_Setup_ssd1305_i2c_128x32_adafruit_1
 541              		.syntax unified
 542              		.thumb
 543              		.thumb_func
 545              	u8g2_Setup_ssd1305_i2c_128x32_adafruit_1:
 546              	.LVL70:
 547              	.LFB7:
  68:Core/Src/u8g2/Src/u8g2_d_setup.c **** void u8g2_Setup_ssd1305_i2c_128x32_adafruit_1(u8g2_t *u8g2, const u8g2_cb_t *rotation, u8x8_msg_cb 
  69:Core/Src/u8g2/Src/u8g2_d_setup.c **** {
 548              		.loc 1 69 1 is_stmt 1 view -0
 549              		.cfi_startproc
 550              		@ args = 0, pretend = 0, frame = 8
 551              		@ frame_needed = 0, uses_anonymous_args = 0
 552              		.loc 1 69 1 is_stmt 0 view .LVU99
 553 0000 30B5     		push	{r4, r5, lr}
 554              	.LCFI21:
 555              		.cfi_def_cfa_offset 12
 556              		.cfi_offset 4, -12
 557              		.cfi_offset 5, -8
 558              		.cfi_offset 14, -4
 559 0002 85B0     		sub	sp, sp, #20
 560              	.LCFI22:
 561              		.cfi_def_cfa_offset 32
 562 0004 0446     		mov	r4, r0
 563 0006 0D46     		mov	r5, r1
  70:Core/Src/u8g2/Src/u8g2_d_setup.c ****   uint8_t tile_buf_height;
 564              		.loc 1 70 3 is_stmt 1 view .LVU100
  71:Core/Src/u8g2/Src/u8g2_d_setup.c ****   uint8_t *buf;
 565              		.loc 1 71 3 view .LVU101
  72:Core/Src/u8g2/Src/u8g2_d_setup.c ****   u8g2_SetupDisplay(u8g2, u8x8_d_ssd1305_128x32_adafruit, u8x8_cad_ssd13xx_i2c, byte_cb, gpio_and_d
 566              		.loc 1 72 3 view .LVU102
 567 0008 0093     		str	r3, [sp]
 568 000a 1346     		mov	r3, r2
 569              	.LVL71:
 570              		.loc 1 72 3 is_stmt 0 view .LVU103
ARM GAS  C:\Users\MOROSH~1\AppData\Local\Temp\ccO8NVXv.s 			page 12


 571 000c 084A     		ldr	r2, .L31
 572              	.LVL72:
 573              		.loc 1 72 3 view .LVU104
 574 000e 0949     		ldr	r1, .L31+4
 575              	.LVL73:
 576              		.loc 1 72 3 view .LVU105
 577 0010 FFF7FEFF 		bl	u8x8_Setup
 578              	.LVL74:
  73:Core/Src/u8g2/Src/u8g2_d_setup.c ****   buf = u8g2_m_16_4_1(&tile_buf_height);
 579              		.loc 1 73 3 is_stmt 1 view .LVU106
 580              		.loc 1 73 9 is_stmt 0 view .LVU107
 581 0014 0DF10F00 		add	r0, sp, #15
 582 0018 FFF7FEFF 		bl	u8g2_m_16_4_1
 583              	.LVL75:
 584 001c 0146     		mov	r1, r0
 585              	.LVL76:
  74:Core/Src/u8g2/Src/u8g2_d_setup.c ****   u8g2_SetupBuffer(u8g2, buf, tile_buf_height, u8g2_ll_hvline_vertical_top_lsb, rotation);
 586              		.loc 1 74 3 is_stmt 1 view .LVU108
 587 001e 0095     		str	r5, [sp]
 588 0020 054B     		ldr	r3, .L31+8
 589 0022 9DF80F20 		ldrb	r2, [sp, #15]	@ zero_extendqisi2
 590 0026 2046     		mov	r0, r4
 591              	.LVL77:
 592              		.loc 1 74 3 is_stmt 0 view .LVU109
 593 0028 FFF7FEFF 		bl	u8g2_SetupBuffer
 594              	.LVL78:
  75:Core/Src/u8g2/Src/u8g2_d_setup.c **** }
 595              		.loc 1 75 1 view .LVU110
 596 002c 05B0     		add	sp, sp, #20
 597              	.LCFI23:
 598              		.cfi_def_cfa_offset 12
 599              		@ sp needed
 600 002e 30BD     		pop	{r4, r5, pc}
 601              	.LVL79:
 602              	.L32:
 603              		.loc 1 75 1 view .LVU111
 604              		.align	2
 605              	.L31:
 606 0030 00000000 		.word	u8x8_cad_ssd13xx_i2c
 607 0034 00000000 		.word	u8x8_d_ssd1305_128x32_adafruit
 608 0038 00000000 		.word	u8g2_ll_hvline_vertical_top_lsb
 609              		.cfi_endproc
 610              	.LFE7:
 612              		.section	.text.u8g2_Setup_ssd1305_i2c_128x32_noname_2,"ax",%progbits
 613              		.align	1
 614              		.global	u8g2_Setup_ssd1305_i2c_128x32_noname_2
 615              		.syntax unified
 616              		.thumb
 617              		.thumb_func
 619              	u8g2_Setup_ssd1305_i2c_128x32_noname_2:
 620              	.LVL80:
 621              	.LFB8:
  76:Core/Src/u8g2/Src/u8g2_d_setup.c **** /* ssd1305 2 */
  77:Core/Src/u8g2/Src/u8g2_d_setup.c **** void u8g2_Setup_ssd1305_i2c_128x32_noname_2(u8g2_t *u8g2, const u8g2_cb_t *rotation, u8x8_msg_cb by
  78:Core/Src/u8g2/Src/u8g2_d_setup.c **** {
 622              		.loc 1 78 1 is_stmt 1 view -0
 623              		.cfi_startproc
ARM GAS  C:\Users\MOROSH~1\AppData\Local\Temp\ccO8NVXv.s 			page 13


 624              		@ args = 0, pretend = 0, frame = 8
 625              		@ frame_needed = 0, uses_anonymous_args = 0
 626              		.loc 1 78 1 is_stmt 0 view .LVU113
 627 0000 30B5     		push	{r4, r5, lr}
 628              	.LCFI24:
 629              		.cfi_def_cfa_offset 12
 630              		.cfi_offset 4, -12
 631              		.cfi_offset 5, -8
 632              		.cfi_offset 14, -4
 633 0002 85B0     		sub	sp, sp, #20
 634              	.LCFI25:
 635              		.cfi_def_cfa_offset 32
 636 0004 0446     		mov	r4, r0
 637 0006 0D46     		mov	r5, r1
  79:Core/Src/u8g2/Src/u8g2_d_setup.c ****   uint8_t tile_buf_height;
 638              		.loc 1 79 3 is_stmt 1 view .LVU114
  80:Core/Src/u8g2/Src/u8g2_d_setup.c ****   uint8_t *buf;
 639              		.loc 1 80 3 view .LVU115
  81:Core/Src/u8g2/Src/u8g2_d_setup.c ****   u8g2_SetupDisplay(u8g2, u8x8_d_ssd1305_128x32_noname, u8x8_cad_ssd13xx_i2c, byte_cb, gpio_and_del
 640              		.loc 1 81 3 view .LVU116
 641 0008 0093     		str	r3, [sp]
 642 000a 1346     		mov	r3, r2
 643              	.LVL81:
 644              		.loc 1 81 3 is_stmt 0 view .LVU117
 645 000c 084A     		ldr	r2, .L35
 646              	.LVL82:
 647              		.loc 1 81 3 view .LVU118
 648 000e 0949     		ldr	r1, .L35+4
 649              	.LVL83:
 650              		.loc 1 81 3 view .LVU119
 651 0010 FFF7FEFF 		bl	u8x8_Setup
 652              	.LVL84:
  82:Core/Src/u8g2/Src/u8g2_d_setup.c ****   buf = u8g2_m_16_4_2(&tile_buf_height);
 653              		.loc 1 82 3 is_stmt 1 view .LVU120
 654              		.loc 1 82 9 is_stmt 0 view .LVU121
 655 0014 0DF10F00 		add	r0, sp, #15
 656 0018 FFF7FEFF 		bl	u8g2_m_16_4_2
 657              	.LVL85:
 658 001c 0146     		mov	r1, r0
 659              	.LVL86:
  83:Core/Src/u8g2/Src/u8g2_d_setup.c ****   u8g2_SetupBuffer(u8g2, buf, tile_buf_height, u8g2_ll_hvline_vertical_top_lsb, rotation);
 660              		.loc 1 83 3 is_stmt 1 view .LVU122
 661 001e 0095     		str	r5, [sp]
 662 0020 054B     		ldr	r3, .L35+8
 663 0022 9DF80F20 		ldrb	r2, [sp, #15]	@ zero_extendqisi2
 664 0026 2046     		mov	r0, r4
 665              	.LVL87:
 666              		.loc 1 83 3 is_stmt 0 view .LVU123
 667 0028 FFF7FEFF 		bl	u8g2_SetupBuffer
 668              	.LVL88:
  84:Core/Src/u8g2/Src/u8g2_d_setup.c **** }
 669              		.loc 1 84 1 view .LVU124
 670 002c 05B0     		add	sp, sp, #20
 671              	.LCFI26:
 672              		.cfi_def_cfa_offset 12
 673              		@ sp needed
 674 002e 30BD     		pop	{r4, r5, pc}
ARM GAS  C:\Users\MOROSH~1\AppData\Local\Temp\ccO8NVXv.s 			page 14


 675              	.LVL89:
 676              	.L36:
 677              		.loc 1 84 1 view .LVU125
 678              		.align	2
 679              	.L35:
 680 0030 00000000 		.word	u8x8_cad_ssd13xx_i2c
 681 0034 00000000 		.word	u8x8_d_ssd1305_128x32_noname
 682 0038 00000000 		.word	u8g2_ll_hvline_vertical_top_lsb
 683              		.cfi_endproc
 684              	.LFE8:
 686              		.section	.text.u8g2_Setup_ssd1305_i2c_128x32_adafruit_2,"ax",%progbits
 687              		.align	1
 688              		.global	u8g2_Setup_ssd1305_i2c_128x32_adafruit_2
 689              		.syntax unified
 690              		.thumb
 691              		.thumb_func
 693              	u8g2_Setup_ssd1305_i2c_128x32_adafruit_2:
 694              	.LVL90:
 695              	.LFB9:
  85:Core/Src/u8g2/Src/u8g2_d_setup.c **** void u8g2_Setup_ssd1305_i2c_128x32_adafruit_2(u8g2_t *u8g2, const u8g2_cb_t *rotation, u8x8_msg_cb 
  86:Core/Src/u8g2/Src/u8g2_d_setup.c **** {
 696              		.loc 1 86 1 is_stmt 1 view -0
 697              		.cfi_startproc
 698              		@ args = 0, pretend = 0, frame = 8
 699              		@ frame_needed = 0, uses_anonymous_args = 0
 700              		.loc 1 86 1 is_stmt 0 view .LVU127
 701 0000 30B5     		push	{r4, r5, lr}
 702              	.LCFI27:
 703              		.cfi_def_cfa_offset 12
 704              		.cfi_offset 4, -12
 705              		.cfi_offset 5, -8
 706              		.cfi_offset 14, -4
 707 0002 85B0     		sub	sp, sp, #20
 708              	.LCFI28:
 709              		.cfi_def_cfa_offset 32
 710 0004 0446     		mov	r4, r0
 711 0006 0D46     		mov	r5, r1
  87:Core/Src/u8g2/Src/u8g2_d_setup.c ****   uint8_t tile_buf_height;
 712              		.loc 1 87 3 is_stmt 1 view .LVU128
  88:Core/Src/u8g2/Src/u8g2_d_setup.c ****   uint8_t *buf;
 713              		.loc 1 88 3 view .LVU129
  89:Core/Src/u8g2/Src/u8g2_d_setup.c ****   u8g2_SetupDisplay(u8g2, u8x8_d_ssd1305_128x32_adafruit, u8x8_cad_ssd13xx_i2c, byte_cb, gpio_and_d
 714              		.loc 1 89 3 view .LVU130
 715 0008 0093     		str	r3, [sp]
 716 000a 1346     		mov	r3, r2
 717              	.LVL91:
 718              		.loc 1 89 3 is_stmt 0 view .LVU131
 719 000c 084A     		ldr	r2, .L39
 720              	.LVL92:
 721              		.loc 1 89 3 view .LVU132
 722 000e 0949     		ldr	r1, .L39+4
 723              	.LVL93:
 724              		.loc 1 89 3 view .LVU133
 725 0010 FFF7FEFF 		bl	u8x8_Setup
 726              	.LVL94:
  90:Core/Src/u8g2/Src/u8g2_d_setup.c ****   buf = u8g2_m_16_4_2(&tile_buf_height);
 727              		.loc 1 90 3 is_stmt 1 view .LVU134
ARM GAS  C:\Users\MOROSH~1\AppData\Local\Temp\ccO8NVXv.s 			page 15


 728              		.loc 1 90 9 is_stmt 0 view .LVU135
 729 0014 0DF10F00 		add	r0, sp, #15
 730 0018 FFF7FEFF 		bl	u8g2_m_16_4_2
 731              	.LVL95:
 732 001c 0146     		mov	r1, r0
 733              	.LVL96:
  91:Core/Src/u8g2/Src/u8g2_d_setup.c ****   u8g2_SetupBuffer(u8g2, buf, tile_buf_height, u8g2_ll_hvline_vertical_top_lsb, rotation);
 734              		.loc 1 91 3 is_stmt 1 view .LVU136
 735 001e 0095     		str	r5, [sp]
 736 0020 054B     		ldr	r3, .L39+8
 737 0022 9DF80F20 		ldrb	r2, [sp, #15]	@ zero_extendqisi2
 738 0026 2046     		mov	r0, r4
 739              	.LVL97:
 740              		.loc 1 91 3 is_stmt 0 view .LVU137
 741 0028 FFF7FEFF 		bl	u8g2_SetupBuffer
 742              	.LVL98:
  92:Core/Src/u8g2/Src/u8g2_d_setup.c **** }
 743              		.loc 1 92 1 view .LVU138
 744 002c 05B0     		add	sp, sp, #20
 745              	.LCFI29:
 746              		.cfi_def_cfa_offset 12
 747              		@ sp needed
 748 002e 30BD     		pop	{r4, r5, pc}
 749              	.LVL99:
 750              	.L40:
 751              		.loc 1 92 1 view .LVU139
 752              		.align	2
 753              	.L39:
 754 0030 00000000 		.word	u8x8_cad_ssd13xx_i2c
 755 0034 00000000 		.word	u8x8_d_ssd1305_128x32_adafruit
 756 0038 00000000 		.word	u8g2_ll_hvline_vertical_top_lsb
 757              		.cfi_endproc
 758              	.LFE9:
 760              		.section	.text.u8g2_Setup_ssd1305_i2c_128x32_noname_f,"ax",%progbits
 761              		.align	1
 762              		.global	u8g2_Setup_ssd1305_i2c_128x32_noname_f
 763              		.syntax unified
 764              		.thumb
 765              		.thumb_func
 767              	u8g2_Setup_ssd1305_i2c_128x32_noname_f:
 768              	.LVL100:
 769              	.LFB10:
  93:Core/Src/u8g2/Src/u8g2_d_setup.c **** /* ssd1305 f */
  94:Core/Src/u8g2/Src/u8g2_d_setup.c **** void u8g2_Setup_ssd1305_i2c_128x32_noname_f(u8g2_t *u8g2, const u8g2_cb_t *rotation, u8x8_msg_cb by
  95:Core/Src/u8g2/Src/u8g2_d_setup.c **** {
 770              		.loc 1 95 1 is_stmt 1 view -0
 771              		.cfi_startproc
 772              		@ args = 0, pretend = 0, frame = 8
 773              		@ frame_needed = 0, uses_anonymous_args = 0
 774              		.loc 1 95 1 is_stmt 0 view .LVU141
 775 0000 30B5     		push	{r4, r5, lr}
 776              	.LCFI30:
 777              		.cfi_def_cfa_offset 12
 778              		.cfi_offset 4, -12
 779              		.cfi_offset 5, -8
 780              		.cfi_offset 14, -4
 781 0002 85B0     		sub	sp, sp, #20
ARM GAS  C:\Users\MOROSH~1\AppData\Local\Temp\ccO8NVXv.s 			page 16


 782              	.LCFI31:
 783              		.cfi_def_cfa_offset 32
 784 0004 0446     		mov	r4, r0
 785 0006 0D46     		mov	r5, r1
  96:Core/Src/u8g2/Src/u8g2_d_setup.c ****   uint8_t tile_buf_height;
 786              		.loc 1 96 3 is_stmt 1 view .LVU142
  97:Core/Src/u8g2/Src/u8g2_d_setup.c ****   uint8_t *buf;
 787              		.loc 1 97 3 view .LVU143
  98:Core/Src/u8g2/Src/u8g2_d_setup.c ****   u8g2_SetupDisplay(u8g2, u8x8_d_ssd1305_128x32_noname, u8x8_cad_ssd13xx_i2c, byte_cb, gpio_and_del
 788              		.loc 1 98 3 view .LVU144
 789 0008 0093     		str	r3, [sp]
 790 000a 1346     		mov	r3, r2
 791              	.LVL101:
 792              		.loc 1 98 3 is_stmt 0 view .LVU145
 793 000c 084A     		ldr	r2, .L43
 794              	.LVL102:
 795              		.loc 1 98 3 view .LVU146
 796 000e 0949     		ldr	r1, .L43+4
 797              	.LVL103:
 798              		.loc 1 98 3 view .LVU147
 799 0010 FFF7FEFF 		bl	u8x8_Setup
 800              	.LVL104:
  99:Core/Src/u8g2/Src/u8g2_d_setup.c ****   buf = u8g2_m_16_4_f(&tile_buf_height);
 801              		.loc 1 99 3 is_stmt 1 view .LVU148
 802              		.loc 1 99 9 is_stmt 0 view .LVU149
 803 0014 0DF10F00 		add	r0, sp, #15
 804 0018 FFF7FEFF 		bl	u8g2_m_16_4_f
 805              	.LVL105:
 806 001c 0146     		mov	r1, r0
 807              	.LVL106:
 100:Core/Src/u8g2/Src/u8g2_d_setup.c ****   u8g2_SetupBuffer(u8g2, buf, tile_buf_height, u8g2_ll_hvline_vertical_top_lsb, rotation);
 808              		.loc 1 100 3 is_stmt 1 view .LVU150
 809 001e 0095     		str	r5, [sp]
 810 0020 054B     		ldr	r3, .L43+8
 811 0022 9DF80F20 		ldrb	r2, [sp, #15]	@ zero_extendqisi2
 812 0026 2046     		mov	r0, r4
 813              	.LVL107:
 814              		.loc 1 100 3 is_stmt 0 view .LVU151
 815 0028 FFF7FEFF 		bl	u8g2_SetupBuffer
 816              	.LVL108:
 101:Core/Src/u8g2/Src/u8g2_d_setup.c **** }
 817              		.loc 1 101 1 view .LVU152
 818 002c 05B0     		add	sp, sp, #20
 819              	.LCFI32:
 820              		.cfi_def_cfa_offset 12
 821              		@ sp needed
 822 002e 30BD     		pop	{r4, r5, pc}
 823              	.LVL109:
 824              	.L44:
 825              		.loc 1 101 1 view .LVU153
 826              		.align	2
 827              	.L43:
 828 0030 00000000 		.word	u8x8_cad_ssd13xx_i2c
 829 0034 00000000 		.word	u8x8_d_ssd1305_128x32_noname
 830 0038 00000000 		.word	u8g2_ll_hvline_vertical_top_lsb
 831              		.cfi_endproc
 832              	.LFE10:
ARM GAS  C:\Users\MOROSH~1\AppData\Local\Temp\ccO8NVXv.s 			page 17


 834              		.section	.text.u8g2_Setup_ssd1305_i2c_128x32_adafruit_f,"ax",%progbits
 835              		.align	1
 836              		.global	u8g2_Setup_ssd1305_i2c_128x32_adafruit_f
 837              		.syntax unified
 838              		.thumb
 839              		.thumb_func
 841              	u8g2_Setup_ssd1305_i2c_128x32_adafruit_f:
 842              	.LVL110:
 843              	.LFB11:
 102:Core/Src/u8g2/Src/u8g2_d_setup.c **** void u8g2_Setup_ssd1305_i2c_128x32_adafruit_f(u8g2_t *u8g2, const u8g2_cb_t *rotation, u8x8_msg_cb 
 103:Core/Src/u8g2/Src/u8g2_d_setup.c **** {
 844              		.loc 1 103 1 is_stmt 1 view -0
 845              		.cfi_startproc
 846              		@ args = 0, pretend = 0, frame = 8
 847              		@ frame_needed = 0, uses_anonymous_args = 0
 848              		.loc 1 103 1 is_stmt 0 view .LVU155
 849 0000 30B5     		push	{r4, r5, lr}
 850              	.LCFI33:
 851              		.cfi_def_cfa_offset 12
 852              		.cfi_offset 4, -12
 853              		.cfi_offset 5, -8
 854              		.cfi_offset 14, -4
 855 0002 85B0     		sub	sp, sp, #20
 856              	.LCFI34:
 857              		.cfi_def_cfa_offset 32
 858 0004 0446     		mov	r4, r0
 859 0006 0D46     		mov	r5, r1
 104:Core/Src/u8g2/Src/u8g2_d_setup.c ****   uint8_t tile_buf_height;
 860              		.loc 1 104 3 is_stmt 1 view .LVU156
 105:Core/Src/u8g2/Src/u8g2_d_setup.c ****   uint8_t *buf;
 861              		.loc 1 105 3 view .LVU157
 106:Core/Src/u8g2/Src/u8g2_d_setup.c ****   u8g2_SetupDisplay(u8g2, u8x8_d_ssd1305_128x32_adafruit, u8x8_cad_ssd13xx_i2c, byte_cb, gpio_and_d
 862              		.loc 1 106 3 view .LVU158
 863 0008 0093     		str	r3, [sp]
 864 000a 1346     		mov	r3, r2
 865              	.LVL111:
 866              		.loc 1 106 3 is_stmt 0 view .LVU159
 867 000c 084A     		ldr	r2, .L47
 868              	.LVL112:
 869              		.loc 1 106 3 view .LVU160
 870 000e 0949     		ldr	r1, .L47+4
 871              	.LVL113:
 872              		.loc 1 106 3 view .LVU161
 873 0010 FFF7FEFF 		bl	u8x8_Setup
 874              	.LVL114:
 107:Core/Src/u8g2/Src/u8g2_d_setup.c ****   buf = u8g2_m_16_4_f(&tile_buf_height);
 875              		.loc 1 107 3 is_stmt 1 view .LVU162
 876              		.loc 1 107 9 is_stmt 0 view .LVU163
 877 0014 0DF10F00 		add	r0, sp, #15
 878 0018 FFF7FEFF 		bl	u8g2_m_16_4_f
 879              	.LVL115:
 880 001c 0146     		mov	r1, r0
 881              	.LVL116:
 108:Core/Src/u8g2/Src/u8g2_d_setup.c ****   u8g2_SetupBuffer(u8g2, buf, tile_buf_height, u8g2_ll_hvline_vertical_top_lsb, rotation);
 882              		.loc 1 108 3 is_stmt 1 view .LVU164
 883 001e 0095     		str	r5, [sp]
 884 0020 054B     		ldr	r3, .L47+8
ARM GAS  C:\Users\MOROSH~1\AppData\Local\Temp\ccO8NVXv.s 			page 18


 885 0022 9DF80F20 		ldrb	r2, [sp, #15]	@ zero_extendqisi2
 886 0026 2046     		mov	r0, r4
 887              	.LVL117:
 888              		.loc 1 108 3 is_stmt 0 view .LVU165
 889 0028 FFF7FEFF 		bl	u8g2_SetupBuffer
 890              	.LVL118:
 109:Core/Src/u8g2/Src/u8g2_d_setup.c **** }
 891              		.loc 1 109 1 view .LVU166
 892 002c 05B0     		add	sp, sp, #20
 893              	.LCFI35:
 894              		.cfi_def_cfa_offset 12
 895              		@ sp needed
 896 002e 30BD     		pop	{r4, r5, pc}
 897              	.LVL119:
 898              	.L48:
 899              		.loc 1 109 1 view .LVU167
 900              		.align	2
 901              	.L47:
 902 0030 00000000 		.word	u8x8_cad_ssd13xx_i2c
 903 0034 00000000 		.word	u8x8_d_ssd1305_128x32_adafruit
 904 0038 00000000 		.word	u8g2_ll_hvline_vertical_top_lsb
 905              		.cfi_endproc
 906              	.LFE11:
 908              		.section	.text.u8g2_Setup_ssd1305_128x64_adafruit_1,"ax",%progbits
 909              		.align	1
 910              		.global	u8g2_Setup_ssd1305_128x64_adafruit_1
 911              		.syntax unified
 912              		.thumb
 913              		.thumb_func
 915              	u8g2_Setup_ssd1305_128x64_adafruit_1:
 916              	.LVL120:
 917              	.LFB12:
 110:Core/Src/u8g2/Src/u8g2_d_setup.c **** /* ssd1305 */
 111:Core/Src/u8g2/Src/u8g2_d_setup.c **** /* ssd1305 1 */
 112:Core/Src/u8g2/Src/u8g2_d_setup.c **** void u8g2_Setup_ssd1305_128x64_adafruit_1(u8g2_t *u8g2, const u8g2_cb_t *rotation, u8x8_msg_cb byte
 113:Core/Src/u8g2/Src/u8g2_d_setup.c **** {
 918              		.loc 1 113 1 is_stmt 1 view -0
 919              		.cfi_startproc
 920              		@ args = 0, pretend = 0, frame = 8
 921              		@ frame_needed = 0, uses_anonymous_args = 0
 922              		.loc 1 113 1 is_stmt 0 view .LVU169
 923 0000 30B5     		push	{r4, r5, lr}
 924              	.LCFI36:
 925              		.cfi_def_cfa_offset 12
 926              		.cfi_offset 4, -12
 927              		.cfi_offset 5, -8
 928              		.cfi_offset 14, -4
 929 0002 85B0     		sub	sp, sp, #20
 930              	.LCFI37:
 931              		.cfi_def_cfa_offset 32
 932 0004 0446     		mov	r4, r0
 933 0006 0D46     		mov	r5, r1
 114:Core/Src/u8g2/Src/u8g2_d_setup.c ****   uint8_t tile_buf_height;
 934              		.loc 1 114 3 is_stmt 1 view .LVU170
 115:Core/Src/u8g2/Src/u8g2_d_setup.c ****   uint8_t *buf;
 935              		.loc 1 115 3 view .LVU171
 116:Core/Src/u8g2/Src/u8g2_d_setup.c ****   u8g2_SetupDisplay(u8g2, u8x8_d_ssd1305_128x64_adafruit, u8x8_cad_001, byte_cb, gpio_and_delay_cb)
ARM GAS  C:\Users\MOROSH~1\AppData\Local\Temp\ccO8NVXv.s 			page 19


 936              		.loc 1 116 3 view .LVU172
 937 0008 0093     		str	r3, [sp]
 938 000a 1346     		mov	r3, r2
 939              	.LVL121:
 940              		.loc 1 116 3 is_stmt 0 view .LVU173
 941 000c 084A     		ldr	r2, .L51
 942              	.LVL122:
 943              		.loc 1 116 3 view .LVU174
 944 000e 0949     		ldr	r1, .L51+4
 945              	.LVL123:
 946              		.loc 1 116 3 view .LVU175
 947 0010 FFF7FEFF 		bl	u8x8_Setup
 948              	.LVL124:
 117:Core/Src/u8g2/Src/u8g2_d_setup.c ****   buf = u8g2_m_16_8_1(&tile_buf_height);
 949              		.loc 1 117 3 is_stmt 1 view .LVU176
 950              		.loc 1 117 9 is_stmt 0 view .LVU177
 951 0014 0DF10F00 		add	r0, sp, #15
 952 0018 FFF7FEFF 		bl	u8g2_m_16_8_1
 953              	.LVL125:
 954 001c 0146     		mov	r1, r0
 955              	.LVL126:
 118:Core/Src/u8g2/Src/u8g2_d_setup.c ****   u8g2_SetupBuffer(u8g2, buf, tile_buf_height, u8g2_ll_hvline_vertical_top_lsb, rotation);
 956              		.loc 1 118 3 is_stmt 1 view .LVU178
 957 001e 0095     		str	r5, [sp]
 958 0020 054B     		ldr	r3, .L51+8
 959 0022 9DF80F20 		ldrb	r2, [sp, #15]	@ zero_extendqisi2
 960 0026 2046     		mov	r0, r4
 961              	.LVL127:
 962              		.loc 1 118 3 is_stmt 0 view .LVU179
 963 0028 FFF7FEFF 		bl	u8g2_SetupBuffer
 964              	.LVL128:
 119:Core/Src/u8g2/Src/u8g2_d_setup.c **** }
 965              		.loc 1 119 1 view .LVU180
 966 002c 05B0     		add	sp, sp, #20
 967              	.LCFI38:
 968              		.cfi_def_cfa_offset 12
 969              		@ sp needed
 970 002e 30BD     		pop	{r4, r5, pc}
 971              	.LVL129:
 972              	.L52:
 973              		.loc 1 119 1 view .LVU181
 974              		.align	2
 975              	.L51:
 976 0030 00000000 		.word	u8x8_cad_001
 977 0034 00000000 		.word	u8x8_d_ssd1305_128x64_adafruit
 978 0038 00000000 		.word	u8g2_ll_hvline_vertical_top_lsb
 979              		.cfi_endproc
 980              	.LFE12:
 982              		.section	.text.u8g2_Setup_ssd1305_128x64_raystar_1,"ax",%progbits
 983              		.align	1
 984              		.global	u8g2_Setup_ssd1305_128x64_raystar_1
 985              		.syntax unified
 986              		.thumb
 987              		.thumb_func
 989              	u8g2_Setup_ssd1305_128x64_raystar_1:
 990              	.LVL130:
 991              	.LFB13:
ARM GAS  C:\Users\MOROSH~1\AppData\Local\Temp\ccO8NVXv.s 			page 20


 120:Core/Src/u8g2/Src/u8g2_d_setup.c **** void u8g2_Setup_ssd1305_128x64_raystar_1(u8g2_t *u8g2, const u8g2_cb_t *rotation, u8x8_msg_cb byte_
 121:Core/Src/u8g2/Src/u8g2_d_setup.c **** {
 992              		.loc 1 121 1 is_stmt 1 view -0
 993              		.cfi_startproc
 994              		@ args = 0, pretend = 0, frame = 8
 995              		@ frame_needed = 0, uses_anonymous_args = 0
 996              		.loc 1 121 1 is_stmt 0 view .LVU183
 997 0000 30B5     		push	{r4, r5, lr}
 998              	.LCFI39:
 999              		.cfi_def_cfa_offset 12
 1000              		.cfi_offset 4, -12
 1001              		.cfi_offset 5, -8
 1002              		.cfi_offset 14, -4
 1003 0002 85B0     		sub	sp, sp, #20
 1004              	.LCFI40:
 1005              		.cfi_def_cfa_offset 32
 1006 0004 0446     		mov	r4, r0
 1007 0006 0D46     		mov	r5, r1
 122:Core/Src/u8g2/Src/u8g2_d_setup.c ****   uint8_t tile_buf_height;
 1008              		.loc 1 122 3 is_stmt 1 view .LVU184
 123:Core/Src/u8g2/Src/u8g2_d_setup.c ****   uint8_t *buf;
 1009              		.loc 1 123 3 view .LVU185
 124:Core/Src/u8g2/Src/u8g2_d_setup.c ****   u8g2_SetupDisplay(u8g2, u8x8_d_ssd1305_128x64_raystar, u8x8_cad_001, byte_cb, gpio_and_delay_cb);
 1010              		.loc 1 124 3 view .LVU186
 1011 0008 0093     		str	r3, [sp]
 1012 000a 1346     		mov	r3, r2
 1013              	.LVL131:
 1014              		.loc 1 124 3 is_stmt 0 view .LVU187
 1015 000c 084A     		ldr	r2, .L55
 1016              	.LVL132:
 1017              		.loc 1 124 3 view .LVU188
 1018 000e 0949     		ldr	r1, .L55+4
 1019              	.LVL133:
 1020              		.loc 1 124 3 view .LVU189
 1021 0010 FFF7FEFF 		bl	u8x8_Setup
 1022              	.LVL134:
 125:Core/Src/u8g2/Src/u8g2_d_setup.c ****   buf = u8g2_m_16_8_1(&tile_buf_height);
 1023              		.loc 1 125 3 is_stmt 1 view .LVU190
 1024              		.loc 1 125 9 is_stmt 0 view .LVU191
 1025 0014 0DF10F00 		add	r0, sp, #15
 1026 0018 FFF7FEFF 		bl	u8g2_m_16_8_1
 1027              	.LVL135:
 1028 001c 0146     		mov	r1, r0
 1029              	.LVL136:
 126:Core/Src/u8g2/Src/u8g2_d_setup.c ****   u8g2_SetupBuffer(u8g2, buf, tile_buf_height, u8g2_ll_hvline_vertical_top_lsb, rotation);
 1030              		.loc 1 126 3 is_stmt 1 view .LVU192
 1031 001e 0095     		str	r5, [sp]
 1032 0020 054B     		ldr	r3, .L55+8
 1033 0022 9DF80F20 		ldrb	r2, [sp, #15]	@ zero_extendqisi2
 1034 0026 2046     		mov	r0, r4
 1035              	.LVL137:
 1036              		.loc 1 126 3 is_stmt 0 view .LVU193
 1037 0028 FFF7FEFF 		bl	u8g2_SetupBuffer
 1038              	.LVL138:
 127:Core/Src/u8g2/Src/u8g2_d_setup.c **** }
 1039              		.loc 1 127 1 view .LVU194
 1040 002c 05B0     		add	sp, sp, #20
ARM GAS  C:\Users\MOROSH~1\AppData\Local\Temp\ccO8NVXv.s 			page 21


 1041              	.LCFI41:
 1042              		.cfi_def_cfa_offset 12
 1043              		@ sp needed
 1044 002e 30BD     		pop	{r4, r5, pc}
 1045              	.LVL139:
 1046              	.L56:
 1047              		.loc 1 127 1 view .LVU195
 1048              		.align	2
 1049              	.L55:
 1050 0030 00000000 		.word	u8x8_cad_001
 1051 0034 00000000 		.word	u8x8_d_ssd1305_128x64_raystar
 1052 0038 00000000 		.word	u8g2_ll_hvline_vertical_top_lsb
 1053              		.cfi_endproc
 1054              	.LFE13:
 1056              		.section	.text.u8g2_Setup_ssd1305_128x64_adafruit_2,"ax",%progbits
 1057              		.align	1
 1058              		.global	u8g2_Setup_ssd1305_128x64_adafruit_2
 1059              		.syntax unified
 1060              		.thumb
 1061              		.thumb_func
 1063              	u8g2_Setup_ssd1305_128x64_adafruit_2:
 1064              	.LVL140:
 1065              	.LFB14:
 128:Core/Src/u8g2/Src/u8g2_d_setup.c **** /* ssd1305 2 */
 129:Core/Src/u8g2/Src/u8g2_d_setup.c **** void u8g2_Setup_ssd1305_128x64_adafruit_2(u8g2_t *u8g2, const u8g2_cb_t *rotation, u8x8_msg_cb byte
 130:Core/Src/u8g2/Src/u8g2_d_setup.c **** {
 1066              		.loc 1 130 1 is_stmt 1 view -0
 1067              		.cfi_startproc
 1068              		@ args = 0, pretend = 0, frame = 8
 1069              		@ frame_needed = 0, uses_anonymous_args = 0
 1070              		.loc 1 130 1 is_stmt 0 view .LVU197
 1071 0000 30B5     		push	{r4, r5, lr}
 1072              	.LCFI42:
 1073              		.cfi_def_cfa_offset 12
 1074              		.cfi_offset 4, -12
 1075              		.cfi_offset 5, -8
 1076              		.cfi_offset 14, -4
 1077 0002 85B0     		sub	sp, sp, #20
 1078              	.LCFI43:
 1079              		.cfi_def_cfa_offset 32
 1080 0004 0446     		mov	r4, r0
 1081 0006 0D46     		mov	r5, r1
 131:Core/Src/u8g2/Src/u8g2_d_setup.c ****   uint8_t tile_buf_height;
 1082              		.loc 1 131 3 is_stmt 1 view .LVU198
 132:Core/Src/u8g2/Src/u8g2_d_setup.c ****   uint8_t *buf;
 1083              		.loc 1 132 3 view .LVU199
 133:Core/Src/u8g2/Src/u8g2_d_setup.c ****   u8g2_SetupDisplay(u8g2, u8x8_d_ssd1305_128x64_adafruit, u8x8_cad_001, byte_cb, gpio_and_delay_cb)
 1084              		.loc 1 133 3 view .LVU200
 1085 0008 0093     		str	r3, [sp]
 1086 000a 1346     		mov	r3, r2
 1087              	.LVL141:
 1088              		.loc 1 133 3 is_stmt 0 view .LVU201
 1089 000c 084A     		ldr	r2, .L59
 1090              	.LVL142:
 1091              		.loc 1 133 3 view .LVU202
 1092 000e 0949     		ldr	r1, .L59+4
 1093              	.LVL143:
ARM GAS  C:\Users\MOROSH~1\AppData\Local\Temp\ccO8NVXv.s 			page 22


 1094              		.loc 1 133 3 view .LVU203
 1095 0010 FFF7FEFF 		bl	u8x8_Setup
 1096              	.LVL144:
 134:Core/Src/u8g2/Src/u8g2_d_setup.c ****   buf = u8g2_m_16_8_2(&tile_buf_height);
 1097              		.loc 1 134 3 is_stmt 1 view .LVU204
 1098              		.loc 1 134 9 is_stmt 0 view .LVU205
 1099 0014 0DF10F00 		add	r0, sp, #15
 1100 0018 FFF7FEFF 		bl	u8g2_m_16_8_2
 1101              	.LVL145:
 1102 001c 0146     		mov	r1, r0
 1103              	.LVL146:
 135:Core/Src/u8g2/Src/u8g2_d_setup.c ****   u8g2_SetupBuffer(u8g2, buf, tile_buf_height, u8g2_ll_hvline_vertical_top_lsb, rotation);
 1104              		.loc 1 135 3 is_stmt 1 view .LVU206
 1105 001e 0095     		str	r5, [sp]
 1106 0020 054B     		ldr	r3, .L59+8
 1107 0022 9DF80F20 		ldrb	r2, [sp, #15]	@ zero_extendqisi2
 1108 0026 2046     		mov	r0, r4
 1109              	.LVL147:
 1110              		.loc 1 135 3 is_stmt 0 view .LVU207
 1111 0028 FFF7FEFF 		bl	u8g2_SetupBuffer
 1112              	.LVL148:
 136:Core/Src/u8g2/Src/u8g2_d_setup.c **** }
 1113              		.loc 1 136 1 view .LVU208
 1114 002c 05B0     		add	sp, sp, #20
 1115              	.LCFI44:
 1116              		.cfi_def_cfa_offset 12
 1117              		@ sp needed
 1118 002e 30BD     		pop	{r4, r5, pc}
 1119              	.LVL149:
 1120              	.L60:
 1121              		.loc 1 136 1 view .LVU209
 1122              		.align	2
 1123              	.L59:
 1124 0030 00000000 		.word	u8x8_cad_001
 1125 0034 00000000 		.word	u8x8_d_ssd1305_128x64_adafruit
 1126 0038 00000000 		.word	u8g2_ll_hvline_vertical_top_lsb
 1127              		.cfi_endproc
 1128              	.LFE14:
 1130              		.section	.text.u8g2_Setup_ssd1305_128x64_raystar_2,"ax",%progbits
 1131              		.align	1
 1132              		.global	u8g2_Setup_ssd1305_128x64_raystar_2
 1133              		.syntax unified
 1134              		.thumb
 1135              		.thumb_func
 1137              	u8g2_Setup_ssd1305_128x64_raystar_2:
 1138              	.LVL150:
 1139              	.LFB15:
 137:Core/Src/u8g2/Src/u8g2_d_setup.c **** void u8g2_Setup_ssd1305_128x64_raystar_2(u8g2_t *u8g2, const u8g2_cb_t *rotation, u8x8_msg_cb byte_
 138:Core/Src/u8g2/Src/u8g2_d_setup.c **** {
 1140              		.loc 1 138 1 is_stmt 1 view -0
 1141              		.cfi_startproc
 1142              		@ args = 0, pretend = 0, frame = 8
 1143              		@ frame_needed = 0, uses_anonymous_args = 0
 1144              		.loc 1 138 1 is_stmt 0 view .LVU211
 1145 0000 30B5     		push	{r4, r5, lr}
 1146              	.LCFI45:
 1147              		.cfi_def_cfa_offset 12
ARM GAS  C:\Users\MOROSH~1\AppData\Local\Temp\ccO8NVXv.s 			page 23


 1148              		.cfi_offset 4, -12
 1149              		.cfi_offset 5, -8
 1150              		.cfi_offset 14, -4
 1151 0002 85B0     		sub	sp, sp, #20
 1152              	.LCFI46:
 1153              		.cfi_def_cfa_offset 32
 1154 0004 0446     		mov	r4, r0
 1155 0006 0D46     		mov	r5, r1
 139:Core/Src/u8g2/Src/u8g2_d_setup.c ****   uint8_t tile_buf_height;
 1156              		.loc 1 139 3 is_stmt 1 view .LVU212
 140:Core/Src/u8g2/Src/u8g2_d_setup.c ****   uint8_t *buf;
 1157              		.loc 1 140 3 view .LVU213
 141:Core/Src/u8g2/Src/u8g2_d_setup.c ****   u8g2_SetupDisplay(u8g2, u8x8_d_ssd1305_128x64_raystar, u8x8_cad_001, byte_cb, gpio_and_delay_cb);
 1158              		.loc 1 141 3 view .LVU214
 1159 0008 0093     		str	r3, [sp]
 1160 000a 1346     		mov	r3, r2
 1161              	.LVL151:
 1162              		.loc 1 141 3 is_stmt 0 view .LVU215
 1163 000c 084A     		ldr	r2, .L63
 1164              	.LVL152:
 1165              		.loc 1 141 3 view .LVU216
 1166 000e 0949     		ldr	r1, .L63+4
 1167              	.LVL153:
 1168              		.loc 1 141 3 view .LVU217
 1169 0010 FFF7FEFF 		bl	u8x8_Setup
 1170              	.LVL154:
 142:Core/Src/u8g2/Src/u8g2_d_setup.c ****   buf = u8g2_m_16_8_2(&tile_buf_height);
 1171              		.loc 1 142 3 is_stmt 1 view .LVU218
 1172              		.loc 1 142 9 is_stmt 0 view .LVU219
 1173 0014 0DF10F00 		add	r0, sp, #15
 1174 0018 FFF7FEFF 		bl	u8g2_m_16_8_2
 1175              	.LVL155:
 1176 001c 0146     		mov	r1, r0
 1177              	.LVL156:
 143:Core/Src/u8g2/Src/u8g2_d_setup.c ****   u8g2_SetupBuffer(u8g2, buf, tile_buf_height, u8g2_ll_hvline_vertical_top_lsb, rotation);
 1178              		.loc 1 143 3 is_stmt 1 view .LVU220
 1179 001e 0095     		str	r5, [sp]
 1180 0020 054B     		ldr	r3, .L63+8
 1181 0022 9DF80F20 		ldrb	r2, [sp, #15]	@ zero_extendqisi2
 1182 0026 2046     		mov	r0, r4
 1183              	.LVL157:
 1184              		.loc 1 143 3 is_stmt 0 view .LVU221
 1185 0028 FFF7FEFF 		bl	u8g2_SetupBuffer
 1186              	.LVL158:
 144:Core/Src/u8g2/Src/u8g2_d_setup.c **** }
 1187              		.loc 1 144 1 view .LVU222
 1188 002c 05B0     		add	sp, sp, #20
 1189              	.LCFI47:
 1190              		.cfi_def_cfa_offset 12
 1191              		@ sp needed
 1192 002e 30BD     		pop	{r4, r5, pc}
 1193              	.LVL159:
 1194              	.L64:
 1195              		.loc 1 144 1 view .LVU223
 1196              		.align	2
 1197              	.L63:
 1198 0030 00000000 		.word	u8x8_cad_001
ARM GAS  C:\Users\MOROSH~1\AppData\Local\Temp\ccO8NVXv.s 			page 24


 1199 0034 00000000 		.word	u8x8_d_ssd1305_128x64_raystar
 1200 0038 00000000 		.word	u8g2_ll_hvline_vertical_top_lsb
 1201              		.cfi_endproc
 1202              	.LFE15:
 1204              		.section	.text.u8g2_Setup_ssd1305_128x64_adafruit_f,"ax",%progbits
 1205              		.align	1
 1206              		.global	u8g2_Setup_ssd1305_128x64_adafruit_f
 1207              		.syntax unified
 1208              		.thumb
 1209              		.thumb_func
 1211              	u8g2_Setup_ssd1305_128x64_adafruit_f:
 1212              	.LVL160:
 1213              	.LFB16:
 145:Core/Src/u8g2/Src/u8g2_d_setup.c **** /* ssd1305 f */
 146:Core/Src/u8g2/Src/u8g2_d_setup.c **** void u8g2_Setup_ssd1305_128x64_adafruit_f(u8g2_t *u8g2, const u8g2_cb_t *rotation, u8x8_msg_cb byte
 147:Core/Src/u8g2/Src/u8g2_d_setup.c **** {
 1214              		.loc 1 147 1 is_stmt 1 view -0
 1215              		.cfi_startproc
 1216              		@ args = 0, pretend = 0, frame = 8
 1217              		@ frame_needed = 0, uses_anonymous_args = 0
 1218              		.loc 1 147 1 is_stmt 0 view .LVU225
 1219 0000 30B5     		push	{r4, r5, lr}
 1220              	.LCFI48:
 1221              		.cfi_def_cfa_offset 12
 1222              		.cfi_offset 4, -12
 1223              		.cfi_offset 5, -8
 1224              		.cfi_offset 14, -4
 1225 0002 85B0     		sub	sp, sp, #20
 1226              	.LCFI49:
 1227              		.cfi_def_cfa_offset 32
 1228 0004 0446     		mov	r4, r0
 1229 0006 0D46     		mov	r5, r1
 148:Core/Src/u8g2/Src/u8g2_d_setup.c ****   uint8_t tile_buf_height;
 1230              		.loc 1 148 3 is_stmt 1 view .LVU226
 149:Core/Src/u8g2/Src/u8g2_d_setup.c ****   uint8_t *buf;
 1231              		.loc 1 149 3 view .LVU227
 150:Core/Src/u8g2/Src/u8g2_d_setup.c ****   u8g2_SetupDisplay(u8g2, u8x8_d_ssd1305_128x64_adafruit, u8x8_cad_001, byte_cb, gpio_and_delay_cb)
 1232              		.loc 1 150 3 view .LVU228
 1233 0008 0093     		str	r3, [sp]
 1234 000a 1346     		mov	r3, r2
 1235              	.LVL161:
 1236              		.loc 1 150 3 is_stmt 0 view .LVU229
 1237 000c 084A     		ldr	r2, .L67
 1238              	.LVL162:
 1239              		.loc 1 150 3 view .LVU230
 1240 000e 0949     		ldr	r1, .L67+4
 1241              	.LVL163:
 1242              		.loc 1 150 3 view .LVU231
 1243 0010 FFF7FEFF 		bl	u8x8_Setup
 1244              	.LVL164:
 151:Core/Src/u8g2/Src/u8g2_d_setup.c ****   buf = u8g2_m_16_8_f(&tile_buf_height);
 1245              		.loc 1 151 3 is_stmt 1 view .LVU232
 1246              		.loc 1 151 9 is_stmt 0 view .LVU233
 1247 0014 0DF10F00 		add	r0, sp, #15
 1248 0018 FFF7FEFF 		bl	u8g2_m_16_8_f
 1249              	.LVL165:
 1250 001c 0146     		mov	r1, r0
ARM GAS  C:\Users\MOROSH~1\AppData\Local\Temp\ccO8NVXv.s 			page 25


 1251              	.LVL166:
 152:Core/Src/u8g2/Src/u8g2_d_setup.c ****   u8g2_SetupBuffer(u8g2, buf, tile_buf_height, u8g2_ll_hvline_vertical_top_lsb, rotation);
 1252              		.loc 1 152 3 is_stmt 1 view .LVU234
 1253 001e 0095     		str	r5, [sp]
 1254 0020 054B     		ldr	r3, .L67+8
 1255 0022 9DF80F20 		ldrb	r2, [sp, #15]	@ zero_extendqisi2
 1256 0026 2046     		mov	r0, r4
 1257              	.LVL167:
 1258              		.loc 1 152 3 is_stmt 0 view .LVU235
 1259 0028 FFF7FEFF 		bl	u8g2_SetupBuffer
 1260              	.LVL168:
 153:Core/Src/u8g2/Src/u8g2_d_setup.c **** }
 1261              		.loc 1 153 1 view .LVU236
 1262 002c 05B0     		add	sp, sp, #20
 1263              	.LCFI50:
 1264              		.cfi_def_cfa_offset 12
 1265              		@ sp needed
 1266 002e 30BD     		pop	{r4, r5, pc}
 1267              	.LVL169:
 1268              	.L68:
 1269              		.loc 1 153 1 view .LVU237
 1270              		.align	2
 1271              	.L67:
 1272 0030 00000000 		.word	u8x8_cad_001
 1273 0034 00000000 		.word	u8x8_d_ssd1305_128x64_adafruit
 1274 0038 00000000 		.word	u8g2_ll_hvline_vertical_top_lsb
 1275              		.cfi_endproc
 1276              	.LFE16:
 1278              		.section	.text.u8g2_Setup_ssd1305_128x64_raystar_f,"ax",%progbits
 1279              		.align	1
 1280              		.global	u8g2_Setup_ssd1305_128x64_raystar_f
 1281              		.syntax unified
 1282              		.thumb
 1283              		.thumb_func
 1285              	u8g2_Setup_ssd1305_128x64_raystar_f:
 1286              	.LVL170:
 1287              	.LFB17:
 154:Core/Src/u8g2/Src/u8g2_d_setup.c **** void u8g2_Setup_ssd1305_128x64_raystar_f(u8g2_t *u8g2, const u8g2_cb_t *rotation, u8x8_msg_cb byte_
 155:Core/Src/u8g2/Src/u8g2_d_setup.c **** {
 1288              		.loc 1 155 1 is_stmt 1 view -0
 1289              		.cfi_startproc
 1290              		@ args = 0, pretend = 0, frame = 8
 1291              		@ frame_needed = 0, uses_anonymous_args = 0
 1292              		.loc 1 155 1 is_stmt 0 view .LVU239
 1293 0000 30B5     		push	{r4, r5, lr}
 1294              	.LCFI51:
 1295              		.cfi_def_cfa_offset 12
 1296              		.cfi_offset 4, -12
 1297              		.cfi_offset 5, -8
 1298              		.cfi_offset 14, -4
 1299 0002 85B0     		sub	sp, sp, #20
 1300              	.LCFI52:
 1301              		.cfi_def_cfa_offset 32
 1302 0004 0446     		mov	r4, r0
 1303 0006 0D46     		mov	r5, r1
 156:Core/Src/u8g2/Src/u8g2_d_setup.c ****   uint8_t tile_buf_height;
 1304              		.loc 1 156 3 is_stmt 1 view .LVU240
ARM GAS  C:\Users\MOROSH~1\AppData\Local\Temp\ccO8NVXv.s 			page 26


 157:Core/Src/u8g2/Src/u8g2_d_setup.c ****   uint8_t *buf;
 1305              		.loc 1 157 3 view .LVU241
 158:Core/Src/u8g2/Src/u8g2_d_setup.c ****   u8g2_SetupDisplay(u8g2, u8x8_d_ssd1305_128x64_raystar, u8x8_cad_001, byte_cb, gpio_and_delay_cb);
 1306              		.loc 1 158 3 view .LVU242
 1307 0008 0093     		str	r3, [sp]
 1308 000a 1346     		mov	r3, r2
 1309              	.LVL171:
 1310              		.loc 1 158 3 is_stmt 0 view .LVU243
 1311 000c 084A     		ldr	r2, .L71
 1312              	.LVL172:
 1313              		.loc 1 158 3 view .LVU244
 1314 000e 0949     		ldr	r1, .L71+4
 1315              	.LVL173:
 1316              		.loc 1 158 3 view .LVU245
 1317 0010 FFF7FEFF 		bl	u8x8_Setup
 1318              	.LVL174:
 159:Core/Src/u8g2/Src/u8g2_d_setup.c ****   buf = u8g2_m_16_8_f(&tile_buf_height);
 1319              		.loc 1 159 3 is_stmt 1 view .LVU246
 1320              		.loc 1 159 9 is_stmt 0 view .LVU247
 1321 0014 0DF10F00 		add	r0, sp, #15
 1322 0018 FFF7FEFF 		bl	u8g2_m_16_8_f
 1323              	.LVL175:
 1324 001c 0146     		mov	r1, r0
 1325              	.LVL176:
 160:Core/Src/u8g2/Src/u8g2_d_setup.c ****   u8g2_SetupBuffer(u8g2, buf, tile_buf_height, u8g2_ll_hvline_vertical_top_lsb, rotation);
 1326              		.loc 1 160 3 is_stmt 1 view .LVU248
 1327 001e 0095     		str	r5, [sp]
 1328 0020 054B     		ldr	r3, .L71+8
 1329 0022 9DF80F20 		ldrb	r2, [sp, #15]	@ zero_extendqisi2
 1330 0026 2046     		mov	r0, r4
 1331              	.LVL177:
 1332              		.loc 1 160 3 is_stmt 0 view .LVU249
 1333 0028 FFF7FEFF 		bl	u8g2_SetupBuffer
 1334              	.LVL178:
 161:Core/Src/u8g2/Src/u8g2_d_setup.c **** }
 1335              		.loc 1 161 1 view .LVU250
 1336 002c 05B0     		add	sp, sp, #20
 1337              	.LCFI53:
 1338              		.cfi_def_cfa_offset 12
 1339              		@ sp needed
 1340 002e 30BD     		pop	{r4, r5, pc}
 1341              	.LVL179:
 1342              	.L72:
 1343              		.loc 1 161 1 view .LVU251
 1344              		.align	2
 1345              	.L71:
 1346 0030 00000000 		.word	u8x8_cad_001
 1347 0034 00000000 		.word	u8x8_d_ssd1305_128x64_raystar
 1348 0038 00000000 		.word	u8g2_ll_hvline_vertical_top_lsb
 1349              		.cfi_endproc
 1350              	.LFE17:
 1352              		.section	.text.u8g2_Setup_ssd1305_i2c_128x64_adafruit_1,"ax",%progbits
 1353              		.align	1
 1354              		.global	u8g2_Setup_ssd1305_i2c_128x64_adafruit_1
 1355              		.syntax unified
 1356              		.thumb
 1357              		.thumb_func
ARM GAS  C:\Users\MOROSH~1\AppData\Local\Temp\ccO8NVXv.s 			page 27


 1359              	u8g2_Setup_ssd1305_i2c_128x64_adafruit_1:
 1360              	.LVL180:
 1361              	.LFB18:
 162:Core/Src/u8g2/Src/u8g2_d_setup.c **** /* ssd1305 */
 163:Core/Src/u8g2/Src/u8g2_d_setup.c **** /* ssd1305 1 */
 164:Core/Src/u8g2/Src/u8g2_d_setup.c **** void u8g2_Setup_ssd1305_i2c_128x64_adafruit_1(u8g2_t *u8g2, const u8g2_cb_t *rotation, u8x8_msg_cb 
 165:Core/Src/u8g2/Src/u8g2_d_setup.c **** {
 1362              		.loc 1 165 1 is_stmt 1 view -0
 1363              		.cfi_startproc
 1364              		@ args = 0, pretend = 0, frame = 8
 1365              		@ frame_needed = 0, uses_anonymous_args = 0
 1366              		.loc 1 165 1 is_stmt 0 view .LVU253
 1367 0000 30B5     		push	{r4, r5, lr}
 1368              	.LCFI54:
 1369              		.cfi_def_cfa_offset 12
 1370              		.cfi_offset 4, -12
 1371              		.cfi_offset 5, -8
 1372              		.cfi_offset 14, -4
 1373 0002 85B0     		sub	sp, sp, #20
 1374              	.LCFI55:
 1375              		.cfi_def_cfa_offset 32
 1376 0004 0446     		mov	r4, r0
 1377 0006 0D46     		mov	r5, r1
 166:Core/Src/u8g2/Src/u8g2_d_setup.c ****   uint8_t tile_buf_height;
 1378              		.loc 1 166 3 is_stmt 1 view .LVU254
 167:Core/Src/u8g2/Src/u8g2_d_setup.c ****   uint8_t *buf;
 1379              		.loc 1 167 3 view .LVU255
 168:Core/Src/u8g2/Src/u8g2_d_setup.c ****   u8g2_SetupDisplay(u8g2, u8x8_d_ssd1305_128x64_adafruit, u8x8_cad_ssd13xx_i2c, byte_cb, gpio_and_d
 1380              		.loc 1 168 3 view .LVU256
 1381 0008 0093     		str	r3, [sp]
 1382 000a 1346     		mov	r3, r2
 1383              	.LVL181:
 1384              		.loc 1 168 3 is_stmt 0 view .LVU257
 1385 000c 084A     		ldr	r2, .L75
 1386              	.LVL182:
 1387              		.loc 1 168 3 view .LVU258
 1388 000e 0949     		ldr	r1, .L75+4
 1389              	.LVL183:
 1390              		.loc 1 168 3 view .LVU259
 1391 0010 FFF7FEFF 		bl	u8x8_Setup
 1392              	.LVL184:
 169:Core/Src/u8g2/Src/u8g2_d_setup.c ****   buf = u8g2_m_16_8_1(&tile_buf_height);
 1393              		.loc 1 169 3 is_stmt 1 view .LVU260
 1394              		.loc 1 169 9 is_stmt 0 view .LVU261
 1395 0014 0DF10F00 		add	r0, sp, #15
 1396 0018 FFF7FEFF 		bl	u8g2_m_16_8_1
 1397              	.LVL185:
 1398 001c 0146     		mov	r1, r0
 1399              	.LVL186:
 170:Core/Src/u8g2/Src/u8g2_d_setup.c ****   u8g2_SetupBuffer(u8g2, buf, tile_buf_height, u8g2_ll_hvline_vertical_top_lsb, rotation);
 1400              		.loc 1 170 3 is_stmt 1 view .LVU262
 1401 001e 0095     		str	r5, [sp]
 1402 0020 054B     		ldr	r3, .L75+8
 1403 0022 9DF80F20 		ldrb	r2, [sp, #15]	@ zero_extendqisi2
 1404 0026 2046     		mov	r0, r4
 1405              	.LVL187:
 1406              		.loc 1 170 3 is_stmt 0 view .LVU263
ARM GAS  C:\Users\MOROSH~1\AppData\Local\Temp\ccO8NVXv.s 			page 28


 1407 0028 FFF7FEFF 		bl	u8g2_SetupBuffer
 1408              	.LVL188:
 171:Core/Src/u8g2/Src/u8g2_d_setup.c **** }
 1409              		.loc 1 171 1 view .LVU264
 1410 002c 05B0     		add	sp, sp, #20
 1411              	.LCFI56:
 1412              		.cfi_def_cfa_offset 12
 1413              		@ sp needed
 1414 002e 30BD     		pop	{r4, r5, pc}
 1415              	.LVL189:
 1416              	.L76:
 1417              		.loc 1 171 1 view .LVU265
 1418              		.align	2
 1419              	.L75:
 1420 0030 00000000 		.word	u8x8_cad_ssd13xx_i2c
 1421 0034 00000000 		.word	u8x8_d_ssd1305_128x64_adafruit
 1422 0038 00000000 		.word	u8g2_ll_hvline_vertical_top_lsb
 1423              		.cfi_endproc
 1424              	.LFE18:
 1426              		.section	.text.u8g2_Setup_ssd1305_i2c_128x64_raystar_1,"ax",%progbits
 1427              		.align	1
 1428              		.global	u8g2_Setup_ssd1305_i2c_128x64_raystar_1
 1429              		.syntax unified
 1430              		.thumb
 1431              		.thumb_func
 1433              	u8g2_Setup_ssd1305_i2c_128x64_raystar_1:
 1434              	.LVL190:
 1435              	.LFB19:
 172:Core/Src/u8g2/Src/u8g2_d_setup.c **** void u8g2_Setup_ssd1305_i2c_128x64_raystar_1(u8g2_t *u8g2, const u8g2_cb_t *rotation, u8x8_msg_cb b
 173:Core/Src/u8g2/Src/u8g2_d_setup.c **** {
 1436              		.loc 1 173 1 is_stmt 1 view -0
 1437              		.cfi_startproc
 1438              		@ args = 0, pretend = 0, frame = 8
 1439              		@ frame_needed = 0, uses_anonymous_args = 0
 1440              		.loc 1 173 1 is_stmt 0 view .LVU267
 1441 0000 30B5     		push	{r4, r5, lr}
 1442              	.LCFI57:
 1443              		.cfi_def_cfa_offset 12
 1444              		.cfi_offset 4, -12
 1445              		.cfi_offset 5, -8
 1446              		.cfi_offset 14, -4
 1447 0002 85B0     		sub	sp, sp, #20
 1448              	.LCFI58:
 1449              		.cfi_def_cfa_offset 32
 1450 0004 0446     		mov	r4, r0
 1451 0006 0D46     		mov	r5, r1
 174:Core/Src/u8g2/Src/u8g2_d_setup.c ****   uint8_t tile_buf_height;
 1452              		.loc 1 174 3 is_stmt 1 view .LVU268
 175:Core/Src/u8g2/Src/u8g2_d_setup.c ****   uint8_t *buf;
 1453              		.loc 1 175 3 view .LVU269
 176:Core/Src/u8g2/Src/u8g2_d_setup.c ****   u8g2_SetupDisplay(u8g2, u8x8_d_ssd1305_128x64_raystar, u8x8_cad_ssd13xx_i2c, byte_cb, gpio_and_de
 1454              		.loc 1 176 3 view .LVU270
 1455 0008 0093     		str	r3, [sp]
 1456 000a 1346     		mov	r3, r2
 1457              	.LVL191:
 1458              		.loc 1 176 3 is_stmt 0 view .LVU271
 1459 000c 084A     		ldr	r2, .L79
ARM GAS  C:\Users\MOROSH~1\AppData\Local\Temp\ccO8NVXv.s 			page 29


 1460              	.LVL192:
 1461              		.loc 1 176 3 view .LVU272
 1462 000e 0949     		ldr	r1, .L79+4
 1463              	.LVL193:
 1464              		.loc 1 176 3 view .LVU273
 1465 0010 FFF7FEFF 		bl	u8x8_Setup
 1466              	.LVL194:
 177:Core/Src/u8g2/Src/u8g2_d_setup.c ****   buf = u8g2_m_16_8_1(&tile_buf_height);
 1467              		.loc 1 177 3 is_stmt 1 view .LVU274
 1468              		.loc 1 177 9 is_stmt 0 view .LVU275
 1469 0014 0DF10F00 		add	r0, sp, #15
 1470 0018 FFF7FEFF 		bl	u8g2_m_16_8_1
 1471              	.LVL195:
 1472 001c 0146     		mov	r1, r0
 1473              	.LVL196:
 178:Core/Src/u8g2/Src/u8g2_d_setup.c ****   u8g2_SetupBuffer(u8g2, buf, tile_buf_height, u8g2_ll_hvline_vertical_top_lsb, rotation);
 1474              		.loc 1 178 3 is_stmt 1 view .LVU276
 1475 001e 0095     		str	r5, [sp]
 1476 0020 054B     		ldr	r3, .L79+8
 1477 0022 9DF80F20 		ldrb	r2, [sp, #15]	@ zero_extendqisi2
 1478 0026 2046     		mov	r0, r4
 1479              	.LVL197:
 1480              		.loc 1 178 3 is_stmt 0 view .LVU277
 1481 0028 FFF7FEFF 		bl	u8g2_SetupBuffer
 1482              	.LVL198:
 179:Core/Src/u8g2/Src/u8g2_d_setup.c **** }
 1483              		.loc 1 179 1 view .LVU278
 1484 002c 05B0     		add	sp, sp, #20
 1485              	.LCFI59:
 1486              		.cfi_def_cfa_offset 12
 1487              		@ sp needed
 1488 002e 30BD     		pop	{r4, r5, pc}
 1489              	.LVL199:
 1490              	.L80:
 1491              		.loc 1 179 1 view .LVU279
 1492              		.align	2
 1493              	.L79:
 1494 0030 00000000 		.word	u8x8_cad_ssd13xx_i2c
 1495 0034 00000000 		.word	u8x8_d_ssd1305_128x64_raystar
 1496 0038 00000000 		.word	u8g2_ll_hvline_vertical_top_lsb
 1497              		.cfi_endproc
 1498              	.LFE19:
 1500              		.section	.text.u8g2_Setup_ssd1305_i2c_128x64_adafruit_2,"ax",%progbits
 1501              		.align	1
 1502              		.global	u8g2_Setup_ssd1305_i2c_128x64_adafruit_2
 1503              		.syntax unified
 1504              		.thumb
 1505              		.thumb_func
 1507              	u8g2_Setup_ssd1305_i2c_128x64_adafruit_2:
 1508              	.LVL200:
 1509              	.LFB20:
 180:Core/Src/u8g2/Src/u8g2_d_setup.c **** /* ssd1305 2 */
 181:Core/Src/u8g2/Src/u8g2_d_setup.c **** void u8g2_Setup_ssd1305_i2c_128x64_adafruit_2(u8g2_t *u8g2, const u8g2_cb_t *rotation, u8x8_msg_cb 
 182:Core/Src/u8g2/Src/u8g2_d_setup.c **** {
 1510              		.loc 1 182 1 is_stmt 1 view -0
 1511              		.cfi_startproc
 1512              		@ args = 0, pretend = 0, frame = 8
ARM GAS  C:\Users\MOROSH~1\AppData\Local\Temp\ccO8NVXv.s 			page 30


 1513              		@ frame_needed = 0, uses_anonymous_args = 0
 1514              		.loc 1 182 1 is_stmt 0 view .LVU281
 1515 0000 30B5     		push	{r4, r5, lr}
 1516              	.LCFI60:
 1517              		.cfi_def_cfa_offset 12
 1518              		.cfi_offset 4, -12
 1519              		.cfi_offset 5, -8
 1520              		.cfi_offset 14, -4
 1521 0002 85B0     		sub	sp, sp, #20
 1522              	.LCFI61:
 1523              		.cfi_def_cfa_offset 32
 1524 0004 0446     		mov	r4, r0
 1525 0006 0D46     		mov	r5, r1
 183:Core/Src/u8g2/Src/u8g2_d_setup.c ****   uint8_t tile_buf_height;
 1526              		.loc 1 183 3 is_stmt 1 view .LVU282
 184:Core/Src/u8g2/Src/u8g2_d_setup.c ****   uint8_t *buf;
 1527              		.loc 1 184 3 view .LVU283
 185:Core/Src/u8g2/Src/u8g2_d_setup.c ****   u8g2_SetupDisplay(u8g2, u8x8_d_ssd1305_128x64_adafruit, u8x8_cad_ssd13xx_i2c, byte_cb, gpio_and_d
 1528              		.loc 1 185 3 view .LVU284
 1529 0008 0093     		str	r3, [sp]
 1530 000a 1346     		mov	r3, r2
 1531              	.LVL201:
 1532              		.loc 1 185 3 is_stmt 0 view .LVU285
 1533 000c 084A     		ldr	r2, .L83
 1534              	.LVL202:
 1535              		.loc 1 185 3 view .LVU286
 1536 000e 0949     		ldr	r1, .L83+4
 1537              	.LVL203:
 1538              		.loc 1 185 3 view .LVU287
 1539 0010 FFF7FEFF 		bl	u8x8_Setup
 1540              	.LVL204:
 186:Core/Src/u8g2/Src/u8g2_d_setup.c ****   buf = u8g2_m_16_8_2(&tile_buf_height);
 1541              		.loc 1 186 3 is_stmt 1 view .LVU288
 1542              		.loc 1 186 9 is_stmt 0 view .LVU289
 1543 0014 0DF10F00 		add	r0, sp, #15
 1544 0018 FFF7FEFF 		bl	u8g2_m_16_8_2
 1545              	.LVL205:
 1546 001c 0146     		mov	r1, r0
 1547              	.LVL206:
 187:Core/Src/u8g2/Src/u8g2_d_setup.c ****   u8g2_SetupBuffer(u8g2, buf, tile_buf_height, u8g2_ll_hvline_vertical_top_lsb, rotation);
 1548              		.loc 1 187 3 is_stmt 1 view .LVU290
 1549 001e 0095     		str	r5, [sp]
 1550 0020 054B     		ldr	r3, .L83+8
 1551 0022 9DF80F20 		ldrb	r2, [sp, #15]	@ zero_extendqisi2
 1552 0026 2046     		mov	r0, r4
 1553              	.LVL207:
 1554              		.loc 1 187 3 is_stmt 0 view .LVU291
 1555 0028 FFF7FEFF 		bl	u8g2_SetupBuffer
 1556              	.LVL208:
 188:Core/Src/u8g2/Src/u8g2_d_setup.c **** }
 1557              		.loc 1 188 1 view .LVU292
 1558 002c 05B0     		add	sp, sp, #20
 1559              	.LCFI62:
 1560              		.cfi_def_cfa_offset 12
 1561              		@ sp needed
 1562 002e 30BD     		pop	{r4, r5, pc}
 1563              	.LVL209:
ARM GAS  C:\Users\MOROSH~1\AppData\Local\Temp\ccO8NVXv.s 			page 31


 1564              	.L84:
 1565              		.loc 1 188 1 view .LVU293
 1566              		.align	2
 1567              	.L83:
 1568 0030 00000000 		.word	u8x8_cad_ssd13xx_i2c
 1569 0034 00000000 		.word	u8x8_d_ssd1305_128x64_adafruit
 1570 0038 00000000 		.word	u8g2_ll_hvline_vertical_top_lsb
 1571              		.cfi_endproc
 1572              	.LFE20:
 1574              		.section	.text.u8g2_Setup_ssd1305_i2c_128x64_raystar_2,"ax",%progbits
 1575              		.align	1
 1576              		.global	u8g2_Setup_ssd1305_i2c_128x64_raystar_2
 1577              		.syntax unified
 1578              		.thumb
 1579              		.thumb_func
 1581              	u8g2_Setup_ssd1305_i2c_128x64_raystar_2:
 1582              	.LVL210:
 1583              	.LFB21:
 189:Core/Src/u8g2/Src/u8g2_d_setup.c **** void u8g2_Setup_ssd1305_i2c_128x64_raystar_2(u8g2_t *u8g2, const u8g2_cb_t *rotation, u8x8_msg_cb b
 190:Core/Src/u8g2/Src/u8g2_d_setup.c **** {
 1584              		.loc 1 190 1 is_stmt 1 view -0
 1585              		.cfi_startproc
 1586              		@ args = 0, pretend = 0, frame = 8
 1587              		@ frame_needed = 0, uses_anonymous_args = 0
 1588              		.loc 1 190 1 is_stmt 0 view .LVU295
 1589 0000 30B5     		push	{r4, r5, lr}
 1590              	.LCFI63:
 1591              		.cfi_def_cfa_offset 12
 1592              		.cfi_offset 4, -12
 1593              		.cfi_offset 5, -8
 1594              		.cfi_offset 14, -4
 1595 0002 85B0     		sub	sp, sp, #20
 1596              	.LCFI64:
 1597              		.cfi_def_cfa_offset 32
 1598 0004 0446     		mov	r4, r0
 1599 0006 0D46     		mov	r5, r1
 191:Core/Src/u8g2/Src/u8g2_d_setup.c ****   uint8_t tile_buf_height;
 1600              		.loc 1 191 3 is_stmt 1 view .LVU296
 192:Core/Src/u8g2/Src/u8g2_d_setup.c ****   uint8_t *buf;
 1601              		.loc 1 192 3 view .LVU297
 193:Core/Src/u8g2/Src/u8g2_d_setup.c ****   u8g2_SetupDisplay(u8g2, u8x8_d_ssd1305_128x64_raystar, u8x8_cad_ssd13xx_i2c, byte_cb, gpio_and_de
 1602              		.loc 1 193 3 view .LVU298
 1603 0008 0093     		str	r3, [sp]
 1604 000a 1346     		mov	r3, r2
 1605              	.LVL211:
 1606              		.loc 1 193 3 is_stmt 0 view .LVU299
 1607 000c 084A     		ldr	r2, .L87
 1608              	.LVL212:
 1609              		.loc 1 193 3 view .LVU300
 1610 000e 0949     		ldr	r1, .L87+4
 1611              	.LVL213:
 1612              		.loc 1 193 3 view .LVU301
 1613 0010 FFF7FEFF 		bl	u8x8_Setup
 1614              	.LVL214:
 194:Core/Src/u8g2/Src/u8g2_d_setup.c ****   buf = u8g2_m_16_8_2(&tile_buf_height);
 1615              		.loc 1 194 3 is_stmt 1 view .LVU302
 1616              		.loc 1 194 9 is_stmt 0 view .LVU303
ARM GAS  C:\Users\MOROSH~1\AppData\Local\Temp\ccO8NVXv.s 			page 32


 1617 0014 0DF10F00 		add	r0, sp, #15
 1618 0018 FFF7FEFF 		bl	u8g2_m_16_8_2
 1619              	.LVL215:
 1620 001c 0146     		mov	r1, r0
 1621              	.LVL216:
 195:Core/Src/u8g2/Src/u8g2_d_setup.c ****   u8g2_SetupBuffer(u8g2, buf, tile_buf_height, u8g2_ll_hvline_vertical_top_lsb, rotation);
 1622              		.loc 1 195 3 is_stmt 1 view .LVU304
 1623 001e 0095     		str	r5, [sp]
 1624 0020 054B     		ldr	r3, .L87+8
 1625 0022 9DF80F20 		ldrb	r2, [sp, #15]	@ zero_extendqisi2
 1626 0026 2046     		mov	r0, r4
 1627              	.LVL217:
 1628              		.loc 1 195 3 is_stmt 0 view .LVU305
 1629 0028 FFF7FEFF 		bl	u8g2_SetupBuffer
 1630              	.LVL218:
 196:Core/Src/u8g2/Src/u8g2_d_setup.c **** }
 1631              		.loc 1 196 1 view .LVU306
 1632 002c 05B0     		add	sp, sp, #20
 1633              	.LCFI65:
 1634              		.cfi_def_cfa_offset 12
 1635              		@ sp needed
 1636 002e 30BD     		pop	{r4, r5, pc}
 1637              	.LVL219:
 1638              	.L88:
 1639              		.loc 1 196 1 view .LVU307
 1640              		.align	2
 1641              	.L87:
 1642 0030 00000000 		.word	u8x8_cad_ssd13xx_i2c
 1643 0034 00000000 		.word	u8x8_d_ssd1305_128x64_raystar
 1644 0038 00000000 		.word	u8g2_ll_hvline_vertical_top_lsb
 1645              		.cfi_endproc
 1646              	.LFE21:
 1648              		.section	.text.u8g2_Setup_ssd1305_i2c_128x64_adafruit_f,"ax",%progbits
 1649              		.align	1
 1650              		.global	u8g2_Setup_ssd1305_i2c_128x64_adafruit_f
 1651              		.syntax unified
 1652              		.thumb
 1653              		.thumb_func
 1655              	u8g2_Setup_ssd1305_i2c_128x64_adafruit_f:
 1656              	.LVL220:
 1657              	.LFB22:
 197:Core/Src/u8g2/Src/u8g2_d_setup.c **** /* ssd1305 f */
 198:Core/Src/u8g2/Src/u8g2_d_setup.c **** void u8g2_Setup_ssd1305_i2c_128x64_adafruit_f(u8g2_t *u8g2, const u8g2_cb_t *rotation, u8x8_msg_cb 
 199:Core/Src/u8g2/Src/u8g2_d_setup.c **** {
 1658              		.loc 1 199 1 is_stmt 1 view -0
 1659              		.cfi_startproc
 1660              		@ args = 0, pretend = 0, frame = 8
 1661              		@ frame_needed = 0, uses_anonymous_args = 0
 1662              		.loc 1 199 1 is_stmt 0 view .LVU309
 1663 0000 30B5     		push	{r4, r5, lr}
 1664              	.LCFI66:
 1665              		.cfi_def_cfa_offset 12
 1666              		.cfi_offset 4, -12
 1667              		.cfi_offset 5, -8
 1668              		.cfi_offset 14, -4
 1669 0002 85B0     		sub	sp, sp, #20
 1670              	.LCFI67:
ARM GAS  C:\Users\MOROSH~1\AppData\Local\Temp\ccO8NVXv.s 			page 33


 1671              		.cfi_def_cfa_offset 32
 1672 0004 0446     		mov	r4, r0
 1673 0006 0D46     		mov	r5, r1
 200:Core/Src/u8g2/Src/u8g2_d_setup.c ****   uint8_t tile_buf_height;
 1674              		.loc 1 200 3 is_stmt 1 view .LVU310
 201:Core/Src/u8g2/Src/u8g2_d_setup.c ****   uint8_t *buf;
 1675              		.loc 1 201 3 view .LVU311
 202:Core/Src/u8g2/Src/u8g2_d_setup.c ****   u8g2_SetupDisplay(u8g2, u8x8_d_ssd1305_128x64_adafruit, u8x8_cad_ssd13xx_i2c, byte_cb, gpio_and_d
 1676              		.loc 1 202 3 view .LVU312
 1677 0008 0093     		str	r3, [sp]
 1678 000a 1346     		mov	r3, r2
 1679              	.LVL221:
 1680              		.loc 1 202 3 is_stmt 0 view .LVU313
 1681 000c 084A     		ldr	r2, .L91
 1682              	.LVL222:
 1683              		.loc 1 202 3 view .LVU314
 1684 000e 0949     		ldr	r1, .L91+4
 1685              	.LVL223:
 1686              		.loc 1 202 3 view .LVU315
 1687 0010 FFF7FEFF 		bl	u8x8_Setup
 1688              	.LVL224:
 203:Core/Src/u8g2/Src/u8g2_d_setup.c ****   buf = u8g2_m_16_8_f(&tile_buf_height);
 1689              		.loc 1 203 3 is_stmt 1 view .LVU316
 1690              		.loc 1 203 9 is_stmt 0 view .LVU317
 1691 0014 0DF10F00 		add	r0, sp, #15
 1692 0018 FFF7FEFF 		bl	u8g2_m_16_8_f
 1693              	.LVL225:
 1694 001c 0146     		mov	r1, r0
 1695              	.LVL226:
 204:Core/Src/u8g2/Src/u8g2_d_setup.c ****   u8g2_SetupBuffer(u8g2, buf, tile_buf_height, u8g2_ll_hvline_vertical_top_lsb, rotation);
 1696              		.loc 1 204 3 is_stmt 1 view .LVU318
 1697 001e 0095     		str	r5, [sp]
 1698 0020 054B     		ldr	r3, .L91+8
 1699 0022 9DF80F20 		ldrb	r2, [sp, #15]	@ zero_extendqisi2
 1700 0026 2046     		mov	r0, r4
 1701              	.LVL227:
 1702              		.loc 1 204 3 is_stmt 0 view .LVU319
 1703 0028 FFF7FEFF 		bl	u8g2_SetupBuffer
 1704              	.LVL228:
 205:Core/Src/u8g2/Src/u8g2_d_setup.c **** }
 1705              		.loc 1 205 1 view .LVU320
 1706 002c 05B0     		add	sp, sp, #20
 1707              	.LCFI68:
 1708              		.cfi_def_cfa_offset 12
 1709              		@ sp needed
 1710 002e 30BD     		pop	{r4, r5, pc}
 1711              	.LVL229:
 1712              	.L92:
 1713              		.loc 1 205 1 view .LVU321
 1714              		.align	2
 1715              	.L91:
 1716 0030 00000000 		.word	u8x8_cad_ssd13xx_i2c
 1717 0034 00000000 		.word	u8x8_d_ssd1305_128x64_adafruit
 1718 0038 00000000 		.word	u8g2_ll_hvline_vertical_top_lsb
 1719              		.cfi_endproc
 1720              	.LFE22:
 1722              		.section	.text.u8g2_Setup_ssd1305_i2c_128x64_raystar_f,"ax",%progbits
ARM GAS  C:\Users\MOROSH~1\AppData\Local\Temp\ccO8NVXv.s 			page 34


 1723              		.align	1
 1724              		.global	u8g2_Setup_ssd1305_i2c_128x64_raystar_f
 1725              		.syntax unified
 1726              		.thumb
 1727              		.thumb_func
 1729              	u8g2_Setup_ssd1305_i2c_128x64_raystar_f:
 1730              	.LVL230:
 1731              	.LFB23:
 206:Core/Src/u8g2/Src/u8g2_d_setup.c **** void u8g2_Setup_ssd1305_i2c_128x64_raystar_f(u8g2_t *u8g2, const u8g2_cb_t *rotation, u8x8_msg_cb b
 207:Core/Src/u8g2/Src/u8g2_d_setup.c **** {
 1732              		.loc 1 207 1 is_stmt 1 view -0
 1733              		.cfi_startproc
 1734              		@ args = 0, pretend = 0, frame = 8
 1735              		@ frame_needed = 0, uses_anonymous_args = 0
 1736              		.loc 1 207 1 is_stmt 0 view .LVU323
 1737 0000 30B5     		push	{r4, r5, lr}
 1738              	.LCFI69:
 1739              		.cfi_def_cfa_offset 12
 1740              		.cfi_offset 4, -12
 1741              		.cfi_offset 5, -8
 1742              		.cfi_offset 14, -4
 1743 0002 85B0     		sub	sp, sp, #20
 1744              	.LCFI70:
 1745              		.cfi_def_cfa_offset 32
 1746 0004 0446     		mov	r4, r0
 1747 0006 0D46     		mov	r5, r1
 208:Core/Src/u8g2/Src/u8g2_d_setup.c ****   uint8_t tile_buf_height;
 1748              		.loc 1 208 3 is_stmt 1 view .LVU324
 209:Core/Src/u8g2/Src/u8g2_d_setup.c ****   uint8_t *buf;
 1749              		.loc 1 209 3 view .LVU325
 210:Core/Src/u8g2/Src/u8g2_d_setup.c ****   u8g2_SetupDisplay(u8g2, u8x8_d_ssd1305_128x64_raystar, u8x8_cad_ssd13xx_i2c, byte_cb, gpio_and_de
 1750              		.loc 1 210 3 view .LVU326
 1751 0008 0093     		str	r3, [sp]
 1752 000a 1346     		mov	r3, r2
 1753              	.LVL231:
 1754              		.loc 1 210 3 is_stmt 0 view .LVU327
 1755 000c 084A     		ldr	r2, .L95
 1756              	.LVL232:
 1757              		.loc 1 210 3 view .LVU328
 1758 000e 0949     		ldr	r1, .L95+4
 1759              	.LVL233:
 1760              		.loc 1 210 3 view .LVU329
 1761 0010 FFF7FEFF 		bl	u8x8_Setup
 1762              	.LVL234:
 211:Core/Src/u8g2/Src/u8g2_d_setup.c ****   buf = u8g2_m_16_8_f(&tile_buf_height);
 1763              		.loc 1 211 3 is_stmt 1 view .LVU330
 1764              		.loc 1 211 9 is_stmt 0 view .LVU331
 1765 0014 0DF10F00 		add	r0, sp, #15
 1766 0018 FFF7FEFF 		bl	u8g2_m_16_8_f
 1767              	.LVL235:
 1768 001c 0146     		mov	r1, r0
 1769              	.LVL236:
 212:Core/Src/u8g2/Src/u8g2_d_setup.c ****   u8g2_SetupBuffer(u8g2, buf, tile_buf_height, u8g2_ll_hvline_vertical_top_lsb, rotation);
 1770              		.loc 1 212 3 is_stmt 1 view .LVU332
 1771 001e 0095     		str	r5, [sp]
 1772 0020 054B     		ldr	r3, .L95+8
 1773 0022 9DF80F20 		ldrb	r2, [sp, #15]	@ zero_extendqisi2
ARM GAS  C:\Users\MOROSH~1\AppData\Local\Temp\ccO8NVXv.s 			page 35


 1774 0026 2046     		mov	r0, r4
 1775              	.LVL237:
 1776              		.loc 1 212 3 is_stmt 0 view .LVU333
 1777 0028 FFF7FEFF 		bl	u8g2_SetupBuffer
 1778              	.LVL238:
 213:Core/Src/u8g2/Src/u8g2_d_setup.c **** }
 1779              		.loc 1 213 1 view .LVU334
 1780 002c 05B0     		add	sp, sp, #20
 1781              	.LCFI71:
 1782              		.cfi_def_cfa_offset 12
 1783              		@ sp needed
 1784 002e 30BD     		pop	{r4, r5, pc}
 1785              	.LVL239:
 1786              	.L96:
 1787              		.loc 1 213 1 view .LVU335
 1788              		.align	2
 1789              	.L95:
 1790 0030 00000000 		.word	u8x8_cad_ssd13xx_i2c
 1791 0034 00000000 		.word	u8x8_d_ssd1305_128x64_raystar
 1792 0038 00000000 		.word	u8g2_ll_hvline_vertical_top_lsb
 1793              		.cfi_endproc
 1794              	.LFE23:
 1796              		.section	.text.u8g2_Setup_ssd1306_2040x16_1,"ax",%progbits
 1797              		.align	1
 1798              		.global	u8g2_Setup_ssd1306_2040x16_1
 1799              		.syntax unified
 1800              		.thumb
 1801              		.thumb_func
 1803              	u8g2_Setup_ssd1306_2040x16_1:
 1804              	.LVL240:
 1805              	.LFB24:
 214:Core/Src/u8g2/Src/u8g2_d_setup.c **** /* ssd1306 */
 215:Core/Src/u8g2/Src/u8g2_d_setup.c **** /* ssd1306 1 */
 216:Core/Src/u8g2/Src/u8g2_d_setup.c **** void u8g2_Setup_ssd1306_2040x16_1(u8g2_t *u8g2, const u8g2_cb_t *rotation, u8x8_msg_cb byte_cb, u8x
 217:Core/Src/u8g2/Src/u8g2_d_setup.c **** {
 1806              		.loc 1 217 1 is_stmt 1 view -0
 1807              		.cfi_startproc
 1808              		@ args = 0, pretend = 0, frame = 8
 1809              		@ frame_needed = 0, uses_anonymous_args = 0
 1810              		.loc 1 217 1 is_stmt 0 view .LVU337
 1811 0000 30B5     		push	{r4, r5, lr}
 1812              	.LCFI72:
 1813              		.cfi_def_cfa_offset 12
 1814              		.cfi_offset 4, -12
 1815              		.cfi_offset 5, -8
 1816              		.cfi_offset 14, -4
 1817 0002 85B0     		sub	sp, sp, #20
 1818              	.LCFI73:
 1819              		.cfi_def_cfa_offset 32
 1820 0004 0446     		mov	r4, r0
 1821 0006 0D46     		mov	r5, r1
 218:Core/Src/u8g2/Src/u8g2_d_setup.c ****   uint8_t tile_buf_height;
 1822              		.loc 1 218 3 is_stmt 1 view .LVU338
 219:Core/Src/u8g2/Src/u8g2_d_setup.c ****   uint8_t *buf;
 1823              		.loc 1 219 3 view .LVU339
 220:Core/Src/u8g2/Src/u8g2_d_setup.c ****   u8g2_SetupDisplay(u8g2, u8x8_d_ssd1306_2040x16, u8x8_cad_001, byte_cb, gpio_and_delay_cb);
 1824              		.loc 1 220 3 view .LVU340
ARM GAS  C:\Users\MOROSH~1\AppData\Local\Temp\ccO8NVXv.s 			page 36


 1825 0008 0093     		str	r3, [sp]
 1826 000a 1346     		mov	r3, r2
 1827              	.LVL241:
 1828              		.loc 1 220 3 is_stmt 0 view .LVU341
 1829 000c 084A     		ldr	r2, .L99
 1830              	.LVL242:
 1831              		.loc 1 220 3 view .LVU342
 1832 000e 0949     		ldr	r1, .L99+4
 1833              	.LVL243:
 1834              		.loc 1 220 3 view .LVU343
 1835 0010 FFF7FEFF 		bl	u8x8_Setup
 1836              	.LVL244:
 221:Core/Src/u8g2/Src/u8g2_d_setup.c ****   buf = u8g2_m_255_2_1(&tile_buf_height);
 1837              		.loc 1 221 3 is_stmt 1 view .LVU344
 1838              		.loc 1 221 9 is_stmt 0 view .LVU345
 1839 0014 0DF10F00 		add	r0, sp, #15
 1840 0018 FFF7FEFF 		bl	u8g2_m_255_2_1
 1841              	.LVL245:
 1842 001c 0146     		mov	r1, r0
 1843              	.LVL246:
 222:Core/Src/u8g2/Src/u8g2_d_setup.c ****   u8g2_SetupBuffer(u8g2, buf, tile_buf_height, u8g2_ll_hvline_vertical_top_lsb, rotation);
 1844              		.loc 1 222 3 is_stmt 1 view .LVU346
 1845 001e 0095     		str	r5, [sp]
 1846 0020 054B     		ldr	r3, .L99+8
 1847 0022 9DF80F20 		ldrb	r2, [sp, #15]	@ zero_extendqisi2
 1848 0026 2046     		mov	r0, r4
 1849              	.LVL247:
 1850              		.loc 1 222 3 is_stmt 0 view .LVU347
 1851 0028 FFF7FEFF 		bl	u8g2_SetupBuffer
 1852              	.LVL248:
 223:Core/Src/u8g2/Src/u8g2_d_setup.c **** }
 1853              		.loc 1 223 1 view .LVU348
 1854 002c 05B0     		add	sp, sp, #20
 1855              	.LCFI74:
 1856              		.cfi_def_cfa_offset 12
 1857              		@ sp needed
 1858 002e 30BD     		pop	{r4, r5, pc}
 1859              	.LVL249:
 1860              	.L100:
 1861              		.loc 1 223 1 view .LVU349
 1862              		.align	2
 1863              	.L99:
 1864 0030 00000000 		.word	u8x8_cad_001
 1865 0034 00000000 		.word	u8x8_d_ssd1306_2040x16
 1866 0038 00000000 		.word	u8g2_ll_hvline_vertical_top_lsb
 1867              		.cfi_endproc
 1868              	.LFE24:
 1870              		.section	.text.u8g2_Setup_ssd1306_2040x16_2,"ax",%progbits
 1871              		.align	1
 1872              		.global	u8g2_Setup_ssd1306_2040x16_2
 1873              		.syntax unified
 1874              		.thumb
 1875              		.thumb_func
 1877              	u8g2_Setup_ssd1306_2040x16_2:
 1878              	.LVL250:
 1879              	.LFB25:
 224:Core/Src/u8g2/Src/u8g2_d_setup.c **** /* ssd1306 2 */
ARM GAS  C:\Users\MOROSH~1\AppData\Local\Temp\ccO8NVXv.s 			page 37


 225:Core/Src/u8g2/Src/u8g2_d_setup.c **** void u8g2_Setup_ssd1306_2040x16_2(u8g2_t *u8g2, const u8g2_cb_t *rotation, u8x8_msg_cb byte_cb, u8x
 226:Core/Src/u8g2/Src/u8g2_d_setup.c **** {
 1880              		.loc 1 226 1 is_stmt 1 view -0
 1881              		.cfi_startproc
 1882              		@ args = 0, pretend = 0, frame = 8
 1883              		@ frame_needed = 0, uses_anonymous_args = 0
 1884              		.loc 1 226 1 is_stmt 0 view .LVU351
 1885 0000 30B5     		push	{r4, r5, lr}
 1886              	.LCFI75:
 1887              		.cfi_def_cfa_offset 12
 1888              		.cfi_offset 4, -12
 1889              		.cfi_offset 5, -8
 1890              		.cfi_offset 14, -4
 1891 0002 85B0     		sub	sp, sp, #20
 1892              	.LCFI76:
 1893              		.cfi_def_cfa_offset 32
 1894 0004 0446     		mov	r4, r0
 1895 0006 0D46     		mov	r5, r1
 227:Core/Src/u8g2/Src/u8g2_d_setup.c ****   uint8_t tile_buf_height;
 1896              		.loc 1 227 3 is_stmt 1 view .LVU352
 228:Core/Src/u8g2/Src/u8g2_d_setup.c ****   uint8_t *buf;
 1897              		.loc 1 228 3 view .LVU353
 229:Core/Src/u8g2/Src/u8g2_d_setup.c ****   u8g2_SetupDisplay(u8g2, u8x8_d_ssd1306_2040x16, u8x8_cad_001, byte_cb, gpio_and_delay_cb);
 1898              		.loc 1 229 3 view .LVU354
 1899 0008 0093     		str	r3, [sp]
 1900 000a 1346     		mov	r3, r2
 1901              	.LVL251:
 1902              		.loc 1 229 3 is_stmt 0 view .LVU355
 1903 000c 084A     		ldr	r2, .L103
 1904              	.LVL252:
 1905              		.loc 1 229 3 view .LVU356
 1906 000e 0949     		ldr	r1, .L103+4
 1907              	.LVL253:
 1908              		.loc 1 229 3 view .LVU357
 1909 0010 FFF7FEFF 		bl	u8x8_Setup
 1910              	.LVL254:
 230:Core/Src/u8g2/Src/u8g2_d_setup.c ****   buf = u8g2_m_255_2_2(&tile_buf_height);
 1911              		.loc 1 230 3 is_stmt 1 view .LVU358
 1912              		.loc 1 230 9 is_stmt 0 view .LVU359
 1913 0014 0DF10F00 		add	r0, sp, #15
 1914 0018 FFF7FEFF 		bl	u8g2_m_255_2_2
 1915              	.LVL255:
 1916 001c 0146     		mov	r1, r0
 1917              	.LVL256:
 231:Core/Src/u8g2/Src/u8g2_d_setup.c ****   u8g2_SetupBuffer(u8g2, buf, tile_buf_height, u8g2_ll_hvline_vertical_top_lsb, rotation);
 1918              		.loc 1 231 3 is_stmt 1 view .LVU360
 1919 001e 0095     		str	r5, [sp]
 1920 0020 054B     		ldr	r3, .L103+8
 1921 0022 9DF80F20 		ldrb	r2, [sp, #15]	@ zero_extendqisi2
 1922 0026 2046     		mov	r0, r4
 1923              	.LVL257:
 1924              		.loc 1 231 3 is_stmt 0 view .LVU361
 1925 0028 FFF7FEFF 		bl	u8g2_SetupBuffer
 1926              	.LVL258:
 232:Core/Src/u8g2/Src/u8g2_d_setup.c **** }
 1927              		.loc 1 232 1 view .LVU362
 1928 002c 05B0     		add	sp, sp, #20
ARM GAS  C:\Users\MOROSH~1\AppData\Local\Temp\ccO8NVXv.s 			page 38


 1929              	.LCFI77:
 1930              		.cfi_def_cfa_offset 12
 1931              		@ sp needed
 1932 002e 30BD     		pop	{r4, r5, pc}
 1933              	.LVL259:
 1934              	.L104:
 1935              		.loc 1 232 1 view .LVU363
 1936              		.align	2
 1937              	.L103:
 1938 0030 00000000 		.word	u8x8_cad_001
 1939 0034 00000000 		.word	u8x8_d_ssd1306_2040x16
 1940 0038 00000000 		.word	u8g2_ll_hvline_vertical_top_lsb
 1941              		.cfi_endproc
 1942              	.LFE25:
 1944              		.section	.text.u8g2_Setup_ssd1306_2040x16_f,"ax",%progbits
 1945              		.align	1
 1946              		.global	u8g2_Setup_ssd1306_2040x16_f
 1947              		.syntax unified
 1948              		.thumb
 1949              		.thumb_func
 1951              	u8g2_Setup_ssd1306_2040x16_f:
 1952              	.LVL260:
 1953              	.LFB26:
 233:Core/Src/u8g2/Src/u8g2_d_setup.c **** /* ssd1306 f */
 234:Core/Src/u8g2/Src/u8g2_d_setup.c **** void u8g2_Setup_ssd1306_2040x16_f(u8g2_t *u8g2, const u8g2_cb_t *rotation, u8x8_msg_cb byte_cb, u8x
 235:Core/Src/u8g2/Src/u8g2_d_setup.c **** {
 1954              		.loc 1 235 1 is_stmt 1 view -0
 1955              		.cfi_startproc
 1956              		@ args = 0, pretend = 0, frame = 8
 1957              		@ frame_needed = 0, uses_anonymous_args = 0
 1958              		.loc 1 235 1 is_stmt 0 view .LVU365
 1959 0000 30B5     		push	{r4, r5, lr}
 1960              	.LCFI78:
 1961              		.cfi_def_cfa_offset 12
 1962              		.cfi_offset 4, -12
 1963              		.cfi_offset 5, -8
 1964              		.cfi_offset 14, -4
 1965 0002 85B0     		sub	sp, sp, #20
 1966              	.LCFI79:
 1967              		.cfi_def_cfa_offset 32
 1968 0004 0446     		mov	r4, r0
 1969 0006 0D46     		mov	r5, r1
 236:Core/Src/u8g2/Src/u8g2_d_setup.c ****   uint8_t tile_buf_height;
 1970              		.loc 1 236 3 is_stmt 1 view .LVU366
 237:Core/Src/u8g2/Src/u8g2_d_setup.c ****   uint8_t *buf;
 1971              		.loc 1 237 3 view .LVU367
 238:Core/Src/u8g2/Src/u8g2_d_setup.c ****   u8g2_SetupDisplay(u8g2, u8x8_d_ssd1306_2040x16, u8x8_cad_001, byte_cb, gpio_and_delay_cb);
 1972              		.loc 1 238 3 view .LVU368
 1973 0008 0093     		str	r3, [sp]
 1974 000a 1346     		mov	r3, r2
 1975              	.LVL261:
 1976              		.loc 1 238 3 is_stmt 0 view .LVU369
 1977 000c 084A     		ldr	r2, .L107
 1978              	.LVL262:
 1979              		.loc 1 238 3 view .LVU370
 1980 000e 0949     		ldr	r1, .L107+4
 1981              	.LVL263:
ARM GAS  C:\Users\MOROSH~1\AppData\Local\Temp\ccO8NVXv.s 			page 39


 1982              		.loc 1 238 3 view .LVU371
 1983 0010 FFF7FEFF 		bl	u8x8_Setup
 1984              	.LVL264:
 239:Core/Src/u8g2/Src/u8g2_d_setup.c ****   buf = u8g2_m_255_2_f(&tile_buf_height);
 1985              		.loc 1 239 3 is_stmt 1 view .LVU372
 1986              		.loc 1 239 9 is_stmt 0 view .LVU373
 1987 0014 0DF10F00 		add	r0, sp, #15
 1988 0018 FFF7FEFF 		bl	u8g2_m_255_2_f
 1989              	.LVL265:
 1990 001c 0146     		mov	r1, r0
 1991              	.LVL266:
 240:Core/Src/u8g2/Src/u8g2_d_setup.c ****   u8g2_SetupBuffer(u8g2, buf, tile_buf_height, u8g2_ll_hvline_vertical_top_lsb, rotation);
 1992              		.loc 1 240 3 is_stmt 1 view .LVU374
 1993 001e 0095     		str	r5, [sp]
 1994 0020 054B     		ldr	r3, .L107+8
 1995 0022 9DF80F20 		ldrb	r2, [sp, #15]	@ zero_extendqisi2
 1996 0026 2046     		mov	r0, r4
 1997              	.LVL267:
 1998              		.loc 1 240 3 is_stmt 0 view .LVU375
 1999 0028 FFF7FEFF 		bl	u8g2_SetupBuffer
 2000              	.LVL268:
 241:Core/Src/u8g2/Src/u8g2_d_setup.c **** }
 2001              		.loc 1 241 1 view .LVU376
 2002 002c 05B0     		add	sp, sp, #20
 2003              	.LCFI80:
 2004              		.cfi_def_cfa_offset 12
 2005              		@ sp needed
 2006 002e 30BD     		pop	{r4, r5, pc}
 2007              	.LVL269:
 2008              	.L108:
 2009              		.loc 1 241 1 view .LVU377
 2010              		.align	2
 2011              	.L107:
 2012 0030 00000000 		.word	u8x8_cad_001
 2013 0034 00000000 		.word	u8x8_d_ssd1306_2040x16
 2014 0038 00000000 		.word	u8g2_ll_hvline_vertical_top_lsb
 2015              		.cfi_endproc
 2016              	.LFE26:
 2018              		.section	.text.u8g2_Setup_ssd1306_128x64_noname_1,"ax",%progbits
 2019              		.align	1
 2020              		.global	u8g2_Setup_ssd1306_128x64_noname_1
 2021              		.syntax unified
 2022              		.thumb
 2023              		.thumb_func
 2025              	u8g2_Setup_ssd1306_128x64_noname_1:
 2026              	.LVL270:
 2027              	.LFB27:
 242:Core/Src/u8g2/Src/u8g2_d_setup.c **** /* ssd1306 */
 243:Core/Src/u8g2/Src/u8g2_d_setup.c **** /* ssd1306 1 */
 244:Core/Src/u8g2/Src/u8g2_d_setup.c **** void u8g2_Setup_ssd1306_128x64_noname_1(u8g2_t *u8g2, const u8g2_cb_t *rotation, u8x8_msg_cb byte_c
 245:Core/Src/u8g2/Src/u8g2_d_setup.c **** {
 2028              		.loc 1 245 1 is_stmt 1 view -0
 2029              		.cfi_startproc
 2030              		@ args = 0, pretend = 0, frame = 8
 2031              		@ frame_needed = 0, uses_anonymous_args = 0
 2032              		.loc 1 245 1 is_stmt 0 view .LVU379
 2033 0000 30B5     		push	{r4, r5, lr}
ARM GAS  C:\Users\MOROSH~1\AppData\Local\Temp\ccO8NVXv.s 			page 40


 2034              	.LCFI81:
 2035              		.cfi_def_cfa_offset 12
 2036              		.cfi_offset 4, -12
 2037              		.cfi_offset 5, -8
 2038              		.cfi_offset 14, -4
 2039 0002 85B0     		sub	sp, sp, #20
 2040              	.LCFI82:
 2041              		.cfi_def_cfa_offset 32
 2042 0004 0446     		mov	r4, r0
 2043 0006 0D46     		mov	r5, r1
 246:Core/Src/u8g2/Src/u8g2_d_setup.c ****   uint8_t tile_buf_height;
 2044              		.loc 1 246 3 is_stmt 1 view .LVU380
 247:Core/Src/u8g2/Src/u8g2_d_setup.c ****   uint8_t *buf;
 2045              		.loc 1 247 3 view .LVU381
 248:Core/Src/u8g2/Src/u8g2_d_setup.c ****   u8g2_SetupDisplay(u8g2, u8x8_d_ssd1306_128x64_noname, u8x8_cad_001, byte_cb, gpio_and_delay_cb);
 2046              		.loc 1 248 3 view .LVU382
 2047 0008 0093     		str	r3, [sp]
 2048 000a 1346     		mov	r3, r2
 2049              	.LVL271:
 2050              		.loc 1 248 3 is_stmt 0 view .LVU383
 2051 000c 084A     		ldr	r2, .L111
 2052              	.LVL272:
 2053              		.loc 1 248 3 view .LVU384
 2054 000e 0949     		ldr	r1, .L111+4
 2055              	.LVL273:
 2056              		.loc 1 248 3 view .LVU385
 2057 0010 FFF7FEFF 		bl	u8x8_Setup
 2058              	.LVL274:
 249:Core/Src/u8g2/Src/u8g2_d_setup.c ****   buf = u8g2_m_16_8_1(&tile_buf_height);
 2059              		.loc 1 249 3 is_stmt 1 view .LVU386
 2060              		.loc 1 249 9 is_stmt 0 view .LVU387
 2061 0014 0DF10F00 		add	r0, sp, #15
 2062 0018 FFF7FEFF 		bl	u8g2_m_16_8_1
 2063              	.LVL275:
 2064 001c 0146     		mov	r1, r0
 2065              	.LVL276:
 250:Core/Src/u8g2/Src/u8g2_d_setup.c ****   u8g2_SetupBuffer(u8g2, buf, tile_buf_height, u8g2_ll_hvline_vertical_top_lsb, rotation);
 2066              		.loc 1 250 3 is_stmt 1 view .LVU388
 2067 001e 0095     		str	r5, [sp]
 2068 0020 054B     		ldr	r3, .L111+8
 2069 0022 9DF80F20 		ldrb	r2, [sp, #15]	@ zero_extendqisi2
 2070 0026 2046     		mov	r0, r4
 2071              	.LVL277:
 2072              		.loc 1 250 3 is_stmt 0 view .LVU389
 2073 0028 FFF7FEFF 		bl	u8g2_SetupBuffer
 2074              	.LVL278:
 251:Core/Src/u8g2/Src/u8g2_d_setup.c **** }
 2075              		.loc 1 251 1 view .LVU390
 2076 002c 05B0     		add	sp, sp, #20
 2077              	.LCFI83:
 2078              		.cfi_def_cfa_offset 12
 2079              		@ sp needed
 2080 002e 30BD     		pop	{r4, r5, pc}
 2081              	.LVL279:
 2082              	.L112:
 2083              		.loc 1 251 1 view .LVU391
 2084              		.align	2
ARM GAS  C:\Users\MOROSH~1\AppData\Local\Temp\ccO8NVXv.s 			page 41


 2085              	.L111:
 2086 0030 00000000 		.word	u8x8_cad_001
 2087 0034 00000000 		.word	u8x8_d_ssd1306_128x64_noname
 2088 0038 00000000 		.word	u8g2_ll_hvline_vertical_top_lsb
 2089              		.cfi_endproc
 2090              	.LFE27:
 2092              		.section	.text.u8g2_Setup_ssd1306_128x64_vcomh0_1,"ax",%progbits
 2093              		.align	1
 2094              		.global	u8g2_Setup_ssd1306_128x64_vcomh0_1
 2095              		.syntax unified
 2096              		.thumb
 2097              		.thumb_func
 2099              	u8g2_Setup_ssd1306_128x64_vcomh0_1:
 2100              	.LVL280:
 2101              	.LFB28:
 252:Core/Src/u8g2/Src/u8g2_d_setup.c **** void u8g2_Setup_ssd1306_128x64_vcomh0_1(u8g2_t *u8g2, const u8g2_cb_t *rotation, u8x8_msg_cb byte_c
 253:Core/Src/u8g2/Src/u8g2_d_setup.c **** {
 2102              		.loc 1 253 1 is_stmt 1 view -0
 2103              		.cfi_startproc
 2104              		@ args = 0, pretend = 0, frame = 8
 2105              		@ frame_needed = 0, uses_anonymous_args = 0
 2106              		.loc 1 253 1 is_stmt 0 view .LVU393
 2107 0000 30B5     		push	{r4, r5, lr}
 2108              	.LCFI84:
 2109              		.cfi_def_cfa_offset 12
 2110              		.cfi_offset 4, -12
 2111              		.cfi_offset 5, -8
 2112              		.cfi_offset 14, -4
 2113 0002 85B0     		sub	sp, sp, #20
 2114              	.LCFI85:
 2115              		.cfi_def_cfa_offset 32
 2116 0004 0446     		mov	r4, r0
 2117 0006 0D46     		mov	r5, r1
 254:Core/Src/u8g2/Src/u8g2_d_setup.c ****   uint8_t tile_buf_height;
 2118              		.loc 1 254 3 is_stmt 1 view .LVU394
 255:Core/Src/u8g2/Src/u8g2_d_setup.c ****   uint8_t *buf;
 2119              		.loc 1 255 3 view .LVU395
 256:Core/Src/u8g2/Src/u8g2_d_setup.c ****   u8g2_SetupDisplay(u8g2, u8x8_d_ssd1306_128x64_vcomh0, u8x8_cad_001, byte_cb, gpio_and_delay_cb);
 2120              		.loc 1 256 3 view .LVU396
 2121 0008 0093     		str	r3, [sp]
 2122 000a 1346     		mov	r3, r2
 2123              	.LVL281:
 2124              		.loc 1 256 3 is_stmt 0 view .LVU397
 2125 000c 084A     		ldr	r2, .L115
 2126              	.LVL282:
 2127              		.loc 1 256 3 view .LVU398
 2128 000e 0949     		ldr	r1, .L115+4
 2129              	.LVL283:
 2130              		.loc 1 256 3 view .LVU399
 2131 0010 FFF7FEFF 		bl	u8x8_Setup
 2132              	.LVL284:
 257:Core/Src/u8g2/Src/u8g2_d_setup.c ****   buf = u8g2_m_16_8_1(&tile_buf_height);
 2133              		.loc 1 257 3 is_stmt 1 view .LVU400
 2134              		.loc 1 257 9 is_stmt 0 view .LVU401
 2135 0014 0DF10F00 		add	r0, sp, #15
 2136 0018 FFF7FEFF 		bl	u8g2_m_16_8_1
 2137              	.LVL285:
ARM GAS  C:\Users\MOROSH~1\AppData\Local\Temp\ccO8NVXv.s 			page 42


 2138 001c 0146     		mov	r1, r0
 2139              	.LVL286:
 258:Core/Src/u8g2/Src/u8g2_d_setup.c ****   u8g2_SetupBuffer(u8g2, buf, tile_buf_height, u8g2_ll_hvline_vertical_top_lsb, rotation);
 2140              		.loc 1 258 3 is_stmt 1 view .LVU402
 2141 001e 0095     		str	r5, [sp]
 2142 0020 054B     		ldr	r3, .L115+8
 2143 0022 9DF80F20 		ldrb	r2, [sp, #15]	@ zero_extendqisi2
 2144 0026 2046     		mov	r0, r4
 2145              	.LVL287:
 2146              		.loc 1 258 3 is_stmt 0 view .LVU403
 2147 0028 FFF7FEFF 		bl	u8g2_SetupBuffer
 2148              	.LVL288:
 259:Core/Src/u8g2/Src/u8g2_d_setup.c **** }
 2149              		.loc 1 259 1 view .LVU404
 2150 002c 05B0     		add	sp, sp, #20
 2151              	.LCFI86:
 2152              		.cfi_def_cfa_offset 12
 2153              		@ sp needed
 2154 002e 30BD     		pop	{r4, r5, pc}
 2155              	.LVL289:
 2156              	.L116:
 2157              		.loc 1 259 1 view .LVU405
 2158              		.align	2
 2159              	.L115:
 2160 0030 00000000 		.word	u8x8_cad_001
 2161 0034 00000000 		.word	u8x8_d_ssd1306_128x64_vcomh0
 2162 0038 00000000 		.word	u8g2_ll_hvline_vertical_top_lsb
 2163              		.cfi_endproc
 2164              	.LFE28:
 2166              		.section	.text.u8g2_Setup_ssd1306_128x64_alt0_1,"ax",%progbits
 2167              		.align	1
 2168              		.global	u8g2_Setup_ssd1306_128x64_alt0_1
 2169              		.syntax unified
 2170              		.thumb
 2171              		.thumb_func
 2173              	u8g2_Setup_ssd1306_128x64_alt0_1:
 2174              	.LVL290:
 2175              	.LFB29:
 260:Core/Src/u8g2/Src/u8g2_d_setup.c **** void u8g2_Setup_ssd1306_128x64_alt0_1(u8g2_t *u8g2, const u8g2_cb_t *rotation, u8x8_msg_cb byte_cb,
 261:Core/Src/u8g2/Src/u8g2_d_setup.c **** {
 2176              		.loc 1 261 1 is_stmt 1 view -0
 2177              		.cfi_startproc
 2178              		@ args = 0, pretend = 0, frame = 8
 2179              		@ frame_needed = 0, uses_anonymous_args = 0
 2180              		.loc 1 261 1 is_stmt 0 view .LVU407
 2181 0000 30B5     		push	{r4, r5, lr}
 2182              	.LCFI87:
 2183              		.cfi_def_cfa_offset 12
 2184              		.cfi_offset 4, -12
 2185              		.cfi_offset 5, -8
 2186              		.cfi_offset 14, -4
 2187 0002 85B0     		sub	sp, sp, #20
 2188              	.LCFI88:
 2189              		.cfi_def_cfa_offset 32
 2190 0004 0446     		mov	r4, r0
 2191 0006 0D46     		mov	r5, r1
 262:Core/Src/u8g2/Src/u8g2_d_setup.c ****   uint8_t tile_buf_height;
ARM GAS  C:\Users\MOROSH~1\AppData\Local\Temp\ccO8NVXv.s 			page 43


 2192              		.loc 1 262 3 is_stmt 1 view .LVU408
 263:Core/Src/u8g2/Src/u8g2_d_setup.c ****   uint8_t *buf;
 2193              		.loc 1 263 3 view .LVU409
 264:Core/Src/u8g2/Src/u8g2_d_setup.c ****   u8g2_SetupDisplay(u8g2, u8x8_d_ssd1306_128x64_alt0, u8x8_cad_001, byte_cb, gpio_and_delay_cb);
 2194              		.loc 1 264 3 view .LVU410
 2195 0008 0093     		str	r3, [sp]
 2196 000a 1346     		mov	r3, r2
 2197              	.LVL291:
 2198              		.loc 1 264 3 is_stmt 0 view .LVU411
 2199 000c 084A     		ldr	r2, .L119
 2200              	.LVL292:
 2201              		.loc 1 264 3 view .LVU412
 2202 000e 0949     		ldr	r1, .L119+4
 2203              	.LVL293:
 2204              		.loc 1 264 3 view .LVU413
 2205 0010 FFF7FEFF 		bl	u8x8_Setup
 2206              	.LVL294:
 265:Core/Src/u8g2/Src/u8g2_d_setup.c ****   buf = u8g2_m_16_8_1(&tile_buf_height);
 2207              		.loc 1 265 3 is_stmt 1 view .LVU414
 2208              		.loc 1 265 9 is_stmt 0 view .LVU415
 2209 0014 0DF10F00 		add	r0, sp, #15
 2210 0018 FFF7FEFF 		bl	u8g2_m_16_8_1
 2211              	.LVL295:
 2212 001c 0146     		mov	r1, r0
 2213              	.LVL296:
 266:Core/Src/u8g2/Src/u8g2_d_setup.c ****   u8g2_SetupBuffer(u8g2, buf, tile_buf_height, u8g2_ll_hvline_vertical_top_lsb, rotation);
 2214              		.loc 1 266 3 is_stmt 1 view .LVU416
 2215 001e 0095     		str	r5, [sp]
 2216 0020 054B     		ldr	r3, .L119+8
 2217 0022 9DF80F20 		ldrb	r2, [sp, #15]	@ zero_extendqisi2
 2218 0026 2046     		mov	r0, r4
 2219              	.LVL297:
 2220              		.loc 1 266 3 is_stmt 0 view .LVU417
 2221 0028 FFF7FEFF 		bl	u8g2_SetupBuffer
 2222              	.LVL298:
 267:Core/Src/u8g2/Src/u8g2_d_setup.c **** }
 2223              		.loc 1 267 1 view .LVU418
 2224 002c 05B0     		add	sp, sp, #20
 2225              	.LCFI89:
 2226              		.cfi_def_cfa_offset 12
 2227              		@ sp needed
 2228 002e 30BD     		pop	{r4, r5, pc}
 2229              	.LVL299:
 2230              	.L120:
 2231              		.loc 1 267 1 view .LVU419
 2232              		.align	2
 2233              	.L119:
 2234 0030 00000000 		.word	u8x8_cad_001
 2235 0034 00000000 		.word	u8x8_d_ssd1306_128x64_alt0
 2236 0038 00000000 		.word	u8g2_ll_hvline_vertical_top_lsb
 2237              		.cfi_endproc
 2238              	.LFE29:
 2240              		.section	.text.u8g2_Setup_ssd1306_128x64_noname_2,"ax",%progbits
 2241              		.align	1
 2242              		.global	u8g2_Setup_ssd1306_128x64_noname_2
 2243              		.syntax unified
 2244              		.thumb
ARM GAS  C:\Users\MOROSH~1\AppData\Local\Temp\ccO8NVXv.s 			page 44


 2245              		.thumb_func
 2247              	u8g2_Setup_ssd1306_128x64_noname_2:
 2248              	.LVL300:
 2249              	.LFB30:
 268:Core/Src/u8g2/Src/u8g2_d_setup.c **** /* ssd1306 2 */
 269:Core/Src/u8g2/Src/u8g2_d_setup.c **** void u8g2_Setup_ssd1306_128x64_noname_2(u8g2_t *u8g2, const u8g2_cb_t *rotation, u8x8_msg_cb byte_c
 270:Core/Src/u8g2/Src/u8g2_d_setup.c **** {
 2250              		.loc 1 270 1 is_stmt 1 view -0
 2251              		.cfi_startproc
 2252              		@ args = 0, pretend = 0, frame = 8
 2253              		@ frame_needed = 0, uses_anonymous_args = 0
 2254              		.loc 1 270 1 is_stmt 0 view .LVU421
 2255 0000 30B5     		push	{r4, r5, lr}
 2256              	.LCFI90:
 2257              		.cfi_def_cfa_offset 12
 2258              		.cfi_offset 4, -12
 2259              		.cfi_offset 5, -8
 2260              		.cfi_offset 14, -4
 2261 0002 85B0     		sub	sp, sp, #20
 2262              	.LCFI91:
 2263              		.cfi_def_cfa_offset 32
 2264 0004 0446     		mov	r4, r0
 2265 0006 0D46     		mov	r5, r1
 271:Core/Src/u8g2/Src/u8g2_d_setup.c ****   uint8_t tile_buf_height;
 2266              		.loc 1 271 3 is_stmt 1 view .LVU422
 272:Core/Src/u8g2/Src/u8g2_d_setup.c ****   uint8_t *buf;
 2267              		.loc 1 272 3 view .LVU423
 273:Core/Src/u8g2/Src/u8g2_d_setup.c ****   u8g2_SetupDisplay(u8g2, u8x8_d_ssd1306_128x64_noname, u8x8_cad_001, byte_cb, gpio_and_delay_cb);
 2268              		.loc 1 273 3 view .LVU424
 2269 0008 0093     		str	r3, [sp]
 2270 000a 1346     		mov	r3, r2
 2271              	.LVL301:
 2272              		.loc 1 273 3 is_stmt 0 view .LVU425
 2273 000c 084A     		ldr	r2, .L123
 2274              	.LVL302:
 2275              		.loc 1 273 3 view .LVU426
 2276 000e 0949     		ldr	r1, .L123+4
 2277              	.LVL303:
 2278              		.loc 1 273 3 view .LVU427
 2279 0010 FFF7FEFF 		bl	u8x8_Setup
 2280              	.LVL304:
 274:Core/Src/u8g2/Src/u8g2_d_setup.c ****   buf = u8g2_m_16_8_2(&tile_buf_height);
 2281              		.loc 1 274 3 is_stmt 1 view .LVU428
 2282              		.loc 1 274 9 is_stmt 0 view .LVU429
 2283 0014 0DF10F00 		add	r0, sp, #15
 2284 0018 FFF7FEFF 		bl	u8g2_m_16_8_2
 2285              	.LVL305:
 2286 001c 0146     		mov	r1, r0
 2287              	.LVL306:
 275:Core/Src/u8g2/Src/u8g2_d_setup.c ****   u8g2_SetupBuffer(u8g2, buf, tile_buf_height, u8g2_ll_hvline_vertical_top_lsb, rotation);
 2288              		.loc 1 275 3 is_stmt 1 view .LVU430
 2289 001e 0095     		str	r5, [sp]
 2290 0020 054B     		ldr	r3, .L123+8
 2291 0022 9DF80F20 		ldrb	r2, [sp, #15]	@ zero_extendqisi2
 2292 0026 2046     		mov	r0, r4
 2293              	.LVL307:
 2294              		.loc 1 275 3 is_stmt 0 view .LVU431
ARM GAS  C:\Users\MOROSH~1\AppData\Local\Temp\ccO8NVXv.s 			page 45


 2295 0028 FFF7FEFF 		bl	u8g2_SetupBuffer
 2296              	.LVL308:
 276:Core/Src/u8g2/Src/u8g2_d_setup.c **** }
 2297              		.loc 1 276 1 view .LVU432
 2298 002c 05B0     		add	sp, sp, #20
 2299              	.LCFI92:
 2300              		.cfi_def_cfa_offset 12
 2301              		@ sp needed
 2302 002e 30BD     		pop	{r4, r5, pc}
 2303              	.LVL309:
 2304              	.L124:
 2305              		.loc 1 276 1 view .LVU433
 2306              		.align	2
 2307              	.L123:
 2308 0030 00000000 		.word	u8x8_cad_001
 2309 0034 00000000 		.word	u8x8_d_ssd1306_128x64_noname
 2310 0038 00000000 		.word	u8g2_ll_hvline_vertical_top_lsb
 2311              		.cfi_endproc
 2312              	.LFE30:
 2314              		.section	.text.u8g2_Setup_ssd1306_128x64_vcomh0_2,"ax",%progbits
 2315              		.align	1
 2316              		.global	u8g2_Setup_ssd1306_128x64_vcomh0_2
 2317              		.syntax unified
 2318              		.thumb
 2319              		.thumb_func
 2321              	u8g2_Setup_ssd1306_128x64_vcomh0_2:
 2322              	.LVL310:
 2323              	.LFB31:
 277:Core/Src/u8g2/Src/u8g2_d_setup.c **** void u8g2_Setup_ssd1306_128x64_vcomh0_2(u8g2_t *u8g2, const u8g2_cb_t *rotation, u8x8_msg_cb byte_c
 278:Core/Src/u8g2/Src/u8g2_d_setup.c **** {
 2324              		.loc 1 278 1 is_stmt 1 view -0
 2325              		.cfi_startproc
 2326              		@ args = 0, pretend = 0, frame = 8
 2327              		@ frame_needed = 0, uses_anonymous_args = 0
 2328              		.loc 1 278 1 is_stmt 0 view .LVU435
 2329 0000 30B5     		push	{r4, r5, lr}
 2330              	.LCFI93:
 2331              		.cfi_def_cfa_offset 12
 2332              		.cfi_offset 4, -12
 2333              		.cfi_offset 5, -8
 2334              		.cfi_offset 14, -4
 2335 0002 85B0     		sub	sp, sp, #20
 2336              	.LCFI94:
 2337              		.cfi_def_cfa_offset 32
 2338 0004 0446     		mov	r4, r0
 2339 0006 0D46     		mov	r5, r1
 279:Core/Src/u8g2/Src/u8g2_d_setup.c ****   uint8_t tile_buf_height;
 2340              		.loc 1 279 3 is_stmt 1 view .LVU436
 280:Core/Src/u8g2/Src/u8g2_d_setup.c ****   uint8_t *buf;
 2341              		.loc 1 280 3 view .LVU437
 281:Core/Src/u8g2/Src/u8g2_d_setup.c ****   u8g2_SetupDisplay(u8g2, u8x8_d_ssd1306_128x64_vcomh0, u8x8_cad_001, byte_cb, gpio_and_delay_cb);
 2342              		.loc 1 281 3 view .LVU438
 2343 0008 0093     		str	r3, [sp]
 2344 000a 1346     		mov	r3, r2
 2345              	.LVL311:
 2346              		.loc 1 281 3 is_stmt 0 view .LVU439
 2347 000c 084A     		ldr	r2, .L127
ARM GAS  C:\Users\MOROSH~1\AppData\Local\Temp\ccO8NVXv.s 			page 46


 2348              	.LVL312:
 2349              		.loc 1 281 3 view .LVU440
 2350 000e 0949     		ldr	r1, .L127+4
 2351              	.LVL313:
 2352              		.loc 1 281 3 view .LVU441
 2353 0010 FFF7FEFF 		bl	u8x8_Setup
 2354              	.LVL314:
 282:Core/Src/u8g2/Src/u8g2_d_setup.c ****   buf = u8g2_m_16_8_2(&tile_buf_height);
 2355              		.loc 1 282 3 is_stmt 1 view .LVU442
 2356              		.loc 1 282 9 is_stmt 0 view .LVU443
 2357 0014 0DF10F00 		add	r0, sp, #15
 2358 0018 FFF7FEFF 		bl	u8g2_m_16_8_2
 2359              	.LVL315:
 2360 001c 0146     		mov	r1, r0
 2361              	.LVL316:
 283:Core/Src/u8g2/Src/u8g2_d_setup.c ****   u8g2_SetupBuffer(u8g2, buf, tile_buf_height, u8g2_ll_hvline_vertical_top_lsb, rotation);
 2362              		.loc 1 283 3 is_stmt 1 view .LVU444
 2363 001e 0095     		str	r5, [sp]
 2364 0020 054B     		ldr	r3, .L127+8
 2365 0022 9DF80F20 		ldrb	r2, [sp, #15]	@ zero_extendqisi2
 2366 0026 2046     		mov	r0, r4
 2367              	.LVL317:
 2368              		.loc 1 283 3 is_stmt 0 view .LVU445
 2369 0028 FFF7FEFF 		bl	u8g2_SetupBuffer
 2370              	.LVL318:
 284:Core/Src/u8g2/Src/u8g2_d_setup.c **** }
 2371              		.loc 1 284 1 view .LVU446
 2372 002c 05B0     		add	sp, sp, #20
 2373              	.LCFI95:
 2374              		.cfi_def_cfa_offset 12
 2375              		@ sp needed
 2376 002e 30BD     		pop	{r4, r5, pc}
 2377              	.LVL319:
 2378              	.L128:
 2379              		.loc 1 284 1 view .LVU447
 2380              		.align	2
 2381              	.L127:
 2382 0030 00000000 		.word	u8x8_cad_001
 2383 0034 00000000 		.word	u8x8_d_ssd1306_128x64_vcomh0
 2384 0038 00000000 		.word	u8g2_ll_hvline_vertical_top_lsb
 2385              		.cfi_endproc
 2386              	.LFE31:
 2388              		.section	.text.u8g2_Setup_ssd1306_128x64_alt0_2,"ax",%progbits
 2389              		.align	1
 2390              		.global	u8g2_Setup_ssd1306_128x64_alt0_2
 2391              		.syntax unified
 2392              		.thumb
 2393              		.thumb_func
 2395              	u8g2_Setup_ssd1306_128x64_alt0_2:
 2396              	.LVL320:
 2397              	.LFB32:
 285:Core/Src/u8g2/Src/u8g2_d_setup.c **** void u8g2_Setup_ssd1306_128x64_alt0_2(u8g2_t *u8g2, const u8g2_cb_t *rotation, u8x8_msg_cb byte_cb,
 286:Core/Src/u8g2/Src/u8g2_d_setup.c **** {
 2398              		.loc 1 286 1 is_stmt 1 view -0
 2399              		.cfi_startproc
 2400              		@ args = 0, pretend = 0, frame = 8
 2401              		@ frame_needed = 0, uses_anonymous_args = 0
ARM GAS  C:\Users\MOROSH~1\AppData\Local\Temp\ccO8NVXv.s 			page 47


 2402              		.loc 1 286 1 is_stmt 0 view .LVU449
 2403 0000 30B5     		push	{r4, r5, lr}
 2404              	.LCFI96:
 2405              		.cfi_def_cfa_offset 12
 2406              		.cfi_offset 4, -12
 2407              		.cfi_offset 5, -8
 2408              		.cfi_offset 14, -4
 2409 0002 85B0     		sub	sp, sp, #20
 2410              	.LCFI97:
 2411              		.cfi_def_cfa_offset 32
 2412 0004 0446     		mov	r4, r0
 2413 0006 0D46     		mov	r5, r1
 287:Core/Src/u8g2/Src/u8g2_d_setup.c ****   uint8_t tile_buf_height;
 2414              		.loc 1 287 3 is_stmt 1 view .LVU450
 288:Core/Src/u8g2/Src/u8g2_d_setup.c ****   uint8_t *buf;
 2415              		.loc 1 288 3 view .LVU451
 289:Core/Src/u8g2/Src/u8g2_d_setup.c ****   u8g2_SetupDisplay(u8g2, u8x8_d_ssd1306_128x64_alt0, u8x8_cad_001, byte_cb, gpio_and_delay_cb);
 2416              		.loc 1 289 3 view .LVU452
 2417 0008 0093     		str	r3, [sp]
 2418 000a 1346     		mov	r3, r2
 2419              	.LVL321:
 2420              		.loc 1 289 3 is_stmt 0 view .LVU453
 2421 000c 084A     		ldr	r2, .L131
 2422              	.LVL322:
 2423              		.loc 1 289 3 view .LVU454
 2424 000e 0949     		ldr	r1, .L131+4
 2425              	.LVL323:
 2426              		.loc 1 289 3 view .LVU455
 2427 0010 FFF7FEFF 		bl	u8x8_Setup
 2428              	.LVL324:
 290:Core/Src/u8g2/Src/u8g2_d_setup.c ****   buf = u8g2_m_16_8_2(&tile_buf_height);
 2429              		.loc 1 290 3 is_stmt 1 view .LVU456
 2430              		.loc 1 290 9 is_stmt 0 view .LVU457
 2431 0014 0DF10F00 		add	r0, sp, #15
 2432 0018 FFF7FEFF 		bl	u8g2_m_16_8_2
 2433              	.LVL325:
 2434 001c 0146     		mov	r1, r0
 2435              	.LVL326:
 291:Core/Src/u8g2/Src/u8g2_d_setup.c ****   u8g2_SetupBuffer(u8g2, buf, tile_buf_height, u8g2_ll_hvline_vertical_top_lsb, rotation);
 2436              		.loc 1 291 3 is_stmt 1 view .LVU458
 2437 001e 0095     		str	r5, [sp]
 2438 0020 054B     		ldr	r3, .L131+8
 2439 0022 9DF80F20 		ldrb	r2, [sp, #15]	@ zero_extendqisi2
 2440 0026 2046     		mov	r0, r4
 2441              	.LVL327:
 2442              		.loc 1 291 3 is_stmt 0 view .LVU459
 2443 0028 FFF7FEFF 		bl	u8g2_SetupBuffer
 2444              	.LVL328:
 292:Core/Src/u8g2/Src/u8g2_d_setup.c **** }
 2445              		.loc 1 292 1 view .LVU460
 2446 002c 05B0     		add	sp, sp, #20
 2447              	.LCFI98:
 2448              		.cfi_def_cfa_offset 12
 2449              		@ sp needed
 2450 002e 30BD     		pop	{r4, r5, pc}
 2451              	.LVL329:
 2452              	.L132:
ARM GAS  C:\Users\MOROSH~1\AppData\Local\Temp\ccO8NVXv.s 			page 48


 2453              		.loc 1 292 1 view .LVU461
 2454              		.align	2
 2455              	.L131:
 2456 0030 00000000 		.word	u8x8_cad_001
 2457 0034 00000000 		.word	u8x8_d_ssd1306_128x64_alt0
 2458 0038 00000000 		.word	u8g2_ll_hvline_vertical_top_lsb
 2459              		.cfi_endproc
 2460              	.LFE32:
 2462              		.section	.text.u8g2_Setup_ssd1306_128x64_noname_f,"ax",%progbits
 2463              		.align	1
 2464              		.global	u8g2_Setup_ssd1306_128x64_noname_f
 2465              		.syntax unified
 2466              		.thumb
 2467              		.thumb_func
 2469              	u8g2_Setup_ssd1306_128x64_noname_f:
 2470              	.LVL330:
 2471              	.LFB33:
 293:Core/Src/u8g2/Src/u8g2_d_setup.c **** /* ssd1306 f */
 294:Core/Src/u8g2/Src/u8g2_d_setup.c **** void u8g2_Setup_ssd1306_128x64_noname_f(u8g2_t *u8g2, const u8g2_cb_t *rotation, u8x8_msg_cb byte_c
 295:Core/Src/u8g2/Src/u8g2_d_setup.c **** {
 2472              		.loc 1 295 1 is_stmt 1 view -0
 2473              		.cfi_startproc
 2474              		@ args = 0, pretend = 0, frame = 8
 2475              		@ frame_needed = 0, uses_anonymous_args = 0
 2476              		.loc 1 295 1 is_stmt 0 view .LVU463
 2477 0000 30B5     		push	{r4, r5, lr}
 2478              	.LCFI99:
 2479              		.cfi_def_cfa_offset 12
 2480              		.cfi_offset 4, -12
 2481              		.cfi_offset 5, -8
 2482              		.cfi_offset 14, -4
 2483 0002 85B0     		sub	sp, sp, #20
 2484              	.LCFI100:
 2485              		.cfi_def_cfa_offset 32
 2486 0004 0446     		mov	r4, r0
 2487 0006 0D46     		mov	r5, r1
 296:Core/Src/u8g2/Src/u8g2_d_setup.c ****   uint8_t tile_buf_height;
 2488              		.loc 1 296 3 is_stmt 1 view .LVU464
 297:Core/Src/u8g2/Src/u8g2_d_setup.c ****   uint8_t *buf;
 2489              		.loc 1 297 3 view .LVU465
 298:Core/Src/u8g2/Src/u8g2_d_setup.c ****   u8g2_SetupDisplay(u8g2, u8x8_d_ssd1306_128x64_noname, u8x8_cad_001, byte_cb, gpio_and_delay_cb);
 2490              		.loc 1 298 3 view .LVU466
 2491 0008 0093     		str	r3, [sp]
 2492 000a 1346     		mov	r3, r2
 2493              	.LVL331:
 2494              		.loc 1 298 3 is_stmt 0 view .LVU467
 2495 000c 084A     		ldr	r2, .L135
 2496              	.LVL332:
 2497              		.loc 1 298 3 view .LVU468
 2498 000e 0949     		ldr	r1, .L135+4
 2499              	.LVL333:
 2500              		.loc 1 298 3 view .LVU469
 2501 0010 FFF7FEFF 		bl	u8x8_Setup
 2502              	.LVL334:
 299:Core/Src/u8g2/Src/u8g2_d_setup.c ****   buf = u8g2_m_16_8_f(&tile_buf_height);
 2503              		.loc 1 299 3 is_stmt 1 view .LVU470
 2504              		.loc 1 299 9 is_stmt 0 view .LVU471
ARM GAS  C:\Users\MOROSH~1\AppData\Local\Temp\ccO8NVXv.s 			page 49


 2505 0014 0DF10F00 		add	r0, sp, #15
 2506 0018 FFF7FEFF 		bl	u8g2_m_16_8_f
 2507              	.LVL335:
 2508 001c 0146     		mov	r1, r0
 2509              	.LVL336:
 300:Core/Src/u8g2/Src/u8g2_d_setup.c ****   u8g2_SetupBuffer(u8g2, buf, tile_buf_height, u8g2_ll_hvline_vertical_top_lsb, rotation);
 2510              		.loc 1 300 3 is_stmt 1 view .LVU472
 2511 001e 0095     		str	r5, [sp]
 2512 0020 054B     		ldr	r3, .L135+8
 2513 0022 9DF80F20 		ldrb	r2, [sp, #15]	@ zero_extendqisi2
 2514 0026 2046     		mov	r0, r4
 2515              	.LVL337:
 2516              		.loc 1 300 3 is_stmt 0 view .LVU473
 2517 0028 FFF7FEFF 		bl	u8g2_SetupBuffer
 2518              	.LVL338:
 301:Core/Src/u8g2/Src/u8g2_d_setup.c **** }
 2519              		.loc 1 301 1 view .LVU474
 2520 002c 05B0     		add	sp, sp, #20
 2521              	.LCFI101:
 2522              		.cfi_def_cfa_offset 12
 2523              		@ sp needed
 2524 002e 30BD     		pop	{r4, r5, pc}
 2525              	.LVL339:
 2526              	.L136:
 2527              		.loc 1 301 1 view .LVU475
 2528              		.align	2
 2529              	.L135:
 2530 0030 00000000 		.word	u8x8_cad_001
 2531 0034 00000000 		.word	u8x8_d_ssd1306_128x64_noname
 2532 0038 00000000 		.word	u8g2_ll_hvline_vertical_top_lsb
 2533              		.cfi_endproc
 2534              	.LFE33:
 2536              		.section	.text.u8g2_Setup_ssd1306_128x64_vcomh0_f,"ax",%progbits
 2537              		.align	1
 2538              		.global	u8g2_Setup_ssd1306_128x64_vcomh0_f
 2539              		.syntax unified
 2540              		.thumb
 2541              		.thumb_func
 2543              	u8g2_Setup_ssd1306_128x64_vcomh0_f:
 2544              	.LVL340:
 2545              	.LFB34:
 302:Core/Src/u8g2/Src/u8g2_d_setup.c **** void u8g2_Setup_ssd1306_128x64_vcomh0_f(u8g2_t *u8g2, const u8g2_cb_t *rotation, u8x8_msg_cb byte_c
 303:Core/Src/u8g2/Src/u8g2_d_setup.c **** {
 2546              		.loc 1 303 1 is_stmt 1 view -0
 2547              		.cfi_startproc
 2548              		@ args = 0, pretend = 0, frame = 8
 2549              		@ frame_needed = 0, uses_anonymous_args = 0
 2550              		.loc 1 303 1 is_stmt 0 view .LVU477
 2551 0000 30B5     		push	{r4, r5, lr}
 2552              	.LCFI102:
 2553              		.cfi_def_cfa_offset 12
 2554              		.cfi_offset 4, -12
 2555              		.cfi_offset 5, -8
 2556              		.cfi_offset 14, -4
 2557 0002 85B0     		sub	sp, sp, #20
 2558              	.LCFI103:
 2559              		.cfi_def_cfa_offset 32
ARM GAS  C:\Users\MOROSH~1\AppData\Local\Temp\ccO8NVXv.s 			page 50


 2560 0004 0446     		mov	r4, r0
 2561 0006 0D46     		mov	r5, r1
 304:Core/Src/u8g2/Src/u8g2_d_setup.c ****   uint8_t tile_buf_height;
 2562              		.loc 1 304 3 is_stmt 1 view .LVU478
 305:Core/Src/u8g2/Src/u8g2_d_setup.c ****   uint8_t *buf;
 2563              		.loc 1 305 3 view .LVU479
 306:Core/Src/u8g2/Src/u8g2_d_setup.c ****   u8g2_SetupDisplay(u8g2, u8x8_d_ssd1306_128x64_vcomh0, u8x8_cad_001, byte_cb, gpio_and_delay_cb);
 2564              		.loc 1 306 3 view .LVU480
 2565 0008 0093     		str	r3, [sp]
 2566 000a 1346     		mov	r3, r2
 2567              	.LVL341:
 2568              		.loc 1 306 3 is_stmt 0 view .LVU481
 2569 000c 084A     		ldr	r2, .L139
 2570              	.LVL342:
 2571              		.loc 1 306 3 view .LVU482
 2572 000e 0949     		ldr	r1, .L139+4
 2573              	.LVL343:
 2574              		.loc 1 306 3 view .LVU483
 2575 0010 FFF7FEFF 		bl	u8x8_Setup
 2576              	.LVL344:
 307:Core/Src/u8g2/Src/u8g2_d_setup.c ****   buf = u8g2_m_16_8_f(&tile_buf_height);
 2577              		.loc 1 307 3 is_stmt 1 view .LVU484
 2578              		.loc 1 307 9 is_stmt 0 view .LVU485
 2579 0014 0DF10F00 		add	r0, sp, #15
 2580 0018 FFF7FEFF 		bl	u8g2_m_16_8_f
 2581              	.LVL345:
 2582 001c 0146     		mov	r1, r0
 2583              	.LVL346:
 308:Core/Src/u8g2/Src/u8g2_d_setup.c ****   u8g2_SetupBuffer(u8g2, buf, tile_buf_height, u8g2_ll_hvline_vertical_top_lsb, rotation);
 2584              		.loc 1 308 3 is_stmt 1 view .LVU486
 2585 001e 0095     		str	r5, [sp]
 2586 0020 054B     		ldr	r3, .L139+8
 2587 0022 9DF80F20 		ldrb	r2, [sp, #15]	@ zero_extendqisi2
 2588 0026 2046     		mov	r0, r4
 2589              	.LVL347:
 2590              		.loc 1 308 3 is_stmt 0 view .LVU487
 2591 0028 FFF7FEFF 		bl	u8g2_SetupBuffer
 2592              	.LVL348:
 309:Core/Src/u8g2/Src/u8g2_d_setup.c **** }
 2593              		.loc 1 309 1 view .LVU488
 2594 002c 05B0     		add	sp, sp, #20
 2595              	.LCFI104:
 2596              		.cfi_def_cfa_offset 12
 2597              		@ sp needed
 2598 002e 30BD     		pop	{r4, r5, pc}
 2599              	.LVL349:
 2600              	.L140:
 2601              		.loc 1 309 1 view .LVU489
 2602              		.align	2
 2603              	.L139:
 2604 0030 00000000 		.word	u8x8_cad_001
 2605 0034 00000000 		.word	u8x8_d_ssd1306_128x64_vcomh0
 2606 0038 00000000 		.word	u8g2_ll_hvline_vertical_top_lsb
 2607              		.cfi_endproc
 2608              	.LFE34:
 2610              		.section	.text.u8g2_Setup_ssd1306_128x64_alt0_f,"ax",%progbits
 2611              		.align	1
ARM GAS  C:\Users\MOROSH~1\AppData\Local\Temp\ccO8NVXv.s 			page 51


 2612              		.global	u8g2_Setup_ssd1306_128x64_alt0_f
 2613              		.syntax unified
 2614              		.thumb
 2615              		.thumb_func
 2617              	u8g2_Setup_ssd1306_128x64_alt0_f:
 2618              	.LVL350:
 2619              	.LFB35:
 310:Core/Src/u8g2/Src/u8g2_d_setup.c **** void u8g2_Setup_ssd1306_128x64_alt0_f(u8g2_t *u8g2, const u8g2_cb_t *rotation, u8x8_msg_cb byte_cb,
 311:Core/Src/u8g2/Src/u8g2_d_setup.c **** {
 2620              		.loc 1 311 1 is_stmt 1 view -0
 2621              		.cfi_startproc
 2622              		@ args = 0, pretend = 0, frame = 8
 2623              		@ frame_needed = 0, uses_anonymous_args = 0
 2624              		.loc 1 311 1 is_stmt 0 view .LVU491
 2625 0000 30B5     		push	{r4, r5, lr}
 2626              	.LCFI105:
 2627              		.cfi_def_cfa_offset 12
 2628              		.cfi_offset 4, -12
 2629              		.cfi_offset 5, -8
 2630              		.cfi_offset 14, -4
 2631 0002 85B0     		sub	sp, sp, #20
 2632              	.LCFI106:
 2633              		.cfi_def_cfa_offset 32
 2634 0004 0446     		mov	r4, r0
 2635 0006 0D46     		mov	r5, r1
 312:Core/Src/u8g2/Src/u8g2_d_setup.c ****   uint8_t tile_buf_height;
 2636              		.loc 1 312 3 is_stmt 1 view .LVU492
 313:Core/Src/u8g2/Src/u8g2_d_setup.c ****   uint8_t *buf;
 2637              		.loc 1 313 3 view .LVU493
 314:Core/Src/u8g2/Src/u8g2_d_setup.c ****   u8g2_SetupDisplay(u8g2, u8x8_d_ssd1306_128x64_alt0, u8x8_cad_001, byte_cb, gpio_and_delay_cb);
 2638              		.loc 1 314 3 view .LVU494
 2639 0008 0093     		str	r3, [sp]
 2640 000a 1346     		mov	r3, r2
 2641              	.LVL351:
 2642              		.loc 1 314 3 is_stmt 0 view .LVU495
 2643 000c 084A     		ldr	r2, .L143
 2644              	.LVL352:
 2645              		.loc 1 314 3 view .LVU496
 2646 000e 0949     		ldr	r1, .L143+4
 2647              	.LVL353:
 2648              		.loc 1 314 3 view .LVU497
 2649 0010 FFF7FEFF 		bl	u8x8_Setup
 2650              	.LVL354:
 315:Core/Src/u8g2/Src/u8g2_d_setup.c ****   buf = u8g2_m_16_8_f(&tile_buf_height);
 2651              		.loc 1 315 3 is_stmt 1 view .LVU498
 2652              		.loc 1 315 9 is_stmt 0 view .LVU499
 2653 0014 0DF10F00 		add	r0, sp, #15
 2654 0018 FFF7FEFF 		bl	u8g2_m_16_8_f
 2655              	.LVL355:
 2656 001c 0146     		mov	r1, r0
 2657              	.LVL356:
 316:Core/Src/u8g2/Src/u8g2_d_setup.c ****   u8g2_SetupBuffer(u8g2, buf, tile_buf_height, u8g2_ll_hvline_vertical_top_lsb, rotation);
 2658              		.loc 1 316 3 is_stmt 1 view .LVU500
 2659 001e 0095     		str	r5, [sp]
 2660 0020 054B     		ldr	r3, .L143+8
 2661 0022 9DF80F20 		ldrb	r2, [sp, #15]	@ zero_extendqisi2
 2662 0026 2046     		mov	r0, r4
ARM GAS  C:\Users\MOROSH~1\AppData\Local\Temp\ccO8NVXv.s 			page 52


 2663              	.LVL357:
 2664              		.loc 1 316 3 is_stmt 0 view .LVU501
 2665 0028 FFF7FEFF 		bl	u8g2_SetupBuffer
 2666              	.LVL358:
 317:Core/Src/u8g2/Src/u8g2_d_setup.c **** }
 2667              		.loc 1 317 1 view .LVU502
 2668 002c 05B0     		add	sp, sp, #20
 2669              	.LCFI107:
 2670              		.cfi_def_cfa_offset 12
 2671              		@ sp needed
 2672 002e 30BD     		pop	{r4, r5, pc}
 2673              	.LVL359:
 2674              	.L144:
 2675              		.loc 1 317 1 view .LVU503
 2676              		.align	2
 2677              	.L143:
 2678 0030 00000000 		.word	u8x8_cad_001
 2679 0034 00000000 		.word	u8x8_d_ssd1306_128x64_alt0
 2680 0038 00000000 		.word	u8g2_ll_hvline_vertical_top_lsb
 2681              		.cfi_endproc
 2682              	.LFE35:
 2684              		.section	.text.u8g2_Setup_ssd1306_i2c_128x64_noname_1,"ax",%progbits
 2685              		.align	1
 2686              		.global	u8g2_Setup_ssd1306_i2c_128x64_noname_1
 2687              		.syntax unified
 2688              		.thumb
 2689              		.thumb_func
 2691              	u8g2_Setup_ssd1306_i2c_128x64_noname_1:
 2692              	.LVL360:
 2693              	.LFB36:
 318:Core/Src/u8g2/Src/u8g2_d_setup.c **** /* ssd1306 */
 319:Core/Src/u8g2/Src/u8g2_d_setup.c **** /* ssd1306 1 */
 320:Core/Src/u8g2/Src/u8g2_d_setup.c **** void u8g2_Setup_ssd1306_i2c_128x64_noname_1(u8g2_t *u8g2, const u8g2_cb_t *rotation, u8x8_msg_cb by
 321:Core/Src/u8g2/Src/u8g2_d_setup.c **** {
 2694              		.loc 1 321 1 is_stmt 1 view -0
 2695              		.cfi_startproc
 2696              		@ args = 0, pretend = 0, frame = 8
 2697              		@ frame_needed = 0, uses_anonymous_args = 0
 2698              		.loc 1 321 1 is_stmt 0 view .LVU505
 2699 0000 30B5     		push	{r4, r5, lr}
 2700              	.LCFI108:
 2701              		.cfi_def_cfa_offset 12
 2702              		.cfi_offset 4, -12
 2703              		.cfi_offset 5, -8
 2704              		.cfi_offset 14, -4
 2705 0002 85B0     		sub	sp, sp, #20
 2706              	.LCFI109:
 2707              		.cfi_def_cfa_offset 32
 2708 0004 0446     		mov	r4, r0
 2709 0006 0D46     		mov	r5, r1
 322:Core/Src/u8g2/Src/u8g2_d_setup.c ****   uint8_t tile_buf_height;
 2710              		.loc 1 322 3 is_stmt 1 view .LVU506
 323:Core/Src/u8g2/Src/u8g2_d_setup.c ****   uint8_t *buf;
 2711              		.loc 1 323 3 view .LVU507
 324:Core/Src/u8g2/Src/u8g2_d_setup.c ****   u8g2_SetupDisplay(u8g2, u8x8_d_ssd1306_128x64_noname, u8x8_cad_ssd13xx_fast_i2c, byte_cb, gpio_an
 2712              		.loc 1 324 3 view .LVU508
 2713 0008 0093     		str	r3, [sp]
ARM GAS  C:\Users\MOROSH~1\AppData\Local\Temp\ccO8NVXv.s 			page 53


 2714 000a 1346     		mov	r3, r2
 2715              	.LVL361:
 2716              		.loc 1 324 3 is_stmt 0 view .LVU509
 2717 000c 084A     		ldr	r2, .L147
 2718              	.LVL362:
 2719              		.loc 1 324 3 view .LVU510
 2720 000e 0949     		ldr	r1, .L147+4
 2721              	.LVL363:
 2722              		.loc 1 324 3 view .LVU511
 2723 0010 FFF7FEFF 		bl	u8x8_Setup
 2724              	.LVL364:
 325:Core/Src/u8g2/Src/u8g2_d_setup.c ****   buf = u8g2_m_16_8_1(&tile_buf_height);
 2725              		.loc 1 325 3 is_stmt 1 view .LVU512
 2726              		.loc 1 325 9 is_stmt 0 view .LVU513
 2727 0014 0DF10F00 		add	r0, sp, #15
 2728 0018 FFF7FEFF 		bl	u8g2_m_16_8_1
 2729              	.LVL365:
 2730 001c 0146     		mov	r1, r0
 2731              	.LVL366:
 326:Core/Src/u8g2/Src/u8g2_d_setup.c ****   u8g2_SetupBuffer(u8g2, buf, tile_buf_height, u8g2_ll_hvline_vertical_top_lsb, rotation);
 2732              		.loc 1 326 3 is_stmt 1 view .LVU514
 2733 001e 0095     		str	r5, [sp]
 2734 0020 054B     		ldr	r3, .L147+8
 2735 0022 9DF80F20 		ldrb	r2, [sp, #15]	@ zero_extendqisi2
 2736 0026 2046     		mov	r0, r4
 2737              	.LVL367:
 2738              		.loc 1 326 3 is_stmt 0 view .LVU515
 2739 0028 FFF7FEFF 		bl	u8g2_SetupBuffer
 2740              	.LVL368:
 327:Core/Src/u8g2/Src/u8g2_d_setup.c **** }
 2741              		.loc 1 327 1 view .LVU516
 2742 002c 05B0     		add	sp, sp, #20
 2743              	.LCFI110:
 2744              		.cfi_def_cfa_offset 12
 2745              		@ sp needed
 2746 002e 30BD     		pop	{r4, r5, pc}
 2747              	.LVL369:
 2748              	.L148:
 2749              		.loc 1 327 1 view .LVU517
 2750              		.align	2
 2751              	.L147:
 2752 0030 00000000 		.word	u8x8_cad_ssd13xx_fast_i2c
 2753 0034 00000000 		.word	u8x8_d_ssd1306_128x64_noname
 2754 0038 00000000 		.word	u8g2_ll_hvline_vertical_top_lsb
 2755              		.cfi_endproc
 2756              	.LFE36:
 2758              		.section	.text.u8g2_Setup_ssd1306_i2c_128x64_vcomh0_1,"ax",%progbits
 2759              		.align	1
 2760              		.global	u8g2_Setup_ssd1306_i2c_128x64_vcomh0_1
 2761              		.syntax unified
 2762              		.thumb
 2763              		.thumb_func
 2765              	u8g2_Setup_ssd1306_i2c_128x64_vcomh0_1:
 2766              	.LVL370:
 2767              	.LFB37:
 328:Core/Src/u8g2/Src/u8g2_d_setup.c **** void u8g2_Setup_ssd1306_i2c_128x64_vcomh0_1(u8g2_t *u8g2, const u8g2_cb_t *rotation, u8x8_msg_cb by
 329:Core/Src/u8g2/Src/u8g2_d_setup.c **** {
ARM GAS  C:\Users\MOROSH~1\AppData\Local\Temp\ccO8NVXv.s 			page 54


 2768              		.loc 1 329 1 is_stmt 1 view -0
 2769              		.cfi_startproc
 2770              		@ args = 0, pretend = 0, frame = 8
 2771              		@ frame_needed = 0, uses_anonymous_args = 0
 2772              		.loc 1 329 1 is_stmt 0 view .LVU519
 2773 0000 30B5     		push	{r4, r5, lr}
 2774              	.LCFI111:
 2775              		.cfi_def_cfa_offset 12
 2776              		.cfi_offset 4, -12
 2777              		.cfi_offset 5, -8
 2778              		.cfi_offset 14, -4
 2779 0002 85B0     		sub	sp, sp, #20
 2780              	.LCFI112:
 2781              		.cfi_def_cfa_offset 32
 2782 0004 0446     		mov	r4, r0
 2783 0006 0D46     		mov	r5, r1
 330:Core/Src/u8g2/Src/u8g2_d_setup.c ****   uint8_t tile_buf_height;
 2784              		.loc 1 330 3 is_stmt 1 view .LVU520
 331:Core/Src/u8g2/Src/u8g2_d_setup.c ****   uint8_t *buf;
 2785              		.loc 1 331 3 view .LVU521
 332:Core/Src/u8g2/Src/u8g2_d_setup.c ****   u8g2_SetupDisplay(u8g2, u8x8_d_ssd1306_128x64_vcomh0, u8x8_cad_ssd13xx_fast_i2c, byte_cb, gpio_an
 2786              		.loc 1 332 3 view .LVU522
 2787 0008 0093     		str	r3, [sp]
 2788 000a 1346     		mov	r3, r2
 2789              	.LVL371:
 2790              		.loc 1 332 3 is_stmt 0 view .LVU523
 2791 000c 084A     		ldr	r2, .L151
 2792              	.LVL372:
 2793              		.loc 1 332 3 view .LVU524
 2794 000e 0949     		ldr	r1, .L151+4
 2795              	.LVL373:
 2796              		.loc 1 332 3 view .LVU525
 2797 0010 FFF7FEFF 		bl	u8x8_Setup
 2798              	.LVL374:
 333:Core/Src/u8g2/Src/u8g2_d_setup.c ****   buf = u8g2_m_16_8_1(&tile_buf_height);
 2799              		.loc 1 333 3 is_stmt 1 view .LVU526
 2800              		.loc 1 333 9 is_stmt 0 view .LVU527
 2801 0014 0DF10F00 		add	r0, sp, #15
 2802 0018 FFF7FEFF 		bl	u8g2_m_16_8_1
 2803              	.LVL375:
 2804 001c 0146     		mov	r1, r0
 2805              	.LVL376:
 334:Core/Src/u8g2/Src/u8g2_d_setup.c ****   u8g2_SetupBuffer(u8g2, buf, tile_buf_height, u8g2_ll_hvline_vertical_top_lsb, rotation);
 2806              		.loc 1 334 3 is_stmt 1 view .LVU528
 2807 001e 0095     		str	r5, [sp]
 2808 0020 054B     		ldr	r3, .L151+8
 2809 0022 9DF80F20 		ldrb	r2, [sp, #15]	@ zero_extendqisi2
 2810 0026 2046     		mov	r0, r4
 2811              	.LVL377:
 2812              		.loc 1 334 3 is_stmt 0 view .LVU529
 2813 0028 FFF7FEFF 		bl	u8g2_SetupBuffer
 2814              	.LVL378:
 335:Core/Src/u8g2/Src/u8g2_d_setup.c **** }
 2815              		.loc 1 335 1 view .LVU530
 2816 002c 05B0     		add	sp, sp, #20
 2817              	.LCFI113:
 2818              		.cfi_def_cfa_offset 12
ARM GAS  C:\Users\MOROSH~1\AppData\Local\Temp\ccO8NVXv.s 			page 55


 2819              		@ sp needed
 2820 002e 30BD     		pop	{r4, r5, pc}
 2821              	.LVL379:
 2822              	.L152:
 2823              		.loc 1 335 1 view .LVU531
 2824              		.align	2
 2825              	.L151:
 2826 0030 00000000 		.word	u8x8_cad_ssd13xx_fast_i2c
 2827 0034 00000000 		.word	u8x8_d_ssd1306_128x64_vcomh0
 2828 0038 00000000 		.word	u8g2_ll_hvline_vertical_top_lsb
 2829              		.cfi_endproc
 2830              	.LFE37:
 2832              		.section	.text.u8g2_Setup_ssd1306_i2c_128x64_alt0_1,"ax",%progbits
 2833              		.align	1
 2834              		.global	u8g2_Setup_ssd1306_i2c_128x64_alt0_1
 2835              		.syntax unified
 2836              		.thumb
 2837              		.thumb_func
 2839              	u8g2_Setup_ssd1306_i2c_128x64_alt0_1:
 2840              	.LVL380:
 2841              	.LFB38:
 336:Core/Src/u8g2/Src/u8g2_d_setup.c **** void u8g2_Setup_ssd1306_i2c_128x64_alt0_1(u8g2_t *u8g2, const u8g2_cb_t *rotation, u8x8_msg_cb byte
 337:Core/Src/u8g2/Src/u8g2_d_setup.c **** {
 2842              		.loc 1 337 1 is_stmt 1 view -0
 2843              		.cfi_startproc
 2844              		@ args = 0, pretend = 0, frame = 8
 2845              		@ frame_needed = 0, uses_anonymous_args = 0
 2846              		.loc 1 337 1 is_stmt 0 view .LVU533
 2847 0000 30B5     		push	{r4, r5, lr}
 2848              	.LCFI114:
 2849              		.cfi_def_cfa_offset 12
 2850              		.cfi_offset 4, -12
 2851              		.cfi_offset 5, -8
 2852              		.cfi_offset 14, -4
 2853 0002 85B0     		sub	sp, sp, #20
 2854              	.LCFI115:
 2855              		.cfi_def_cfa_offset 32
 2856 0004 0446     		mov	r4, r0
 2857 0006 0D46     		mov	r5, r1
 338:Core/Src/u8g2/Src/u8g2_d_setup.c ****   uint8_t tile_buf_height;
 2858              		.loc 1 338 3 is_stmt 1 view .LVU534
 339:Core/Src/u8g2/Src/u8g2_d_setup.c ****   uint8_t *buf;
 2859              		.loc 1 339 3 view .LVU535
 340:Core/Src/u8g2/Src/u8g2_d_setup.c ****   u8g2_SetupDisplay(u8g2, u8x8_d_ssd1306_128x64_alt0, u8x8_cad_ssd13xx_fast_i2c, byte_cb, gpio_and_
 2860              		.loc 1 340 3 view .LVU536
 2861 0008 0093     		str	r3, [sp]
 2862 000a 1346     		mov	r3, r2
 2863              	.LVL381:
 2864              		.loc 1 340 3 is_stmt 0 view .LVU537
 2865 000c 084A     		ldr	r2, .L155
 2866              	.LVL382:
 2867              		.loc 1 340 3 view .LVU538
 2868 000e 0949     		ldr	r1, .L155+4
 2869              	.LVL383:
 2870              		.loc 1 340 3 view .LVU539
 2871 0010 FFF7FEFF 		bl	u8x8_Setup
 2872              	.LVL384:
ARM GAS  C:\Users\MOROSH~1\AppData\Local\Temp\ccO8NVXv.s 			page 56


 341:Core/Src/u8g2/Src/u8g2_d_setup.c ****   buf = u8g2_m_16_8_1(&tile_buf_height);
 2873              		.loc 1 341 3 is_stmt 1 view .LVU540
 2874              		.loc 1 341 9 is_stmt 0 view .LVU541
 2875 0014 0DF10F00 		add	r0, sp, #15
 2876 0018 FFF7FEFF 		bl	u8g2_m_16_8_1
 2877              	.LVL385:
 2878 001c 0146     		mov	r1, r0
 2879              	.LVL386:
 342:Core/Src/u8g2/Src/u8g2_d_setup.c ****   u8g2_SetupBuffer(u8g2, buf, tile_buf_height, u8g2_ll_hvline_vertical_top_lsb, rotation);
 2880              		.loc 1 342 3 is_stmt 1 view .LVU542
 2881 001e 0095     		str	r5, [sp]
 2882 0020 054B     		ldr	r3, .L155+8
 2883 0022 9DF80F20 		ldrb	r2, [sp, #15]	@ zero_extendqisi2
 2884 0026 2046     		mov	r0, r4
 2885              	.LVL387:
 2886              		.loc 1 342 3 is_stmt 0 view .LVU543
 2887 0028 FFF7FEFF 		bl	u8g2_SetupBuffer
 2888              	.LVL388:
 343:Core/Src/u8g2/Src/u8g2_d_setup.c **** }
 2889              		.loc 1 343 1 view .LVU544
 2890 002c 05B0     		add	sp, sp, #20
 2891              	.LCFI116:
 2892              		.cfi_def_cfa_offset 12
 2893              		@ sp needed
 2894 002e 30BD     		pop	{r4, r5, pc}
 2895              	.LVL389:
 2896              	.L156:
 2897              		.loc 1 343 1 view .LVU545
 2898              		.align	2
 2899              	.L155:
 2900 0030 00000000 		.word	u8x8_cad_ssd13xx_fast_i2c
 2901 0034 00000000 		.word	u8x8_d_ssd1306_128x64_alt0
 2902 0038 00000000 		.word	u8g2_ll_hvline_vertical_top_lsb
 2903              		.cfi_endproc
 2904              	.LFE38:
 2906              		.section	.text.u8g2_Setup_ssd1306_i2c_128x64_noname_2,"ax",%progbits
 2907              		.align	1
 2908              		.global	u8g2_Setup_ssd1306_i2c_128x64_noname_2
 2909              		.syntax unified
 2910              		.thumb
 2911              		.thumb_func
 2913              	u8g2_Setup_ssd1306_i2c_128x64_noname_2:
 2914              	.LVL390:
 2915              	.LFB39:
 344:Core/Src/u8g2/Src/u8g2_d_setup.c **** /* ssd1306 2 */
 345:Core/Src/u8g2/Src/u8g2_d_setup.c **** void u8g2_Setup_ssd1306_i2c_128x64_noname_2(u8g2_t *u8g2, const u8g2_cb_t *rotation, u8x8_msg_cb by
 346:Core/Src/u8g2/Src/u8g2_d_setup.c **** {
 2916              		.loc 1 346 1 is_stmt 1 view -0
 2917              		.cfi_startproc
 2918              		@ args = 0, pretend = 0, frame = 8
 2919              		@ frame_needed = 0, uses_anonymous_args = 0
 2920              		.loc 1 346 1 is_stmt 0 view .LVU547
 2921 0000 30B5     		push	{r4, r5, lr}
 2922              	.LCFI117:
 2923              		.cfi_def_cfa_offset 12
 2924              		.cfi_offset 4, -12
 2925              		.cfi_offset 5, -8
ARM GAS  C:\Users\MOROSH~1\AppData\Local\Temp\ccO8NVXv.s 			page 57


 2926              		.cfi_offset 14, -4
 2927 0002 85B0     		sub	sp, sp, #20
 2928              	.LCFI118:
 2929              		.cfi_def_cfa_offset 32
 2930 0004 0446     		mov	r4, r0
 2931 0006 0D46     		mov	r5, r1
 347:Core/Src/u8g2/Src/u8g2_d_setup.c ****   uint8_t tile_buf_height;
 2932              		.loc 1 347 3 is_stmt 1 view .LVU548
 348:Core/Src/u8g2/Src/u8g2_d_setup.c ****   uint8_t *buf;
 2933              		.loc 1 348 3 view .LVU549
 349:Core/Src/u8g2/Src/u8g2_d_setup.c ****   u8g2_SetupDisplay(u8g2, u8x8_d_ssd1306_128x64_noname, u8x8_cad_ssd13xx_fast_i2c, byte_cb, gpio_an
 2934              		.loc 1 349 3 view .LVU550
 2935 0008 0093     		str	r3, [sp]
 2936 000a 1346     		mov	r3, r2
 2937              	.LVL391:
 2938              		.loc 1 349 3 is_stmt 0 view .LVU551
 2939 000c 084A     		ldr	r2, .L159
 2940              	.LVL392:
 2941              		.loc 1 349 3 view .LVU552
 2942 000e 0949     		ldr	r1, .L159+4
 2943              	.LVL393:
 2944              		.loc 1 349 3 view .LVU553
 2945 0010 FFF7FEFF 		bl	u8x8_Setup
 2946              	.LVL394:
 350:Core/Src/u8g2/Src/u8g2_d_setup.c ****   buf = u8g2_m_16_8_2(&tile_buf_height);
 2947              		.loc 1 350 3 is_stmt 1 view .LVU554
 2948              		.loc 1 350 9 is_stmt 0 view .LVU555
 2949 0014 0DF10F00 		add	r0, sp, #15
 2950 0018 FFF7FEFF 		bl	u8g2_m_16_8_2
 2951              	.LVL395:
 2952 001c 0146     		mov	r1, r0
 2953              	.LVL396:
 351:Core/Src/u8g2/Src/u8g2_d_setup.c ****   u8g2_SetupBuffer(u8g2, buf, tile_buf_height, u8g2_ll_hvline_vertical_top_lsb, rotation);
 2954              		.loc 1 351 3 is_stmt 1 view .LVU556
 2955 001e 0095     		str	r5, [sp]
 2956 0020 054B     		ldr	r3, .L159+8
 2957 0022 9DF80F20 		ldrb	r2, [sp, #15]	@ zero_extendqisi2
 2958 0026 2046     		mov	r0, r4
 2959              	.LVL397:
 2960              		.loc 1 351 3 is_stmt 0 view .LVU557
 2961 0028 FFF7FEFF 		bl	u8g2_SetupBuffer
 2962              	.LVL398:
 352:Core/Src/u8g2/Src/u8g2_d_setup.c **** }
 2963              		.loc 1 352 1 view .LVU558
 2964 002c 05B0     		add	sp, sp, #20
 2965              	.LCFI119:
 2966              		.cfi_def_cfa_offset 12
 2967              		@ sp needed
 2968 002e 30BD     		pop	{r4, r5, pc}
 2969              	.LVL399:
 2970              	.L160:
 2971              		.loc 1 352 1 view .LVU559
 2972              		.align	2
 2973              	.L159:
 2974 0030 00000000 		.word	u8x8_cad_ssd13xx_fast_i2c
 2975 0034 00000000 		.word	u8x8_d_ssd1306_128x64_noname
 2976 0038 00000000 		.word	u8g2_ll_hvline_vertical_top_lsb
ARM GAS  C:\Users\MOROSH~1\AppData\Local\Temp\ccO8NVXv.s 			page 58


 2977              		.cfi_endproc
 2978              	.LFE39:
 2980              		.section	.text.u8g2_Setup_ssd1306_i2c_128x64_vcomh0_2,"ax",%progbits
 2981              		.align	1
 2982              		.global	u8g2_Setup_ssd1306_i2c_128x64_vcomh0_2
 2983              		.syntax unified
 2984              		.thumb
 2985              		.thumb_func
 2987              	u8g2_Setup_ssd1306_i2c_128x64_vcomh0_2:
 2988              	.LVL400:
 2989              	.LFB40:
 353:Core/Src/u8g2/Src/u8g2_d_setup.c **** void u8g2_Setup_ssd1306_i2c_128x64_vcomh0_2(u8g2_t *u8g2, const u8g2_cb_t *rotation, u8x8_msg_cb by
 354:Core/Src/u8g2/Src/u8g2_d_setup.c **** {
 2990              		.loc 1 354 1 is_stmt 1 view -0
 2991              		.cfi_startproc
 2992              		@ args = 0, pretend = 0, frame = 8
 2993              		@ frame_needed = 0, uses_anonymous_args = 0
 2994              		.loc 1 354 1 is_stmt 0 view .LVU561
 2995 0000 30B5     		push	{r4, r5, lr}
 2996              	.LCFI120:
 2997              		.cfi_def_cfa_offset 12
 2998              		.cfi_offset 4, -12
 2999              		.cfi_offset 5, -8
 3000              		.cfi_offset 14, -4
 3001 0002 85B0     		sub	sp, sp, #20
 3002              	.LCFI121:
 3003              		.cfi_def_cfa_offset 32
 3004 0004 0446     		mov	r4, r0
 3005 0006 0D46     		mov	r5, r1
 355:Core/Src/u8g2/Src/u8g2_d_setup.c ****   uint8_t tile_buf_height;
 3006              		.loc 1 355 3 is_stmt 1 view .LVU562
 356:Core/Src/u8g2/Src/u8g2_d_setup.c ****   uint8_t *buf;
 3007              		.loc 1 356 3 view .LVU563
 357:Core/Src/u8g2/Src/u8g2_d_setup.c ****   u8g2_SetupDisplay(u8g2, u8x8_d_ssd1306_128x64_vcomh0, u8x8_cad_ssd13xx_fast_i2c, byte_cb, gpio_an
 3008              		.loc 1 357 3 view .LVU564
 3009 0008 0093     		str	r3, [sp]
 3010 000a 1346     		mov	r3, r2
 3011              	.LVL401:
 3012              		.loc 1 357 3 is_stmt 0 view .LVU565
 3013 000c 084A     		ldr	r2, .L163
 3014              	.LVL402:
 3015              		.loc 1 357 3 view .LVU566
 3016 000e 0949     		ldr	r1, .L163+4
 3017              	.LVL403:
 3018              		.loc 1 357 3 view .LVU567
 3019 0010 FFF7FEFF 		bl	u8x8_Setup
 3020              	.LVL404:
 358:Core/Src/u8g2/Src/u8g2_d_setup.c ****   buf = u8g2_m_16_8_2(&tile_buf_height);
 3021              		.loc 1 358 3 is_stmt 1 view .LVU568
 3022              		.loc 1 358 9 is_stmt 0 view .LVU569
 3023 0014 0DF10F00 		add	r0, sp, #15
 3024 0018 FFF7FEFF 		bl	u8g2_m_16_8_2
 3025              	.LVL405:
 3026 001c 0146     		mov	r1, r0
 3027              	.LVL406:
 359:Core/Src/u8g2/Src/u8g2_d_setup.c ****   u8g2_SetupBuffer(u8g2, buf, tile_buf_height, u8g2_ll_hvline_vertical_top_lsb, rotation);
 3028              		.loc 1 359 3 is_stmt 1 view .LVU570
ARM GAS  C:\Users\MOROSH~1\AppData\Local\Temp\ccO8NVXv.s 			page 59


 3029 001e 0095     		str	r5, [sp]
 3030 0020 054B     		ldr	r3, .L163+8
 3031 0022 9DF80F20 		ldrb	r2, [sp, #15]	@ zero_extendqisi2
 3032 0026 2046     		mov	r0, r4
 3033              	.LVL407:
 3034              		.loc 1 359 3 is_stmt 0 view .LVU571
 3035 0028 FFF7FEFF 		bl	u8g2_SetupBuffer
 3036              	.LVL408:
 360:Core/Src/u8g2/Src/u8g2_d_setup.c **** }
 3037              		.loc 1 360 1 view .LVU572
 3038 002c 05B0     		add	sp, sp, #20
 3039              	.LCFI122:
 3040              		.cfi_def_cfa_offset 12
 3041              		@ sp needed
 3042 002e 30BD     		pop	{r4, r5, pc}
 3043              	.LVL409:
 3044              	.L164:
 3045              		.loc 1 360 1 view .LVU573
 3046              		.align	2
 3047              	.L163:
 3048 0030 00000000 		.word	u8x8_cad_ssd13xx_fast_i2c
 3049 0034 00000000 		.word	u8x8_d_ssd1306_128x64_vcomh0
 3050 0038 00000000 		.word	u8g2_ll_hvline_vertical_top_lsb
 3051              		.cfi_endproc
 3052              	.LFE40:
 3054              		.section	.text.u8g2_Setup_ssd1306_i2c_128x64_alt0_2,"ax",%progbits
 3055              		.align	1
 3056              		.global	u8g2_Setup_ssd1306_i2c_128x64_alt0_2
 3057              		.syntax unified
 3058              		.thumb
 3059              		.thumb_func
 3061              	u8g2_Setup_ssd1306_i2c_128x64_alt0_2:
 3062              	.LVL410:
 3063              	.LFB41:
 361:Core/Src/u8g2/Src/u8g2_d_setup.c **** void u8g2_Setup_ssd1306_i2c_128x64_alt0_2(u8g2_t *u8g2, const u8g2_cb_t *rotation, u8x8_msg_cb byte
 362:Core/Src/u8g2/Src/u8g2_d_setup.c **** {
 3064              		.loc 1 362 1 is_stmt 1 view -0
 3065              		.cfi_startproc
 3066              		@ args = 0, pretend = 0, frame = 8
 3067              		@ frame_needed = 0, uses_anonymous_args = 0
 3068              		.loc 1 362 1 is_stmt 0 view .LVU575
 3069 0000 30B5     		push	{r4, r5, lr}
 3070              	.LCFI123:
 3071              		.cfi_def_cfa_offset 12
 3072              		.cfi_offset 4, -12
 3073              		.cfi_offset 5, -8
 3074              		.cfi_offset 14, -4
 3075 0002 85B0     		sub	sp, sp, #20
 3076              	.LCFI124:
 3077              		.cfi_def_cfa_offset 32
 3078 0004 0446     		mov	r4, r0
 3079 0006 0D46     		mov	r5, r1
 363:Core/Src/u8g2/Src/u8g2_d_setup.c ****   uint8_t tile_buf_height;
 3080              		.loc 1 363 3 is_stmt 1 view .LVU576
 364:Core/Src/u8g2/Src/u8g2_d_setup.c ****   uint8_t *buf;
 3081              		.loc 1 364 3 view .LVU577
 365:Core/Src/u8g2/Src/u8g2_d_setup.c ****   u8g2_SetupDisplay(u8g2, u8x8_d_ssd1306_128x64_alt0, u8x8_cad_ssd13xx_fast_i2c, byte_cb, gpio_and_
ARM GAS  C:\Users\MOROSH~1\AppData\Local\Temp\ccO8NVXv.s 			page 60


 3082              		.loc 1 365 3 view .LVU578
 3083 0008 0093     		str	r3, [sp]
 3084 000a 1346     		mov	r3, r2
 3085              	.LVL411:
 3086              		.loc 1 365 3 is_stmt 0 view .LVU579
 3087 000c 084A     		ldr	r2, .L167
 3088              	.LVL412:
 3089              		.loc 1 365 3 view .LVU580
 3090 000e 0949     		ldr	r1, .L167+4
 3091              	.LVL413:
 3092              		.loc 1 365 3 view .LVU581
 3093 0010 FFF7FEFF 		bl	u8x8_Setup
 3094              	.LVL414:
 366:Core/Src/u8g2/Src/u8g2_d_setup.c ****   buf = u8g2_m_16_8_2(&tile_buf_height);
 3095              		.loc 1 366 3 is_stmt 1 view .LVU582
 3096              		.loc 1 366 9 is_stmt 0 view .LVU583
 3097 0014 0DF10F00 		add	r0, sp, #15
 3098 0018 FFF7FEFF 		bl	u8g2_m_16_8_2
 3099              	.LVL415:
 3100 001c 0146     		mov	r1, r0
 3101              	.LVL416:
 367:Core/Src/u8g2/Src/u8g2_d_setup.c ****   u8g2_SetupBuffer(u8g2, buf, tile_buf_height, u8g2_ll_hvline_vertical_top_lsb, rotation);
 3102              		.loc 1 367 3 is_stmt 1 view .LVU584
 3103 001e 0095     		str	r5, [sp]
 3104 0020 054B     		ldr	r3, .L167+8
 3105 0022 9DF80F20 		ldrb	r2, [sp, #15]	@ zero_extendqisi2
 3106 0026 2046     		mov	r0, r4
 3107              	.LVL417:
 3108              		.loc 1 367 3 is_stmt 0 view .LVU585
 3109 0028 FFF7FEFF 		bl	u8g2_SetupBuffer
 3110              	.LVL418:
 368:Core/Src/u8g2/Src/u8g2_d_setup.c **** }
 3111              		.loc 1 368 1 view .LVU586
 3112 002c 05B0     		add	sp, sp, #20
 3113              	.LCFI125:
 3114              		.cfi_def_cfa_offset 12
 3115              		@ sp needed
 3116 002e 30BD     		pop	{r4, r5, pc}
 3117              	.LVL419:
 3118              	.L168:
 3119              		.loc 1 368 1 view .LVU587
 3120              		.align	2
 3121              	.L167:
 3122 0030 00000000 		.word	u8x8_cad_ssd13xx_fast_i2c
 3123 0034 00000000 		.word	u8x8_d_ssd1306_128x64_alt0
 3124 0038 00000000 		.word	u8g2_ll_hvline_vertical_top_lsb
 3125              		.cfi_endproc
 3126              	.LFE41:
 3128              		.section	.text.u8g2_Setup_ssd1306_i2c_128x64_noname_f,"ax",%progbits
 3129              		.align	1
 3130              		.global	u8g2_Setup_ssd1306_i2c_128x64_noname_f
 3131              		.syntax unified
 3132              		.thumb
 3133              		.thumb_func
 3135              	u8g2_Setup_ssd1306_i2c_128x64_noname_f:
 3136              	.LVL420:
 3137              	.LFB42:
ARM GAS  C:\Users\MOROSH~1\AppData\Local\Temp\ccO8NVXv.s 			page 61


 369:Core/Src/u8g2/Src/u8g2_d_setup.c **** /* ssd1306 f */
 370:Core/Src/u8g2/Src/u8g2_d_setup.c **** void u8g2_Setup_ssd1306_i2c_128x64_noname_f(u8g2_t *u8g2, const u8g2_cb_t *rotation, u8x8_msg_cb by
 371:Core/Src/u8g2/Src/u8g2_d_setup.c **** {
 3138              		.loc 1 371 1 is_stmt 1 view -0
 3139              		.cfi_startproc
 3140              		@ args = 0, pretend = 0, frame = 8
 3141              		@ frame_needed = 0, uses_anonymous_args = 0
 3142              		.loc 1 371 1 is_stmt 0 view .LVU589
 3143 0000 30B5     		push	{r4, r5, lr}
 3144              	.LCFI126:
 3145              		.cfi_def_cfa_offset 12
 3146              		.cfi_offset 4, -12
 3147              		.cfi_offset 5, -8
 3148              		.cfi_offset 14, -4
 3149 0002 85B0     		sub	sp, sp, #20
 3150              	.LCFI127:
 3151              		.cfi_def_cfa_offset 32
 3152 0004 0446     		mov	r4, r0
 3153 0006 0D46     		mov	r5, r1
 372:Core/Src/u8g2/Src/u8g2_d_setup.c ****   uint8_t tile_buf_height;
 3154              		.loc 1 372 3 is_stmt 1 view .LVU590
 373:Core/Src/u8g2/Src/u8g2_d_setup.c ****   uint8_t *buf;
 3155              		.loc 1 373 3 view .LVU591
 374:Core/Src/u8g2/Src/u8g2_d_setup.c ****   u8g2_SetupDisplay(u8g2, u8x8_d_ssd1306_128x64_noname, u8x8_cad_ssd13xx_fast_i2c, byte_cb, gpio_an
 3156              		.loc 1 374 3 view .LVU592
 3157 0008 0093     		str	r3, [sp]
 3158 000a 1346     		mov	r3, r2
 3159              	.LVL421:
 3160              		.loc 1 374 3 is_stmt 0 view .LVU593
 3161 000c 084A     		ldr	r2, .L171
 3162              	.LVL422:
 3163              		.loc 1 374 3 view .LVU594
 3164 000e 0949     		ldr	r1, .L171+4
 3165              	.LVL423:
 3166              		.loc 1 374 3 view .LVU595
 3167 0010 FFF7FEFF 		bl	u8x8_Setup
 3168              	.LVL424:
 375:Core/Src/u8g2/Src/u8g2_d_setup.c ****   buf = u8g2_m_16_8_f(&tile_buf_height);
 3169              		.loc 1 375 3 is_stmt 1 view .LVU596
 3170              		.loc 1 375 9 is_stmt 0 view .LVU597
 3171 0014 0DF10F00 		add	r0, sp, #15
 3172 0018 FFF7FEFF 		bl	u8g2_m_16_8_f
 3173              	.LVL425:
 3174 001c 0146     		mov	r1, r0
 3175              	.LVL426:
 376:Core/Src/u8g2/Src/u8g2_d_setup.c ****   u8g2_SetupBuffer(u8g2, buf, tile_buf_height, u8g2_ll_hvline_vertical_top_lsb, rotation);
 3176              		.loc 1 376 3 is_stmt 1 view .LVU598
 3177 001e 0095     		str	r5, [sp]
 3178 0020 054B     		ldr	r3, .L171+8
 3179 0022 9DF80F20 		ldrb	r2, [sp, #15]	@ zero_extendqisi2
 3180 0026 2046     		mov	r0, r4
 3181              	.LVL427:
 3182              		.loc 1 376 3 is_stmt 0 view .LVU599
 3183 0028 FFF7FEFF 		bl	u8g2_SetupBuffer
 3184              	.LVL428:
 377:Core/Src/u8g2/Src/u8g2_d_setup.c **** }
 3185              		.loc 1 377 1 view .LVU600
ARM GAS  C:\Users\MOROSH~1\AppData\Local\Temp\ccO8NVXv.s 			page 62


 3186 002c 05B0     		add	sp, sp, #20
 3187              	.LCFI128:
 3188              		.cfi_def_cfa_offset 12
 3189              		@ sp needed
 3190 002e 30BD     		pop	{r4, r5, pc}
 3191              	.LVL429:
 3192              	.L172:
 3193              		.loc 1 377 1 view .LVU601
 3194              		.align	2
 3195              	.L171:
 3196 0030 00000000 		.word	u8x8_cad_ssd13xx_fast_i2c
 3197 0034 00000000 		.word	u8x8_d_ssd1306_128x64_noname
 3198 0038 00000000 		.word	u8g2_ll_hvline_vertical_top_lsb
 3199              		.cfi_endproc
 3200              	.LFE42:
 3202              		.section	.text.u8g2_Setup_ssd1306_i2c_128x64_vcomh0_f,"ax",%progbits
 3203              		.align	1
 3204              		.global	u8g2_Setup_ssd1306_i2c_128x64_vcomh0_f
 3205              		.syntax unified
 3206              		.thumb
 3207              		.thumb_func
 3209              	u8g2_Setup_ssd1306_i2c_128x64_vcomh0_f:
 3210              	.LVL430:
 3211              	.LFB43:
 378:Core/Src/u8g2/Src/u8g2_d_setup.c **** void u8g2_Setup_ssd1306_i2c_128x64_vcomh0_f(u8g2_t *u8g2, const u8g2_cb_t *rotation, u8x8_msg_cb by
 379:Core/Src/u8g2/Src/u8g2_d_setup.c **** {
 3212              		.loc 1 379 1 is_stmt 1 view -0
 3213              		.cfi_startproc
 3214              		@ args = 0, pretend = 0, frame = 8
 3215              		@ frame_needed = 0, uses_anonymous_args = 0
 3216              		.loc 1 379 1 is_stmt 0 view .LVU603
 3217 0000 30B5     		push	{r4, r5, lr}
 3218              	.LCFI129:
 3219              		.cfi_def_cfa_offset 12
 3220              		.cfi_offset 4, -12
 3221              		.cfi_offset 5, -8
 3222              		.cfi_offset 14, -4
 3223 0002 85B0     		sub	sp, sp, #20
 3224              	.LCFI130:
 3225              		.cfi_def_cfa_offset 32
 3226 0004 0446     		mov	r4, r0
 3227 0006 0D46     		mov	r5, r1
 380:Core/Src/u8g2/Src/u8g2_d_setup.c ****   uint8_t tile_buf_height;
 3228              		.loc 1 380 3 is_stmt 1 view .LVU604
 381:Core/Src/u8g2/Src/u8g2_d_setup.c ****   uint8_t *buf;
 3229              		.loc 1 381 3 view .LVU605
 382:Core/Src/u8g2/Src/u8g2_d_setup.c ****   u8g2_SetupDisplay(u8g2, u8x8_d_ssd1306_128x64_vcomh0, u8x8_cad_ssd13xx_fast_i2c, byte_cb, gpio_an
 3230              		.loc 1 382 3 view .LVU606
 3231 0008 0093     		str	r3, [sp]
 3232 000a 1346     		mov	r3, r2
 3233              	.LVL431:
 3234              		.loc 1 382 3 is_stmt 0 view .LVU607
 3235 000c 084A     		ldr	r2, .L175
 3236              	.LVL432:
 3237              		.loc 1 382 3 view .LVU608
 3238 000e 0949     		ldr	r1, .L175+4
 3239              	.LVL433:
ARM GAS  C:\Users\MOROSH~1\AppData\Local\Temp\ccO8NVXv.s 			page 63


 3240              		.loc 1 382 3 view .LVU609
 3241 0010 FFF7FEFF 		bl	u8x8_Setup
 3242              	.LVL434:
 383:Core/Src/u8g2/Src/u8g2_d_setup.c ****   buf = u8g2_m_16_8_f(&tile_buf_height);
 3243              		.loc 1 383 3 is_stmt 1 view .LVU610
 3244              		.loc 1 383 9 is_stmt 0 view .LVU611
 3245 0014 0DF10F00 		add	r0, sp, #15
 3246 0018 FFF7FEFF 		bl	u8g2_m_16_8_f
 3247              	.LVL435:
 3248 001c 0146     		mov	r1, r0
 3249              	.LVL436:
 384:Core/Src/u8g2/Src/u8g2_d_setup.c ****   u8g2_SetupBuffer(u8g2, buf, tile_buf_height, u8g2_ll_hvline_vertical_top_lsb, rotation);
 3250              		.loc 1 384 3 is_stmt 1 view .LVU612
 3251 001e 0095     		str	r5, [sp]
 3252 0020 054B     		ldr	r3, .L175+8
 3253 0022 9DF80F20 		ldrb	r2, [sp, #15]	@ zero_extendqisi2
 3254 0026 2046     		mov	r0, r4
 3255              	.LVL437:
 3256              		.loc 1 384 3 is_stmt 0 view .LVU613
 3257 0028 FFF7FEFF 		bl	u8g2_SetupBuffer
 3258              	.LVL438:
 385:Core/Src/u8g2/Src/u8g2_d_setup.c **** }
 3259              		.loc 1 385 1 view .LVU614
 3260 002c 05B0     		add	sp, sp, #20
 3261              	.LCFI131:
 3262              		.cfi_def_cfa_offset 12
 3263              		@ sp needed
 3264 002e 30BD     		pop	{r4, r5, pc}
 3265              	.LVL439:
 3266              	.L176:
 3267              		.loc 1 385 1 view .LVU615
 3268              		.align	2
 3269              	.L175:
 3270 0030 00000000 		.word	u8x8_cad_ssd13xx_fast_i2c
 3271 0034 00000000 		.word	u8x8_d_ssd1306_128x64_vcomh0
 3272 0038 00000000 		.word	u8g2_ll_hvline_vertical_top_lsb
 3273              		.cfi_endproc
 3274              	.LFE43:
 3276              		.section	.text.u8g2_Setup_ssd1306_i2c_128x64_alt0_f,"ax",%progbits
 3277              		.align	1
 3278              		.global	u8g2_Setup_ssd1306_i2c_128x64_alt0_f
 3279              		.syntax unified
 3280              		.thumb
 3281              		.thumb_func
 3283              	u8g2_Setup_ssd1306_i2c_128x64_alt0_f:
 3284              	.LVL440:
 3285              	.LFB44:
 386:Core/Src/u8g2/Src/u8g2_d_setup.c **** void u8g2_Setup_ssd1306_i2c_128x64_alt0_f(u8g2_t *u8g2, const u8g2_cb_t *rotation, u8x8_msg_cb byte
 387:Core/Src/u8g2/Src/u8g2_d_setup.c **** {
 3286              		.loc 1 387 1 is_stmt 1 view -0
 3287              		.cfi_startproc
 3288              		@ args = 0, pretend = 0, frame = 8
 3289              		@ frame_needed = 0, uses_anonymous_args = 0
 3290              		.loc 1 387 1 is_stmt 0 view .LVU617
 3291 0000 30B5     		push	{r4, r5, lr}
 3292              	.LCFI132:
 3293              		.cfi_def_cfa_offset 12
ARM GAS  C:\Users\MOROSH~1\AppData\Local\Temp\ccO8NVXv.s 			page 64


 3294              		.cfi_offset 4, -12
 3295              		.cfi_offset 5, -8
 3296              		.cfi_offset 14, -4
 3297 0002 85B0     		sub	sp, sp, #20
 3298              	.LCFI133:
 3299              		.cfi_def_cfa_offset 32
 3300 0004 0446     		mov	r4, r0
 3301 0006 0D46     		mov	r5, r1
 388:Core/Src/u8g2/Src/u8g2_d_setup.c ****   uint8_t tile_buf_height;
 3302              		.loc 1 388 3 is_stmt 1 view .LVU618
 389:Core/Src/u8g2/Src/u8g2_d_setup.c ****   uint8_t *buf;
 3303              		.loc 1 389 3 view .LVU619
 390:Core/Src/u8g2/Src/u8g2_d_setup.c ****   u8g2_SetupDisplay(u8g2, u8x8_d_ssd1306_128x64_alt0, u8x8_cad_ssd13xx_fast_i2c, byte_cb, gpio_and_
 3304              		.loc 1 390 3 view .LVU620
 3305 0008 0093     		str	r3, [sp]
 3306 000a 1346     		mov	r3, r2
 3307              	.LVL441:
 3308              		.loc 1 390 3 is_stmt 0 view .LVU621
 3309 000c 084A     		ldr	r2, .L179
 3310              	.LVL442:
 3311              		.loc 1 390 3 view .LVU622
 3312 000e 0949     		ldr	r1, .L179+4
 3313              	.LVL443:
 3314              		.loc 1 390 3 view .LVU623
 3315 0010 FFF7FEFF 		bl	u8x8_Setup
 3316              	.LVL444:
 391:Core/Src/u8g2/Src/u8g2_d_setup.c ****   buf = u8g2_m_16_8_f(&tile_buf_height);
 3317              		.loc 1 391 3 is_stmt 1 view .LVU624
 3318              		.loc 1 391 9 is_stmt 0 view .LVU625
 3319 0014 0DF10F00 		add	r0, sp, #15
 3320 0018 FFF7FEFF 		bl	u8g2_m_16_8_f
 3321              	.LVL445:
 3322 001c 0146     		mov	r1, r0
 3323              	.LVL446:
 392:Core/Src/u8g2/Src/u8g2_d_setup.c ****   u8g2_SetupBuffer(u8g2, buf, tile_buf_height, u8g2_ll_hvline_vertical_top_lsb, rotation);
 3324              		.loc 1 392 3 is_stmt 1 view .LVU626
 3325 001e 0095     		str	r5, [sp]
 3326 0020 054B     		ldr	r3, .L179+8
 3327 0022 9DF80F20 		ldrb	r2, [sp, #15]	@ zero_extendqisi2
 3328 0026 2046     		mov	r0, r4
 3329              	.LVL447:
 3330              		.loc 1 392 3 is_stmt 0 view .LVU627
 3331 0028 FFF7FEFF 		bl	u8g2_SetupBuffer
 3332              	.LVL448:
 393:Core/Src/u8g2/Src/u8g2_d_setup.c **** }
 3333              		.loc 1 393 1 view .LVU628
 3334 002c 05B0     		add	sp, sp, #20
 3335              	.LCFI134:
 3336              		.cfi_def_cfa_offset 12
 3337              		@ sp needed
 3338 002e 30BD     		pop	{r4, r5, pc}
 3339              	.LVL449:
 3340              	.L180:
 3341              		.loc 1 393 1 view .LVU629
 3342              		.align	2
 3343              	.L179:
 3344 0030 00000000 		.word	u8x8_cad_ssd13xx_fast_i2c
ARM GAS  C:\Users\MOROSH~1\AppData\Local\Temp\ccO8NVXv.s 			page 65


 3345 0034 00000000 		.word	u8x8_d_ssd1306_128x64_alt0
 3346 0038 00000000 		.word	u8g2_ll_hvline_vertical_top_lsb
 3347              		.cfi_endproc
 3348              	.LFE44:
 3350              		.section	.text.u8g2_Setup_ssd1312_128x64_noname_1,"ax",%progbits
 3351              		.align	1
 3352              		.global	u8g2_Setup_ssd1312_128x64_noname_1
 3353              		.syntax unified
 3354              		.thumb
 3355              		.thumb_func
 3357              	u8g2_Setup_ssd1312_128x64_noname_1:
 3358              	.LVL450:
 3359              	.LFB45:
 394:Core/Src/u8g2/Src/u8g2_d_setup.c **** /* ssd1312 */
 395:Core/Src/u8g2/Src/u8g2_d_setup.c **** /* ssd1312 1 */
 396:Core/Src/u8g2/Src/u8g2_d_setup.c **** void u8g2_Setup_ssd1312_128x64_noname_1(u8g2_t *u8g2, const u8g2_cb_t *rotation, u8x8_msg_cb byte_c
 397:Core/Src/u8g2/Src/u8g2_d_setup.c **** {
 3360              		.loc 1 397 1 is_stmt 1 view -0
 3361              		.cfi_startproc
 3362              		@ args = 0, pretend = 0, frame = 8
 3363              		@ frame_needed = 0, uses_anonymous_args = 0
 3364              		.loc 1 397 1 is_stmt 0 view .LVU631
 3365 0000 30B5     		push	{r4, r5, lr}
 3366              	.LCFI135:
 3367              		.cfi_def_cfa_offset 12
 3368              		.cfi_offset 4, -12
 3369              		.cfi_offset 5, -8
 3370              		.cfi_offset 14, -4
 3371 0002 85B0     		sub	sp, sp, #20
 3372              	.LCFI136:
 3373              		.cfi_def_cfa_offset 32
 3374 0004 0446     		mov	r4, r0
 3375 0006 0D46     		mov	r5, r1
 398:Core/Src/u8g2/Src/u8g2_d_setup.c ****   uint8_t tile_buf_height;
 3376              		.loc 1 398 3 is_stmt 1 view .LVU632
 399:Core/Src/u8g2/Src/u8g2_d_setup.c ****   uint8_t *buf;
 3377              		.loc 1 399 3 view .LVU633
 400:Core/Src/u8g2/Src/u8g2_d_setup.c ****   u8g2_SetupDisplay(u8g2, u8x8_d_ssd1312_128x64_noname, u8x8_cad_001, byte_cb, gpio_and_delay_cb);
 3378              		.loc 1 400 3 view .LVU634
 3379 0008 0093     		str	r3, [sp]
 3380 000a 1346     		mov	r3, r2
 3381              	.LVL451:
 3382              		.loc 1 400 3 is_stmt 0 view .LVU635
 3383 000c 084A     		ldr	r2, .L183
 3384              	.LVL452:
 3385              		.loc 1 400 3 view .LVU636
 3386 000e 0949     		ldr	r1, .L183+4
 3387              	.LVL453:
 3388              		.loc 1 400 3 view .LVU637
 3389 0010 FFF7FEFF 		bl	u8x8_Setup
 3390              	.LVL454:
 401:Core/Src/u8g2/Src/u8g2_d_setup.c ****   buf = u8g2_m_16_8_1(&tile_buf_height);
 3391              		.loc 1 401 3 is_stmt 1 view .LVU638
 3392              		.loc 1 401 9 is_stmt 0 view .LVU639
 3393 0014 0DF10F00 		add	r0, sp, #15
 3394 0018 FFF7FEFF 		bl	u8g2_m_16_8_1
 3395              	.LVL455:
ARM GAS  C:\Users\MOROSH~1\AppData\Local\Temp\ccO8NVXv.s 			page 66


 3396 001c 0146     		mov	r1, r0
 3397              	.LVL456:
 402:Core/Src/u8g2/Src/u8g2_d_setup.c ****   u8g2_SetupBuffer(u8g2, buf, tile_buf_height, u8g2_ll_hvline_vertical_top_lsb, rotation);
 3398              		.loc 1 402 3 is_stmt 1 view .LVU640
 3399 001e 0095     		str	r5, [sp]
 3400 0020 054B     		ldr	r3, .L183+8
 3401 0022 9DF80F20 		ldrb	r2, [sp, #15]	@ zero_extendqisi2
 3402 0026 2046     		mov	r0, r4
 3403              	.LVL457:
 3404              		.loc 1 402 3 is_stmt 0 view .LVU641
 3405 0028 FFF7FEFF 		bl	u8g2_SetupBuffer
 3406              	.LVL458:
 403:Core/Src/u8g2/Src/u8g2_d_setup.c **** }
 3407              		.loc 1 403 1 view .LVU642
 3408 002c 05B0     		add	sp, sp, #20
 3409              	.LCFI137:
 3410              		.cfi_def_cfa_offset 12
 3411              		@ sp needed
 3412 002e 30BD     		pop	{r4, r5, pc}
 3413              	.LVL459:
 3414              	.L184:
 3415              		.loc 1 403 1 view .LVU643
 3416              		.align	2
 3417              	.L183:
 3418 0030 00000000 		.word	u8x8_cad_001
 3419 0034 00000000 		.word	u8x8_d_ssd1312_128x64_noname
 3420 0038 00000000 		.word	u8g2_ll_hvline_vertical_top_lsb
 3421              		.cfi_endproc
 3422              	.LFE45:
 3424              		.section	.text.u8g2_Setup_ssd1312_128x64_noname_2,"ax",%progbits
 3425              		.align	1
 3426              		.global	u8g2_Setup_ssd1312_128x64_noname_2
 3427              		.syntax unified
 3428              		.thumb
 3429              		.thumb_func
 3431              	u8g2_Setup_ssd1312_128x64_noname_2:
 3432              	.LVL460:
 3433              	.LFB46:
 404:Core/Src/u8g2/Src/u8g2_d_setup.c **** /* ssd1312 2 */
 405:Core/Src/u8g2/Src/u8g2_d_setup.c **** void u8g2_Setup_ssd1312_128x64_noname_2(u8g2_t *u8g2, const u8g2_cb_t *rotation, u8x8_msg_cb byte_c
 406:Core/Src/u8g2/Src/u8g2_d_setup.c **** {
 3434              		.loc 1 406 1 is_stmt 1 view -0
 3435              		.cfi_startproc
 3436              		@ args = 0, pretend = 0, frame = 8
 3437              		@ frame_needed = 0, uses_anonymous_args = 0
 3438              		.loc 1 406 1 is_stmt 0 view .LVU645
 3439 0000 30B5     		push	{r4, r5, lr}
 3440              	.LCFI138:
 3441              		.cfi_def_cfa_offset 12
 3442              		.cfi_offset 4, -12
 3443              		.cfi_offset 5, -8
 3444              		.cfi_offset 14, -4
 3445 0002 85B0     		sub	sp, sp, #20
 3446              	.LCFI139:
 3447              		.cfi_def_cfa_offset 32
 3448 0004 0446     		mov	r4, r0
 3449 0006 0D46     		mov	r5, r1
ARM GAS  C:\Users\MOROSH~1\AppData\Local\Temp\ccO8NVXv.s 			page 67


 407:Core/Src/u8g2/Src/u8g2_d_setup.c ****   uint8_t tile_buf_height;
 3450              		.loc 1 407 3 is_stmt 1 view .LVU646
 408:Core/Src/u8g2/Src/u8g2_d_setup.c ****   uint8_t *buf;
 3451              		.loc 1 408 3 view .LVU647
 409:Core/Src/u8g2/Src/u8g2_d_setup.c ****   u8g2_SetupDisplay(u8g2, u8x8_d_ssd1312_128x64_noname, u8x8_cad_001, byte_cb, gpio_and_delay_cb);
 3452              		.loc 1 409 3 view .LVU648
 3453 0008 0093     		str	r3, [sp]
 3454 000a 1346     		mov	r3, r2
 3455              	.LVL461:
 3456              		.loc 1 409 3 is_stmt 0 view .LVU649
 3457 000c 084A     		ldr	r2, .L187
 3458              	.LVL462:
 3459              		.loc 1 409 3 view .LVU650
 3460 000e 0949     		ldr	r1, .L187+4
 3461              	.LVL463:
 3462              		.loc 1 409 3 view .LVU651
 3463 0010 FFF7FEFF 		bl	u8x8_Setup
 3464              	.LVL464:
 410:Core/Src/u8g2/Src/u8g2_d_setup.c ****   buf = u8g2_m_16_8_2(&tile_buf_height);
 3465              		.loc 1 410 3 is_stmt 1 view .LVU652
 3466              		.loc 1 410 9 is_stmt 0 view .LVU653
 3467 0014 0DF10F00 		add	r0, sp, #15
 3468 0018 FFF7FEFF 		bl	u8g2_m_16_8_2
 3469              	.LVL465:
 3470 001c 0146     		mov	r1, r0
 3471              	.LVL466:
 411:Core/Src/u8g2/Src/u8g2_d_setup.c ****   u8g2_SetupBuffer(u8g2, buf, tile_buf_height, u8g2_ll_hvline_vertical_top_lsb, rotation);
 3472              		.loc 1 411 3 is_stmt 1 view .LVU654
 3473 001e 0095     		str	r5, [sp]
 3474 0020 054B     		ldr	r3, .L187+8
 3475 0022 9DF80F20 		ldrb	r2, [sp, #15]	@ zero_extendqisi2
 3476 0026 2046     		mov	r0, r4
 3477              	.LVL467:
 3478              		.loc 1 411 3 is_stmt 0 view .LVU655
 3479 0028 FFF7FEFF 		bl	u8g2_SetupBuffer
 3480              	.LVL468:
 412:Core/Src/u8g2/Src/u8g2_d_setup.c **** }
 3481              		.loc 1 412 1 view .LVU656
 3482 002c 05B0     		add	sp, sp, #20
 3483              	.LCFI140:
 3484              		.cfi_def_cfa_offset 12
 3485              		@ sp needed
 3486 002e 30BD     		pop	{r4, r5, pc}
 3487              	.LVL469:
 3488              	.L188:
 3489              		.loc 1 412 1 view .LVU657
 3490              		.align	2
 3491              	.L187:
 3492 0030 00000000 		.word	u8x8_cad_001
 3493 0034 00000000 		.word	u8x8_d_ssd1312_128x64_noname
 3494 0038 00000000 		.word	u8g2_ll_hvline_vertical_top_lsb
 3495              		.cfi_endproc
 3496              	.LFE46:
 3498              		.section	.text.u8g2_Setup_ssd1312_128x64_noname_f,"ax",%progbits
 3499              		.align	1
 3500              		.global	u8g2_Setup_ssd1312_128x64_noname_f
 3501              		.syntax unified
ARM GAS  C:\Users\MOROSH~1\AppData\Local\Temp\ccO8NVXv.s 			page 68


 3502              		.thumb
 3503              		.thumb_func
 3505              	u8g2_Setup_ssd1312_128x64_noname_f:
 3506              	.LVL470:
 3507              	.LFB47:
 413:Core/Src/u8g2/Src/u8g2_d_setup.c **** /* ssd1312 f */
 414:Core/Src/u8g2/Src/u8g2_d_setup.c **** void u8g2_Setup_ssd1312_128x64_noname_f(u8g2_t *u8g2, const u8g2_cb_t *rotation, u8x8_msg_cb byte_c
 415:Core/Src/u8g2/Src/u8g2_d_setup.c **** {
 3508              		.loc 1 415 1 is_stmt 1 view -0
 3509              		.cfi_startproc
 3510              		@ args = 0, pretend = 0, frame = 8
 3511              		@ frame_needed = 0, uses_anonymous_args = 0
 3512              		.loc 1 415 1 is_stmt 0 view .LVU659
 3513 0000 30B5     		push	{r4, r5, lr}
 3514              	.LCFI141:
 3515              		.cfi_def_cfa_offset 12
 3516              		.cfi_offset 4, -12
 3517              		.cfi_offset 5, -8
 3518              		.cfi_offset 14, -4
 3519 0002 85B0     		sub	sp, sp, #20
 3520              	.LCFI142:
 3521              		.cfi_def_cfa_offset 32
 3522 0004 0446     		mov	r4, r0
 3523 0006 0D46     		mov	r5, r1
 416:Core/Src/u8g2/Src/u8g2_d_setup.c ****   uint8_t tile_buf_height;
 3524              		.loc 1 416 3 is_stmt 1 view .LVU660
 417:Core/Src/u8g2/Src/u8g2_d_setup.c ****   uint8_t *buf;
 3525              		.loc 1 417 3 view .LVU661
 418:Core/Src/u8g2/Src/u8g2_d_setup.c ****   u8g2_SetupDisplay(u8g2, u8x8_d_ssd1312_128x64_noname, u8x8_cad_001, byte_cb, gpio_and_delay_cb);
 3526              		.loc 1 418 3 view .LVU662
 3527 0008 0093     		str	r3, [sp]
 3528 000a 1346     		mov	r3, r2
 3529              	.LVL471:
 3530              		.loc 1 418 3 is_stmt 0 view .LVU663
 3531 000c 084A     		ldr	r2, .L191
 3532              	.LVL472:
 3533              		.loc 1 418 3 view .LVU664
 3534 000e 0949     		ldr	r1, .L191+4
 3535              	.LVL473:
 3536              		.loc 1 418 3 view .LVU665
 3537 0010 FFF7FEFF 		bl	u8x8_Setup
 3538              	.LVL474:
 419:Core/Src/u8g2/Src/u8g2_d_setup.c ****   buf = u8g2_m_16_8_f(&tile_buf_height);
 3539              		.loc 1 419 3 is_stmt 1 view .LVU666
 3540              		.loc 1 419 9 is_stmt 0 view .LVU667
 3541 0014 0DF10F00 		add	r0, sp, #15
 3542 0018 FFF7FEFF 		bl	u8g2_m_16_8_f
 3543              	.LVL475:
 3544 001c 0146     		mov	r1, r0
 3545              	.LVL476:
 420:Core/Src/u8g2/Src/u8g2_d_setup.c ****   u8g2_SetupBuffer(u8g2, buf, tile_buf_height, u8g2_ll_hvline_vertical_top_lsb, rotation);
 3546              		.loc 1 420 3 is_stmt 1 view .LVU668
 3547 001e 0095     		str	r5, [sp]
 3548 0020 054B     		ldr	r3, .L191+8
 3549 0022 9DF80F20 		ldrb	r2, [sp, #15]	@ zero_extendqisi2
 3550 0026 2046     		mov	r0, r4
 3551              	.LVL477:
ARM GAS  C:\Users\MOROSH~1\AppData\Local\Temp\ccO8NVXv.s 			page 69


 3552              		.loc 1 420 3 is_stmt 0 view .LVU669
 3553 0028 FFF7FEFF 		bl	u8g2_SetupBuffer
 3554              	.LVL478:
 421:Core/Src/u8g2/Src/u8g2_d_setup.c **** }
 3555              		.loc 1 421 1 view .LVU670
 3556 002c 05B0     		add	sp, sp, #20
 3557              	.LCFI143:
 3558              		.cfi_def_cfa_offset 12
 3559              		@ sp needed
 3560 002e 30BD     		pop	{r4, r5, pc}
 3561              	.LVL479:
 3562              	.L192:
 3563              		.loc 1 421 1 view .LVU671
 3564              		.align	2
 3565              	.L191:
 3566 0030 00000000 		.word	u8x8_cad_001
 3567 0034 00000000 		.word	u8x8_d_ssd1312_128x64_noname
 3568 0038 00000000 		.word	u8g2_ll_hvline_vertical_top_lsb
 3569              		.cfi_endproc
 3570              	.LFE47:
 3572              		.section	.text.u8g2_Setup_ssd1312_i2c_128x64_noname_1,"ax",%progbits
 3573              		.align	1
 3574              		.global	u8g2_Setup_ssd1312_i2c_128x64_noname_1
 3575              		.syntax unified
 3576              		.thumb
 3577              		.thumb_func
 3579              	u8g2_Setup_ssd1312_i2c_128x64_noname_1:
 3580              	.LVL480:
 3581              	.LFB48:
 422:Core/Src/u8g2/Src/u8g2_d_setup.c **** /* ssd1312 */
 423:Core/Src/u8g2/Src/u8g2_d_setup.c **** /* ssd1312 1 */
 424:Core/Src/u8g2/Src/u8g2_d_setup.c **** void u8g2_Setup_ssd1312_i2c_128x64_noname_1(u8g2_t *u8g2, const u8g2_cb_t *rotation, u8x8_msg_cb by
 425:Core/Src/u8g2/Src/u8g2_d_setup.c **** {
 3582              		.loc 1 425 1 is_stmt 1 view -0
 3583              		.cfi_startproc
 3584              		@ args = 0, pretend = 0, frame = 8
 3585              		@ frame_needed = 0, uses_anonymous_args = 0
 3586              		.loc 1 425 1 is_stmt 0 view .LVU673
 3587 0000 30B5     		push	{r4, r5, lr}
 3588              	.LCFI144:
 3589              		.cfi_def_cfa_offset 12
 3590              		.cfi_offset 4, -12
 3591              		.cfi_offset 5, -8
 3592              		.cfi_offset 14, -4
 3593 0002 85B0     		sub	sp, sp, #20
 3594              	.LCFI145:
 3595              		.cfi_def_cfa_offset 32
 3596 0004 0446     		mov	r4, r0
 3597 0006 0D46     		mov	r5, r1
 426:Core/Src/u8g2/Src/u8g2_d_setup.c ****   uint8_t tile_buf_height;
 3598              		.loc 1 426 3 is_stmt 1 view .LVU674
 427:Core/Src/u8g2/Src/u8g2_d_setup.c ****   uint8_t *buf;
 3599              		.loc 1 427 3 view .LVU675
 428:Core/Src/u8g2/Src/u8g2_d_setup.c ****   u8g2_SetupDisplay(u8g2, u8x8_d_ssd1312_128x64_noname, u8x8_cad_ssd13xx_fast_i2c, byte_cb, gpio_an
 3600              		.loc 1 428 3 view .LVU676
 3601 0008 0093     		str	r3, [sp]
 3602 000a 1346     		mov	r3, r2
ARM GAS  C:\Users\MOROSH~1\AppData\Local\Temp\ccO8NVXv.s 			page 70


 3603              	.LVL481:
 3604              		.loc 1 428 3 is_stmt 0 view .LVU677
 3605 000c 084A     		ldr	r2, .L195
 3606              	.LVL482:
 3607              		.loc 1 428 3 view .LVU678
 3608 000e 0949     		ldr	r1, .L195+4
 3609              	.LVL483:
 3610              		.loc 1 428 3 view .LVU679
 3611 0010 FFF7FEFF 		bl	u8x8_Setup
 3612              	.LVL484:
 429:Core/Src/u8g2/Src/u8g2_d_setup.c ****   buf = u8g2_m_16_8_1(&tile_buf_height);
 3613              		.loc 1 429 3 is_stmt 1 view .LVU680
 3614              		.loc 1 429 9 is_stmt 0 view .LVU681
 3615 0014 0DF10F00 		add	r0, sp, #15
 3616 0018 FFF7FEFF 		bl	u8g2_m_16_8_1
 3617              	.LVL485:
 3618 001c 0146     		mov	r1, r0
 3619              	.LVL486:
 430:Core/Src/u8g2/Src/u8g2_d_setup.c ****   u8g2_SetupBuffer(u8g2, buf, tile_buf_height, u8g2_ll_hvline_vertical_top_lsb, rotation);
 3620              		.loc 1 430 3 is_stmt 1 view .LVU682
 3621 001e 0095     		str	r5, [sp]
 3622 0020 054B     		ldr	r3, .L195+8
 3623 0022 9DF80F20 		ldrb	r2, [sp, #15]	@ zero_extendqisi2
 3624 0026 2046     		mov	r0, r4
 3625              	.LVL487:
 3626              		.loc 1 430 3 is_stmt 0 view .LVU683
 3627 0028 FFF7FEFF 		bl	u8g2_SetupBuffer
 3628              	.LVL488:
 431:Core/Src/u8g2/Src/u8g2_d_setup.c **** }
 3629              		.loc 1 431 1 view .LVU684
 3630 002c 05B0     		add	sp, sp, #20
 3631              	.LCFI146:
 3632              		.cfi_def_cfa_offset 12
 3633              		@ sp needed
 3634 002e 30BD     		pop	{r4, r5, pc}
 3635              	.LVL489:
 3636              	.L196:
 3637              		.loc 1 431 1 view .LVU685
 3638              		.align	2
 3639              	.L195:
 3640 0030 00000000 		.word	u8x8_cad_ssd13xx_fast_i2c
 3641 0034 00000000 		.word	u8x8_d_ssd1312_128x64_noname
 3642 0038 00000000 		.word	u8g2_ll_hvline_vertical_top_lsb
 3643              		.cfi_endproc
 3644              	.LFE48:
 3646              		.section	.text.u8g2_Setup_ssd1312_i2c_128x64_noname_2,"ax",%progbits
 3647              		.align	1
 3648              		.global	u8g2_Setup_ssd1312_i2c_128x64_noname_2
 3649              		.syntax unified
 3650              		.thumb
 3651              		.thumb_func
 3653              	u8g2_Setup_ssd1312_i2c_128x64_noname_2:
 3654              	.LVL490:
 3655              	.LFB49:
 432:Core/Src/u8g2/Src/u8g2_d_setup.c **** /* ssd1312 2 */
 433:Core/Src/u8g2/Src/u8g2_d_setup.c **** void u8g2_Setup_ssd1312_i2c_128x64_noname_2(u8g2_t *u8g2, const u8g2_cb_t *rotation, u8x8_msg_cb by
 434:Core/Src/u8g2/Src/u8g2_d_setup.c **** {
ARM GAS  C:\Users\MOROSH~1\AppData\Local\Temp\ccO8NVXv.s 			page 71


 3656              		.loc 1 434 1 is_stmt 1 view -0
 3657              		.cfi_startproc
 3658              		@ args = 0, pretend = 0, frame = 8
 3659              		@ frame_needed = 0, uses_anonymous_args = 0
 3660              		.loc 1 434 1 is_stmt 0 view .LVU687
 3661 0000 30B5     		push	{r4, r5, lr}
 3662              	.LCFI147:
 3663              		.cfi_def_cfa_offset 12
 3664              		.cfi_offset 4, -12
 3665              		.cfi_offset 5, -8
 3666              		.cfi_offset 14, -4
 3667 0002 85B0     		sub	sp, sp, #20
 3668              	.LCFI148:
 3669              		.cfi_def_cfa_offset 32
 3670 0004 0446     		mov	r4, r0
 3671 0006 0D46     		mov	r5, r1
 435:Core/Src/u8g2/Src/u8g2_d_setup.c ****   uint8_t tile_buf_height;
 3672              		.loc 1 435 3 is_stmt 1 view .LVU688
 436:Core/Src/u8g2/Src/u8g2_d_setup.c ****   uint8_t *buf;
 3673              		.loc 1 436 3 view .LVU689
 437:Core/Src/u8g2/Src/u8g2_d_setup.c ****   u8g2_SetupDisplay(u8g2, u8x8_d_ssd1312_128x64_noname, u8x8_cad_ssd13xx_fast_i2c, byte_cb, gpio_an
 3674              		.loc 1 437 3 view .LVU690
 3675 0008 0093     		str	r3, [sp]
 3676 000a 1346     		mov	r3, r2
 3677              	.LVL491:
 3678              		.loc 1 437 3 is_stmt 0 view .LVU691
 3679 000c 084A     		ldr	r2, .L199
 3680              	.LVL492:
 3681              		.loc 1 437 3 view .LVU692
 3682 000e 0949     		ldr	r1, .L199+4
 3683              	.LVL493:
 3684              		.loc 1 437 3 view .LVU693
 3685 0010 FFF7FEFF 		bl	u8x8_Setup
 3686              	.LVL494:
 438:Core/Src/u8g2/Src/u8g2_d_setup.c ****   buf = u8g2_m_16_8_2(&tile_buf_height);
 3687              		.loc 1 438 3 is_stmt 1 view .LVU694
 3688              		.loc 1 438 9 is_stmt 0 view .LVU695
 3689 0014 0DF10F00 		add	r0, sp, #15
 3690 0018 FFF7FEFF 		bl	u8g2_m_16_8_2
 3691              	.LVL495:
 3692 001c 0146     		mov	r1, r0
 3693              	.LVL496:
 439:Core/Src/u8g2/Src/u8g2_d_setup.c ****   u8g2_SetupBuffer(u8g2, buf, tile_buf_height, u8g2_ll_hvline_vertical_top_lsb, rotation);
 3694              		.loc 1 439 3 is_stmt 1 view .LVU696
 3695 001e 0095     		str	r5, [sp]
 3696 0020 054B     		ldr	r3, .L199+8
 3697 0022 9DF80F20 		ldrb	r2, [sp, #15]	@ zero_extendqisi2
 3698 0026 2046     		mov	r0, r4
 3699              	.LVL497:
 3700              		.loc 1 439 3 is_stmt 0 view .LVU697
 3701 0028 FFF7FEFF 		bl	u8g2_SetupBuffer
 3702              	.LVL498:
 440:Core/Src/u8g2/Src/u8g2_d_setup.c **** }
 3703              		.loc 1 440 1 view .LVU698
 3704 002c 05B0     		add	sp, sp, #20
 3705              	.LCFI149:
 3706              		.cfi_def_cfa_offset 12
ARM GAS  C:\Users\MOROSH~1\AppData\Local\Temp\ccO8NVXv.s 			page 72


 3707              		@ sp needed
 3708 002e 30BD     		pop	{r4, r5, pc}
 3709              	.LVL499:
 3710              	.L200:
 3711              		.loc 1 440 1 view .LVU699
 3712              		.align	2
 3713              	.L199:
 3714 0030 00000000 		.word	u8x8_cad_ssd13xx_fast_i2c
 3715 0034 00000000 		.word	u8x8_d_ssd1312_128x64_noname
 3716 0038 00000000 		.word	u8g2_ll_hvline_vertical_top_lsb
 3717              		.cfi_endproc
 3718              	.LFE49:
 3720              		.section	.text.u8g2_Setup_ssd1312_i2c_128x64_noname_f,"ax",%progbits
 3721              		.align	1
 3722              		.global	u8g2_Setup_ssd1312_i2c_128x64_noname_f
 3723              		.syntax unified
 3724              		.thumb
 3725              		.thumb_func
 3727              	u8g2_Setup_ssd1312_i2c_128x64_noname_f:
 3728              	.LVL500:
 3729              	.LFB50:
 441:Core/Src/u8g2/Src/u8g2_d_setup.c **** /* ssd1312 f */
 442:Core/Src/u8g2/Src/u8g2_d_setup.c **** void u8g2_Setup_ssd1312_i2c_128x64_noname_f(u8g2_t *u8g2, const u8g2_cb_t *rotation, u8x8_msg_cb by
 443:Core/Src/u8g2/Src/u8g2_d_setup.c **** {
 3730              		.loc 1 443 1 is_stmt 1 view -0
 3731              		.cfi_startproc
 3732              		@ args = 0, pretend = 0, frame = 8
 3733              		@ frame_needed = 0, uses_anonymous_args = 0
 3734              		.loc 1 443 1 is_stmt 0 view .LVU701
 3735 0000 30B5     		push	{r4, r5, lr}
 3736              	.LCFI150:
 3737              		.cfi_def_cfa_offset 12
 3738              		.cfi_offset 4, -12
 3739              		.cfi_offset 5, -8
 3740              		.cfi_offset 14, -4
 3741 0002 85B0     		sub	sp, sp, #20
 3742              	.LCFI151:
 3743              		.cfi_def_cfa_offset 32
 3744 0004 0446     		mov	r4, r0
 3745 0006 0D46     		mov	r5, r1
 444:Core/Src/u8g2/Src/u8g2_d_setup.c ****   uint8_t tile_buf_height;
 3746              		.loc 1 444 3 is_stmt 1 view .LVU702
 445:Core/Src/u8g2/Src/u8g2_d_setup.c ****   uint8_t *buf;
 3747              		.loc 1 445 3 view .LVU703
 446:Core/Src/u8g2/Src/u8g2_d_setup.c ****   u8g2_SetupDisplay(u8g2, u8x8_d_ssd1312_128x64_noname, u8x8_cad_ssd13xx_fast_i2c, byte_cb, gpio_an
 3748              		.loc 1 446 3 view .LVU704
 3749 0008 0093     		str	r3, [sp]
 3750 000a 1346     		mov	r3, r2
 3751              	.LVL501:
 3752              		.loc 1 446 3 is_stmt 0 view .LVU705
 3753 000c 084A     		ldr	r2, .L203
 3754              	.LVL502:
 3755              		.loc 1 446 3 view .LVU706
 3756 000e 0949     		ldr	r1, .L203+4
 3757              	.LVL503:
 3758              		.loc 1 446 3 view .LVU707
 3759 0010 FFF7FEFF 		bl	u8x8_Setup
ARM GAS  C:\Users\MOROSH~1\AppData\Local\Temp\ccO8NVXv.s 			page 73


 3760              	.LVL504:
 447:Core/Src/u8g2/Src/u8g2_d_setup.c ****   buf = u8g2_m_16_8_f(&tile_buf_height);
 3761              		.loc 1 447 3 is_stmt 1 view .LVU708
 3762              		.loc 1 447 9 is_stmt 0 view .LVU709
 3763 0014 0DF10F00 		add	r0, sp, #15
 3764 0018 FFF7FEFF 		bl	u8g2_m_16_8_f
 3765              	.LVL505:
 3766 001c 0146     		mov	r1, r0
 3767              	.LVL506:
 448:Core/Src/u8g2/Src/u8g2_d_setup.c ****   u8g2_SetupBuffer(u8g2, buf, tile_buf_height, u8g2_ll_hvline_vertical_top_lsb, rotation);
 3768              		.loc 1 448 3 is_stmt 1 view .LVU710
 3769 001e 0095     		str	r5, [sp]
 3770 0020 054B     		ldr	r3, .L203+8
 3771 0022 9DF80F20 		ldrb	r2, [sp, #15]	@ zero_extendqisi2
 3772 0026 2046     		mov	r0, r4
 3773              	.LVL507:
 3774              		.loc 1 448 3 is_stmt 0 view .LVU711
 3775 0028 FFF7FEFF 		bl	u8g2_SetupBuffer
 3776              	.LVL508:
 449:Core/Src/u8g2/Src/u8g2_d_setup.c **** }
 3777              		.loc 1 449 1 view .LVU712
 3778 002c 05B0     		add	sp, sp, #20
 3779              	.LCFI152:
 3780              		.cfi_def_cfa_offset 12
 3781              		@ sp needed
 3782 002e 30BD     		pop	{r4, r5, pc}
 3783              	.LVL509:
 3784              	.L204:
 3785              		.loc 1 449 1 view .LVU713
 3786              		.align	2
 3787              	.L203:
 3788 0030 00000000 		.word	u8x8_cad_ssd13xx_fast_i2c
 3789 0034 00000000 		.word	u8x8_d_ssd1312_128x64_noname
 3790 0038 00000000 		.word	u8g2_ll_hvline_vertical_top_lsb
 3791              		.cfi_endproc
 3792              	.LFE50:
 3794              		.section	.text.u8g2_Setup_ssd1306_72x40_er_1,"ax",%progbits
 3795              		.align	1
 3796              		.global	u8g2_Setup_ssd1306_72x40_er_1
 3797              		.syntax unified
 3798              		.thumb
 3799              		.thumb_func
 3801              	u8g2_Setup_ssd1306_72x40_er_1:
 3802              	.LVL510:
 3803              	.LFB51:
 450:Core/Src/u8g2/Src/u8g2_d_setup.c **** /* ssd1306 */
 451:Core/Src/u8g2/Src/u8g2_d_setup.c **** /* ssd1306 1 */
 452:Core/Src/u8g2/Src/u8g2_d_setup.c **** void u8g2_Setup_ssd1306_72x40_er_1(u8g2_t *u8g2, const u8g2_cb_t *rotation, u8x8_msg_cb byte_cb, u8
 453:Core/Src/u8g2/Src/u8g2_d_setup.c **** {
 3804              		.loc 1 453 1 is_stmt 1 view -0
 3805              		.cfi_startproc
 3806              		@ args = 0, pretend = 0, frame = 8
 3807              		@ frame_needed = 0, uses_anonymous_args = 0
 3808              		.loc 1 453 1 is_stmt 0 view .LVU715
 3809 0000 30B5     		push	{r4, r5, lr}
 3810              	.LCFI153:
 3811              		.cfi_def_cfa_offset 12
ARM GAS  C:\Users\MOROSH~1\AppData\Local\Temp\ccO8NVXv.s 			page 74


 3812              		.cfi_offset 4, -12
 3813              		.cfi_offset 5, -8
 3814              		.cfi_offset 14, -4
 3815 0002 85B0     		sub	sp, sp, #20
 3816              	.LCFI154:
 3817              		.cfi_def_cfa_offset 32
 3818 0004 0446     		mov	r4, r0
 3819 0006 0D46     		mov	r5, r1
 454:Core/Src/u8g2/Src/u8g2_d_setup.c ****   uint8_t tile_buf_height;
 3820              		.loc 1 454 3 is_stmt 1 view .LVU716
 455:Core/Src/u8g2/Src/u8g2_d_setup.c ****   uint8_t *buf;
 3821              		.loc 1 455 3 view .LVU717
 456:Core/Src/u8g2/Src/u8g2_d_setup.c ****   u8g2_SetupDisplay(u8g2, u8x8_d_ssd1306_72x40_er, u8x8_cad_001, byte_cb, gpio_and_delay_cb);
 3822              		.loc 1 456 3 view .LVU718
 3823 0008 0093     		str	r3, [sp]
 3824 000a 1346     		mov	r3, r2
 3825              	.LVL511:
 3826              		.loc 1 456 3 is_stmt 0 view .LVU719
 3827 000c 084A     		ldr	r2, .L207
 3828              	.LVL512:
 3829              		.loc 1 456 3 view .LVU720
 3830 000e 0949     		ldr	r1, .L207+4
 3831              	.LVL513:
 3832              		.loc 1 456 3 view .LVU721
 3833 0010 FFF7FEFF 		bl	u8x8_Setup
 3834              	.LVL514:
 457:Core/Src/u8g2/Src/u8g2_d_setup.c ****   buf = u8g2_m_9_5_1(&tile_buf_height);
 3835              		.loc 1 457 3 is_stmt 1 view .LVU722
 3836              		.loc 1 457 9 is_stmt 0 view .LVU723
 3837 0014 0DF10F00 		add	r0, sp, #15
 3838 0018 FFF7FEFF 		bl	u8g2_m_9_5_1
 3839              	.LVL515:
 3840 001c 0146     		mov	r1, r0
 3841              	.LVL516:
 458:Core/Src/u8g2/Src/u8g2_d_setup.c ****   u8g2_SetupBuffer(u8g2, buf, tile_buf_height, u8g2_ll_hvline_vertical_top_lsb, rotation);
 3842              		.loc 1 458 3 is_stmt 1 view .LVU724
 3843 001e 0095     		str	r5, [sp]
 3844 0020 054B     		ldr	r3, .L207+8
 3845 0022 9DF80F20 		ldrb	r2, [sp, #15]	@ zero_extendqisi2
 3846 0026 2046     		mov	r0, r4
 3847              	.LVL517:
 3848              		.loc 1 458 3 is_stmt 0 view .LVU725
 3849 0028 FFF7FEFF 		bl	u8g2_SetupBuffer
 3850              	.LVL518:
 459:Core/Src/u8g2/Src/u8g2_d_setup.c **** }
 3851              		.loc 1 459 1 view .LVU726
 3852 002c 05B0     		add	sp, sp, #20
 3853              	.LCFI155:
 3854              		.cfi_def_cfa_offset 12
 3855              		@ sp needed
 3856 002e 30BD     		pop	{r4, r5, pc}
 3857              	.LVL519:
 3858              	.L208:
 3859              		.loc 1 459 1 view .LVU727
 3860              		.align	2
 3861              	.L207:
 3862 0030 00000000 		.word	u8x8_cad_001
ARM GAS  C:\Users\MOROSH~1\AppData\Local\Temp\ccO8NVXv.s 			page 75


 3863 0034 00000000 		.word	u8x8_d_ssd1306_72x40_er
 3864 0038 00000000 		.word	u8g2_ll_hvline_vertical_top_lsb
 3865              		.cfi_endproc
 3866              	.LFE51:
 3868              		.section	.text.u8g2_Setup_ssd1306_72x40_er_2,"ax",%progbits
 3869              		.align	1
 3870              		.global	u8g2_Setup_ssd1306_72x40_er_2
 3871              		.syntax unified
 3872              		.thumb
 3873              		.thumb_func
 3875              	u8g2_Setup_ssd1306_72x40_er_2:
 3876              	.LVL520:
 3877              	.LFB52:
 460:Core/Src/u8g2/Src/u8g2_d_setup.c **** /* ssd1306 2 */
 461:Core/Src/u8g2/Src/u8g2_d_setup.c **** void u8g2_Setup_ssd1306_72x40_er_2(u8g2_t *u8g2, const u8g2_cb_t *rotation, u8x8_msg_cb byte_cb, u8
 462:Core/Src/u8g2/Src/u8g2_d_setup.c **** {
 3878              		.loc 1 462 1 is_stmt 1 view -0
 3879              		.cfi_startproc
 3880              		@ args = 0, pretend = 0, frame = 8
 3881              		@ frame_needed = 0, uses_anonymous_args = 0
 3882              		.loc 1 462 1 is_stmt 0 view .LVU729
 3883 0000 30B5     		push	{r4, r5, lr}
 3884              	.LCFI156:
 3885              		.cfi_def_cfa_offset 12
 3886              		.cfi_offset 4, -12
 3887              		.cfi_offset 5, -8
 3888              		.cfi_offset 14, -4
 3889 0002 85B0     		sub	sp, sp, #20
 3890              	.LCFI157:
 3891              		.cfi_def_cfa_offset 32
 3892 0004 0446     		mov	r4, r0
 3893 0006 0D46     		mov	r5, r1
 463:Core/Src/u8g2/Src/u8g2_d_setup.c ****   uint8_t tile_buf_height;
 3894              		.loc 1 463 3 is_stmt 1 view .LVU730
 464:Core/Src/u8g2/Src/u8g2_d_setup.c ****   uint8_t *buf;
 3895              		.loc 1 464 3 view .LVU731
 465:Core/Src/u8g2/Src/u8g2_d_setup.c ****   u8g2_SetupDisplay(u8g2, u8x8_d_ssd1306_72x40_er, u8x8_cad_001, byte_cb, gpio_and_delay_cb);
 3896              		.loc 1 465 3 view .LVU732
 3897 0008 0093     		str	r3, [sp]
 3898 000a 1346     		mov	r3, r2
 3899              	.LVL521:
 3900              		.loc 1 465 3 is_stmt 0 view .LVU733
 3901 000c 084A     		ldr	r2, .L211
 3902              	.LVL522:
 3903              		.loc 1 465 3 view .LVU734
 3904 000e 0949     		ldr	r1, .L211+4
 3905              	.LVL523:
 3906              		.loc 1 465 3 view .LVU735
 3907 0010 FFF7FEFF 		bl	u8x8_Setup
 3908              	.LVL524:
 466:Core/Src/u8g2/Src/u8g2_d_setup.c ****   buf = u8g2_m_9_5_2(&tile_buf_height);
 3909              		.loc 1 466 3 is_stmt 1 view .LVU736
 3910              		.loc 1 466 9 is_stmt 0 view .LVU737
 3911 0014 0DF10F00 		add	r0, sp, #15
 3912 0018 FFF7FEFF 		bl	u8g2_m_9_5_2
 3913              	.LVL525:
 3914 001c 0146     		mov	r1, r0
ARM GAS  C:\Users\MOROSH~1\AppData\Local\Temp\ccO8NVXv.s 			page 76


 3915              	.LVL526:
 467:Core/Src/u8g2/Src/u8g2_d_setup.c ****   u8g2_SetupBuffer(u8g2, buf, tile_buf_height, u8g2_ll_hvline_vertical_top_lsb, rotation);
 3916              		.loc 1 467 3 is_stmt 1 view .LVU738
 3917 001e 0095     		str	r5, [sp]
 3918 0020 054B     		ldr	r3, .L211+8
 3919 0022 9DF80F20 		ldrb	r2, [sp, #15]	@ zero_extendqisi2
 3920 0026 2046     		mov	r0, r4
 3921              	.LVL527:
 3922              		.loc 1 467 3 is_stmt 0 view .LVU739
 3923 0028 FFF7FEFF 		bl	u8g2_SetupBuffer
 3924              	.LVL528:
 468:Core/Src/u8g2/Src/u8g2_d_setup.c **** }
 3925              		.loc 1 468 1 view .LVU740
 3926 002c 05B0     		add	sp, sp, #20
 3927              	.LCFI158:
 3928              		.cfi_def_cfa_offset 12
 3929              		@ sp needed
 3930 002e 30BD     		pop	{r4, r5, pc}
 3931              	.LVL529:
 3932              	.L212:
 3933              		.loc 1 468 1 view .LVU741
 3934              		.align	2
 3935              	.L211:
 3936 0030 00000000 		.word	u8x8_cad_001
 3937 0034 00000000 		.word	u8x8_d_ssd1306_72x40_er
 3938 0038 00000000 		.word	u8g2_ll_hvline_vertical_top_lsb
 3939              		.cfi_endproc
 3940              	.LFE52:
 3942              		.section	.text.u8g2_Setup_ssd1306_72x40_er_f,"ax",%progbits
 3943              		.align	1
 3944              		.global	u8g2_Setup_ssd1306_72x40_er_f
 3945              		.syntax unified
 3946              		.thumb
 3947              		.thumb_func
 3949              	u8g2_Setup_ssd1306_72x40_er_f:
 3950              	.LVL530:
 3951              	.LFB53:
 469:Core/Src/u8g2/Src/u8g2_d_setup.c **** /* ssd1306 f */
 470:Core/Src/u8g2/Src/u8g2_d_setup.c **** void u8g2_Setup_ssd1306_72x40_er_f(u8g2_t *u8g2, const u8g2_cb_t *rotation, u8x8_msg_cb byte_cb, u8
 471:Core/Src/u8g2/Src/u8g2_d_setup.c **** {
 3952              		.loc 1 471 1 is_stmt 1 view -0
 3953              		.cfi_startproc
 3954              		@ args = 0, pretend = 0, frame = 8
 3955              		@ frame_needed = 0, uses_anonymous_args = 0
 3956              		.loc 1 471 1 is_stmt 0 view .LVU743
 3957 0000 30B5     		push	{r4, r5, lr}
 3958              	.LCFI159:
 3959              		.cfi_def_cfa_offset 12
 3960              		.cfi_offset 4, -12
 3961              		.cfi_offset 5, -8
 3962              		.cfi_offset 14, -4
 3963 0002 85B0     		sub	sp, sp, #20
 3964              	.LCFI160:
 3965              		.cfi_def_cfa_offset 32
 3966 0004 0446     		mov	r4, r0
 3967 0006 0D46     		mov	r5, r1
 472:Core/Src/u8g2/Src/u8g2_d_setup.c ****   uint8_t tile_buf_height;
ARM GAS  C:\Users\MOROSH~1\AppData\Local\Temp\ccO8NVXv.s 			page 77


 3968              		.loc 1 472 3 is_stmt 1 view .LVU744
 473:Core/Src/u8g2/Src/u8g2_d_setup.c ****   uint8_t *buf;
 3969              		.loc 1 473 3 view .LVU745
 474:Core/Src/u8g2/Src/u8g2_d_setup.c ****   u8g2_SetupDisplay(u8g2, u8x8_d_ssd1306_72x40_er, u8x8_cad_001, byte_cb, gpio_and_delay_cb);
 3970              		.loc 1 474 3 view .LVU746
 3971 0008 0093     		str	r3, [sp]
 3972 000a 1346     		mov	r3, r2
 3973              	.LVL531:
 3974              		.loc 1 474 3 is_stmt 0 view .LVU747
 3975 000c 084A     		ldr	r2, .L215
 3976              	.LVL532:
 3977              		.loc 1 474 3 view .LVU748
 3978 000e 0949     		ldr	r1, .L215+4
 3979              	.LVL533:
 3980              		.loc 1 474 3 view .LVU749
 3981 0010 FFF7FEFF 		bl	u8x8_Setup
 3982              	.LVL534:
 475:Core/Src/u8g2/Src/u8g2_d_setup.c ****   buf = u8g2_m_9_5_f(&tile_buf_height);
 3983              		.loc 1 475 3 is_stmt 1 view .LVU750
 3984              		.loc 1 475 9 is_stmt 0 view .LVU751
 3985 0014 0DF10F00 		add	r0, sp, #15
 3986 0018 FFF7FEFF 		bl	u8g2_m_9_5_f
 3987              	.LVL535:
 3988 001c 0146     		mov	r1, r0
 3989              	.LVL536:
 476:Core/Src/u8g2/Src/u8g2_d_setup.c ****   u8g2_SetupBuffer(u8g2, buf, tile_buf_height, u8g2_ll_hvline_vertical_top_lsb, rotation);
 3990              		.loc 1 476 3 is_stmt 1 view .LVU752
 3991 001e 0095     		str	r5, [sp]
 3992 0020 054B     		ldr	r3, .L215+8
 3993 0022 9DF80F20 		ldrb	r2, [sp, #15]	@ zero_extendqisi2
 3994 0026 2046     		mov	r0, r4
 3995              	.LVL537:
 3996              		.loc 1 476 3 is_stmt 0 view .LVU753
 3997 0028 FFF7FEFF 		bl	u8g2_SetupBuffer
 3998              	.LVL538:
 477:Core/Src/u8g2/Src/u8g2_d_setup.c **** }
 3999              		.loc 1 477 1 view .LVU754
 4000 002c 05B0     		add	sp, sp, #20
 4001              	.LCFI161:
 4002              		.cfi_def_cfa_offset 12
 4003              		@ sp needed
 4004 002e 30BD     		pop	{r4, r5, pc}
 4005              	.LVL539:
 4006              	.L216:
 4007              		.loc 1 477 1 view .LVU755
 4008              		.align	2
 4009              	.L215:
 4010 0030 00000000 		.word	u8x8_cad_001
 4011 0034 00000000 		.word	u8x8_d_ssd1306_72x40_er
 4012 0038 00000000 		.word	u8g2_ll_hvline_vertical_top_lsb
 4013              		.cfi_endproc
 4014              	.LFE53:
 4016              		.section	.text.u8g2_Setup_ssd1306_i2c_72x40_er_1,"ax",%progbits
 4017              		.align	1
 4018              		.global	u8g2_Setup_ssd1306_i2c_72x40_er_1
 4019              		.syntax unified
 4020              		.thumb
ARM GAS  C:\Users\MOROSH~1\AppData\Local\Temp\ccO8NVXv.s 			page 78


 4021              		.thumb_func
 4023              	u8g2_Setup_ssd1306_i2c_72x40_er_1:
 4024              	.LVL540:
 4025              	.LFB54:
 478:Core/Src/u8g2/Src/u8g2_d_setup.c **** /* ssd1306 */
 479:Core/Src/u8g2/Src/u8g2_d_setup.c **** /* ssd1306 1 */
 480:Core/Src/u8g2/Src/u8g2_d_setup.c **** void u8g2_Setup_ssd1306_i2c_72x40_er_1(u8g2_t *u8g2, const u8g2_cb_t *rotation, u8x8_msg_cb byte_cb
 481:Core/Src/u8g2/Src/u8g2_d_setup.c **** {
 4026              		.loc 1 481 1 is_stmt 1 view -0
 4027              		.cfi_startproc
 4028              		@ args = 0, pretend = 0, frame = 8
 4029              		@ frame_needed = 0, uses_anonymous_args = 0
 4030              		.loc 1 481 1 is_stmt 0 view .LVU757
 4031 0000 30B5     		push	{r4, r5, lr}
 4032              	.LCFI162:
 4033              		.cfi_def_cfa_offset 12
 4034              		.cfi_offset 4, -12
 4035              		.cfi_offset 5, -8
 4036              		.cfi_offset 14, -4
 4037 0002 85B0     		sub	sp, sp, #20
 4038              	.LCFI163:
 4039              		.cfi_def_cfa_offset 32
 4040 0004 0446     		mov	r4, r0
 4041 0006 0D46     		mov	r5, r1
 482:Core/Src/u8g2/Src/u8g2_d_setup.c ****   uint8_t tile_buf_height;
 4042              		.loc 1 482 3 is_stmt 1 view .LVU758
 483:Core/Src/u8g2/Src/u8g2_d_setup.c ****   uint8_t *buf;
 4043              		.loc 1 483 3 view .LVU759
 484:Core/Src/u8g2/Src/u8g2_d_setup.c ****   u8g2_SetupDisplay(u8g2, u8x8_d_ssd1306_72x40_er, u8x8_cad_ssd13xx_fast_i2c, byte_cb, gpio_and_del
 4044              		.loc 1 484 3 view .LVU760
 4045 0008 0093     		str	r3, [sp]
 4046 000a 1346     		mov	r3, r2
 4047              	.LVL541:
 4048              		.loc 1 484 3 is_stmt 0 view .LVU761
 4049 000c 084A     		ldr	r2, .L219
 4050              	.LVL542:
 4051              		.loc 1 484 3 view .LVU762
 4052 000e 0949     		ldr	r1, .L219+4
 4053              	.LVL543:
 4054              		.loc 1 484 3 view .LVU763
 4055 0010 FFF7FEFF 		bl	u8x8_Setup
 4056              	.LVL544:
 485:Core/Src/u8g2/Src/u8g2_d_setup.c ****   buf = u8g2_m_9_5_1(&tile_buf_height);
 4057              		.loc 1 485 3 is_stmt 1 view .LVU764
 4058              		.loc 1 485 9 is_stmt 0 view .LVU765
 4059 0014 0DF10F00 		add	r0, sp, #15
 4060 0018 FFF7FEFF 		bl	u8g2_m_9_5_1
 4061              	.LVL545:
 4062 001c 0146     		mov	r1, r0
 4063              	.LVL546:
 486:Core/Src/u8g2/Src/u8g2_d_setup.c ****   u8g2_SetupBuffer(u8g2, buf, tile_buf_height, u8g2_ll_hvline_vertical_top_lsb, rotation);
 4064              		.loc 1 486 3 is_stmt 1 view .LVU766
 4065 001e 0095     		str	r5, [sp]
 4066 0020 054B     		ldr	r3, .L219+8
 4067 0022 9DF80F20 		ldrb	r2, [sp, #15]	@ zero_extendqisi2
 4068 0026 2046     		mov	r0, r4
 4069              	.LVL547:
ARM GAS  C:\Users\MOROSH~1\AppData\Local\Temp\ccO8NVXv.s 			page 79


 4070              		.loc 1 486 3 is_stmt 0 view .LVU767
 4071 0028 FFF7FEFF 		bl	u8g2_SetupBuffer
 4072              	.LVL548:
 487:Core/Src/u8g2/Src/u8g2_d_setup.c **** }
 4073              		.loc 1 487 1 view .LVU768
 4074 002c 05B0     		add	sp, sp, #20
 4075              	.LCFI164:
 4076              		.cfi_def_cfa_offset 12
 4077              		@ sp needed
 4078 002e 30BD     		pop	{r4, r5, pc}
 4079              	.LVL549:
 4080              	.L220:
 4081              		.loc 1 487 1 view .LVU769
 4082              		.align	2
 4083              	.L219:
 4084 0030 00000000 		.word	u8x8_cad_ssd13xx_fast_i2c
 4085 0034 00000000 		.word	u8x8_d_ssd1306_72x40_er
 4086 0038 00000000 		.word	u8g2_ll_hvline_vertical_top_lsb
 4087              		.cfi_endproc
 4088              	.LFE54:
 4090              		.section	.text.u8g2_Setup_ssd1306_i2c_72x40_er_2,"ax",%progbits
 4091              		.align	1
 4092              		.global	u8g2_Setup_ssd1306_i2c_72x40_er_2
 4093              		.syntax unified
 4094              		.thumb
 4095              		.thumb_func
 4097              	u8g2_Setup_ssd1306_i2c_72x40_er_2:
 4098              	.LVL550:
 4099              	.LFB55:
 488:Core/Src/u8g2/Src/u8g2_d_setup.c **** /* ssd1306 2 */
 489:Core/Src/u8g2/Src/u8g2_d_setup.c **** void u8g2_Setup_ssd1306_i2c_72x40_er_2(u8g2_t *u8g2, const u8g2_cb_t *rotation, u8x8_msg_cb byte_cb
 490:Core/Src/u8g2/Src/u8g2_d_setup.c **** {
 4100              		.loc 1 490 1 is_stmt 1 view -0
 4101              		.cfi_startproc
 4102              		@ args = 0, pretend = 0, frame = 8
 4103              		@ frame_needed = 0, uses_anonymous_args = 0
 4104              		.loc 1 490 1 is_stmt 0 view .LVU771
 4105 0000 30B5     		push	{r4, r5, lr}
 4106              	.LCFI165:
 4107              		.cfi_def_cfa_offset 12
 4108              		.cfi_offset 4, -12
 4109              		.cfi_offset 5, -8
 4110              		.cfi_offset 14, -4
 4111 0002 85B0     		sub	sp, sp, #20
 4112              	.LCFI166:
 4113              		.cfi_def_cfa_offset 32
 4114 0004 0446     		mov	r4, r0
 4115 0006 0D46     		mov	r5, r1
 491:Core/Src/u8g2/Src/u8g2_d_setup.c ****   uint8_t tile_buf_height;
 4116              		.loc 1 491 3 is_stmt 1 view .LVU772
 492:Core/Src/u8g2/Src/u8g2_d_setup.c ****   uint8_t *buf;
 4117              		.loc 1 492 3 view .LVU773
 493:Core/Src/u8g2/Src/u8g2_d_setup.c ****   u8g2_SetupDisplay(u8g2, u8x8_d_ssd1306_72x40_er, u8x8_cad_ssd13xx_fast_i2c, byte_cb, gpio_and_del
 4118              		.loc 1 493 3 view .LVU774
 4119 0008 0093     		str	r3, [sp]
 4120 000a 1346     		mov	r3, r2
 4121              	.LVL551:
ARM GAS  C:\Users\MOROSH~1\AppData\Local\Temp\ccO8NVXv.s 			page 80


 4122              		.loc 1 493 3 is_stmt 0 view .LVU775
 4123 000c 084A     		ldr	r2, .L223
 4124              	.LVL552:
 4125              		.loc 1 493 3 view .LVU776
 4126 000e 0949     		ldr	r1, .L223+4
 4127              	.LVL553:
 4128              		.loc 1 493 3 view .LVU777
 4129 0010 FFF7FEFF 		bl	u8x8_Setup
 4130              	.LVL554:
 494:Core/Src/u8g2/Src/u8g2_d_setup.c ****   buf = u8g2_m_9_5_2(&tile_buf_height);
 4131              		.loc 1 494 3 is_stmt 1 view .LVU778
 4132              		.loc 1 494 9 is_stmt 0 view .LVU779
 4133 0014 0DF10F00 		add	r0, sp, #15
 4134 0018 FFF7FEFF 		bl	u8g2_m_9_5_2
 4135              	.LVL555:
 4136 001c 0146     		mov	r1, r0
 4137              	.LVL556:
 495:Core/Src/u8g2/Src/u8g2_d_setup.c ****   u8g2_SetupBuffer(u8g2, buf, tile_buf_height, u8g2_ll_hvline_vertical_top_lsb, rotation);
 4138              		.loc 1 495 3 is_stmt 1 view .LVU780
 4139 001e 0095     		str	r5, [sp]
 4140 0020 054B     		ldr	r3, .L223+8
 4141 0022 9DF80F20 		ldrb	r2, [sp, #15]	@ zero_extendqisi2
 4142 0026 2046     		mov	r0, r4
 4143              	.LVL557:
 4144              		.loc 1 495 3 is_stmt 0 view .LVU781
 4145 0028 FFF7FEFF 		bl	u8g2_SetupBuffer
 4146              	.LVL558:
 496:Core/Src/u8g2/Src/u8g2_d_setup.c **** }
 4147              		.loc 1 496 1 view .LVU782
 4148 002c 05B0     		add	sp, sp, #20
 4149              	.LCFI167:
 4150              		.cfi_def_cfa_offset 12
 4151              		@ sp needed
 4152 002e 30BD     		pop	{r4, r5, pc}
 4153              	.LVL559:
 4154              	.L224:
 4155              		.loc 1 496 1 view .LVU783
 4156              		.align	2
 4157              	.L223:
 4158 0030 00000000 		.word	u8x8_cad_ssd13xx_fast_i2c
 4159 0034 00000000 		.word	u8x8_d_ssd1306_72x40_er
 4160 0038 00000000 		.word	u8g2_ll_hvline_vertical_top_lsb
 4161              		.cfi_endproc
 4162              	.LFE55:
 4164              		.section	.text.u8g2_Setup_ssd1306_i2c_72x40_er_f,"ax",%progbits
 4165              		.align	1
 4166              		.global	u8g2_Setup_ssd1306_i2c_72x40_er_f
 4167              		.syntax unified
 4168              		.thumb
 4169              		.thumb_func
 4171              	u8g2_Setup_ssd1306_i2c_72x40_er_f:
 4172              	.LVL560:
 4173              	.LFB56:
 497:Core/Src/u8g2/Src/u8g2_d_setup.c **** /* ssd1306 f */
 498:Core/Src/u8g2/Src/u8g2_d_setup.c **** void u8g2_Setup_ssd1306_i2c_72x40_er_f(u8g2_t *u8g2, const u8g2_cb_t *rotation, u8x8_msg_cb byte_cb
 499:Core/Src/u8g2/Src/u8g2_d_setup.c **** {
 4174              		.loc 1 499 1 is_stmt 1 view -0
ARM GAS  C:\Users\MOROSH~1\AppData\Local\Temp\ccO8NVXv.s 			page 81


 4175              		.cfi_startproc
 4176              		@ args = 0, pretend = 0, frame = 8
 4177              		@ frame_needed = 0, uses_anonymous_args = 0
 4178              		.loc 1 499 1 is_stmt 0 view .LVU785
 4179 0000 30B5     		push	{r4, r5, lr}
 4180              	.LCFI168:
 4181              		.cfi_def_cfa_offset 12
 4182              		.cfi_offset 4, -12
 4183              		.cfi_offset 5, -8
 4184              		.cfi_offset 14, -4
 4185 0002 85B0     		sub	sp, sp, #20
 4186              	.LCFI169:
 4187              		.cfi_def_cfa_offset 32
 4188 0004 0446     		mov	r4, r0
 4189 0006 0D46     		mov	r5, r1
 500:Core/Src/u8g2/Src/u8g2_d_setup.c ****   uint8_t tile_buf_height;
 4190              		.loc 1 500 3 is_stmt 1 view .LVU786
 501:Core/Src/u8g2/Src/u8g2_d_setup.c ****   uint8_t *buf;
 4191              		.loc 1 501 3 view .LVU787
 502:Core/Src/u8g2/Src/u8g2_d_setup.c ****   u8g2_SetupDisplay(u8g2, u8x8_d_ssd1306_72x40_er, u8x8_cad_ssd13xx_fast_i2c, byte_cb, gpio_and_del
 4192              		.loc 1 502 3 view .LVU788
 4193 0008 0093     		str	r3, [sp]
 4194 000a 1346     		mov	r3, r2
 4195              	.LVL561:
 4196              		.loc 1 502 3 is_stmt 0 view .LVU789
 4197 000c 084A     		ldr	r2, .L227
 4198              	.LVL562:
 4199              		.loc 1 502 3 view .LVU790
 4200 000e 0949     		ldr	r1, .L227+4
 4201              	.LVL563:
 4202              		.loc 1 502 3 view .LVU791
 4203 0010 FFF7FEFF 		bl	u8x8_Setup
 4204              	.LVL564:
 503:Core/Src/u8g2/Src/u8g2_d_setup.c ****   buf = u8g2_m_9_5_f(&tile_buf_height);
 4205              		.loc 1 503 3 is_stmt 1 view .LVU792
 4206              		.loc 1 503 9 is_stmt 0 view .LVU793
 4207 0014 0DF10F00 		add	r0, sp, #15
 4208 0018 FFF7FEFF 		bl	u8g2_m_9_5_f
 4209              	.LVL565:
 4210 001c 0146     		mov	r1, r0
 4211              	.LVL566:
 504:Core/Src/u8g2/Src/u8g2_d_setup.c ****   u8g2_SetupBuffer(u8g2, buf, tile_buf_height, u8g2_ll_hvline_vertical_top_lsb, rotation);
 4212              		.loc 1 504 3 is_stmt 1 view .LVU794
 4213 001e 0095     		str	r5, [sp]
 4214 0020 054B     		ldr	r3, .L227+8
 4215 0022 9DF80F20 		ldrb	r2, [sp, #15]	@ zero_extendqisi2
 4216 0026 2046     		mov	r0, r4
 4217              	.LVL567:
 4218              		.loc 1 504 3 is_stmt 0 view .LVU795
 4219 0028 FFF7FEFF 		bl	u8g2_SetupBuffer
 4220              	.LVL568:
 505:Core/Src/u8g2/Src/u8g2_d_setup.c **** }
 4221              		.loc 1 505 1 view .LVU796
 4222 002c 05B0     		add	sp, sp, #20
 4223              	.LCFI170:
 4224              		.cfi_def_cfa_offset 12
 4225              		@ sp needed
ARM GAS  C:\Users\MOROSH~1\AppData\Local\Temp\ccO8NVXv.s 			page 82


 4226 002e 30BD     		pop	{r4, r5, pc}
 4227              	.LVL569:
 4228              	.L228:
 4229              		.loc 1 505 1 view .LVU797
 4230              		.align	2
 4231              	.L227:
 4232 0030 00000000 		.word	u8x8_cad_ssd13xx_fast_i2c
 4233 0034 00000000 		.word	u8x8_d_ssd1306_72x40_er
 4234 0038 00000000 		.word	u8g2_ll_hvline_vertical_top_lsb
 4235              		.cfi_endproc
 4236              	.LFE56:
 4238              		.section	.text.u8g2_Setup_ssd1306_96x40_1,"ax",%progbits
 4239              		.align	1
 4240              		.global	u8g2_Setup_ssd1306_96x40_1
 4241              		.syntax unified
 4242              		.thumb
 4243              		.thumb_func
 4245              	u8g2_Setup_ssd1306_96x40_1:
 4246              	.LVL570:
 4247              	.LFB57:
 506:Core/Src/u8g2/Src/u8g2_d_setup.c **** /* ssd1306 */
 507:Core/Src/u8g2/Src/u8g2_d_setup.c **** /* ssd1306 1 */
 508:Core/Src/u8g2/Src/u8g2_d_setup.c **** void u8g2_Setup_ssd1306_96x40_1(u8g2_t *u8g2, const u8g2_cb_t *rotation, u8x8_msg_cb byte_cb, u8x8_
 509:Core/Src/u8g2/Src/u8g2_d_setup.c **** {
 4248              		.loc 1 509 1 is_stmt 1 view -0
 4249              		.cfi_startproc
 4250              		@ args = 0, pretend = 0, frame = 8
 4251              		@ frame_needed = 0, uses_anonymous_args = 0
 4252              		.loc 1 509 1 is_stmt 0 view .LVU799
 4253 0000 30B5     		push	{r4, r5, lr}
 4254              	.LCFI171:
 4255              		.cfi_def_cfa_offset 12
 4256              		.cfi_offset 4, -12
 4257              		.cfi_offset 5, -8
 4258              		.cfi_offset 14, -4
 4259 0002 85B0     		sub	sp, sp, #20
 4260              	.LCFI172:
 4261              		.cfi_def_cfa_offset 32
 4262 0004 0446     		mov	r4, r0
 4263 0006 0D46     		mov	r5, r1
 510:Core/Src/u8g2/Src/u8g2_d_setup.c ****   uint8_t tile_buf_height;
 4264              		.loc 1 510 3 is_stmt 1 view .LVU800
 511:Core/Src/u8g2/Src/u8g2_d_setup.c ****   uint8_t *buf;
 4265              		.loc 1 511 3 view .LVU801
 512:Core/Src/u8g2/Src/u8g2_d_setup.c ****   u8g2_SetupDisplay(u8g2, u8x8_d_ssd1306_96x40, u8x8_cad_001, byte_cb, gpio_and_delay_cb);
 4266              		.loc 1 512 3 view .LVU802
 4267 0008 0093     		str	r3, [sp]
 4268 000a 1346     		mov	r3, r2
 4269              	.LVL571:
 4270              		.loc 1 512 3 is_stmt 0 view .LVU803
 4271 000c 084A     		ldr	r2, .L231
 4272              	.LVL572:
 4273              		.loc 1 512 3 view .LVU804
 4274 000e 0949     		ldr	r1, .L231+4
 4275              	.LVL573:
 4276              		.loc 1 512 3 view .LVU805
 4277 0010 FFF7FEFF 		bl	u8x8_Setup
ARM GAS  C:\Users\MOROSH~1\AppData\Local\Temp\ccO8NVXv.s 			page 83


 4278              	.LVL574:
 513:Core/Src/u8g2/Src/u8g2_d_setup.c ****   buf = u8g2_m_12_5_1(&tile_buf_height);
 4279              		.loc 1 513 3 is_stmt 1 view .LVU806
 4280              		.loc 1 513 9 is_stmt 0 view .LVU807
 4281 0014 0DF10F00 		add	r0, sp, #15
 4282 0018 FFF7FEFF 		bl	u8g2_m_12_5_1
 4283              	.LVL575:
 4284 001c 0146     		mov	r1, r0
 4285              	.LVL576:
 514:Core/Src/u8g2/Src/u8g2_d_setup.c ****   u8g2_SetupBuffer(u8g2, buf, tile_buf_height, u8g2_ll_hvline_vertical_top_lsb, rotation);
 4286              		.loc 1 514 3 is_stmt 1 view .LVU808
 4287 001e 0095     		str	r5, [sp]
 4288 0020 054B     		ldr	r3, .L231+8
 4289 0022 9DF80F20 		ldrb	r2, [sp, #15]	@ zero_extendqisi2
 4290 0026 2046     		mov	r0, r4
 4291              	.LVL577:
 4292              		.loc 1 514 3 is_stmt 0 view .LVU809
 4293 0028 FFF7FEFF 		bl	u8g2_SetupBuffer
 4294              	.LVL578:
 515:Core/Src/u8g2/Src/u8g2_d_setup.c **** }
 4295              		.loc 1 515 1 view .LVU810
 4296 002c 05B0     		add	sp, sp, #20
 4297              	.LCFI173:
 4298              		.cfi_def_cfa_offset 12
 4299              		@ sp needed
 4300 002e 30BD     		pop	{r4, r5, pc}
 4301              	.LVL579:
 4302              	.L232:
 4303              		.loc 1 515 1 view .LVU811
 4304              		.align	2
 4305              	.L231:
 4306 0030 00000000 		.word	u8x8_cad_001
 4307 0034 00000000 		.word	u8x8_d_ssd1306_96x40
 4308 0038 00000000 		.word	u8g2_ll_hvline_vertical_top_lsb
 4309              		.cfi_endproc
 4310              	.LFE57:
 4312              		.section	.text.u8g2_Setup_ssd1306_96x39_1,"ax",%progbits
 4313              		.align	1
 4314              		.global	u8g2_Setup_ssd1306_96x39_1
 4315              		.syntax unified
 4316              		.thumb
 4317              		.thumb_func
 4319              	u8g2_Setup_ssd1306_96x39_1:
 4320              	.LVL580:
 4321              	.LFB58:
 516:Core/Src/u8g2/Src/u8g2_d_setup.c **** void u8g2_Setup_ssd1306_96x39_1(u8g2_t *u8g2, const u8g2_cb_t *rotation, u8x8_msg_cb byte_cb, u8x8_
 517:Core/Src/u8g2/Src/u8g2_d_setup.c **** {
 4322              		.loc 1 517 1 is_stmt 1 view -0
 4323              		.cfi_startproc
 4324              		@ args = 0, pretend = 0, frame = 8
 4325              		@ frame_needed = 0, uses_anonymous_args = 0
 4326              		.loc 1 517 1 is_stmt 0 view .LVU813
 4327 0000 30B5     		push	{r4, r5, lr}
 4328              	.LCFI174:
 4329              		.cfi_def_cfa_offset 12
 4330              		.cfi_offset 4, -12
 4331              		.cfi_offset 5, -8
ARM GAS  C:\Users\MOROSH~1\AppData\Local\Temp\ccO8NVXv.s 			page 84


 4332              		.cfi_offset 14, -4
 4333 0002 85B0     		sub	sp, sp, #20
 4334              	.LCFI175:
 4335              		.cfi_def_cfa_offset 32
 4336 0004 0446     		mov	r4, r0
 4337 0006 0D46     		mov	r5, r1
 518:Core/Src/u8g2/Src/u8g2_d_setup.c ****   uint8_t tile_buf_height;
 4338              		.loc 1 518 3 is_stmt 1 view .LVU814
 519:Core/Src/u8g2/Src/u8g2_d_setup.c ****   uint8_t *buf;
 4339              		.loc 1 519 3 view .LVU815
 520:Core/Src/u8g2/Src/u8g2_d_setup.c ****   u8g2_SetupDisplay(u8g2, u8x8_d_ssd1306_96x39, u8x8_cad_001, byte_cb, gpio_and_delay_cb);
 4340              		.loc 1 520 3 view .LVU816
 4341 0008 0093     		str	r3, [sp]
 4342 000a 1346     		mov	r3, r2
 4343              	.LVL581:
 4344              		.loc 1 520 3 is_stmt 0 view .LVU817
 4345 000c 084A     		ldr	r2, .L235
 4346              	.LVL582:
 4347              		.loc 1 520 3 view .LVU818
 4348 000e 0949     		ldr	r1, .L235+4
 4349              	.LVL583:
 4350              		.loc 1 520 3 view .LVU819
 4351 0010 FFF7FEFF 		bl	u8x8_Setup
 4352              	.LVL584:
 521:Core/Src/u8g2/Src/u8g2_d_setup.c ****   buf = u8g2_m_12_5_1(&tile_buf_height);
 4353              		.loc 1 521 3 is_stmt 1 view .LVU820
 4354              		.loc 1 521 9 is_stmt 0 view .LVU821
 4355 0014 0DF10F00 		add	r0, sp, #15
 4356 0018 FFF7FEFF 		bl	u8g2_m_12_5_1
 4357              	.LVL585:
 4358 001c 0146     		mov	r1, r0
 4359              	.LVL586:
 522:Core/Src/u8g2/Src/u8g2_d_setup.c ****   u8g2_SetupBuffer(u8g2, buf, tile_buf_height, u8g2_ll_hvline_vertical_top_lsb, rotation);
 4360              		.loc 1 522 3 is_stmt 1 view .LVU822
 4361 001e 0095     		str	r5, [sp]
 4362 0020 054B     		ldr	r3, .L235+8
 4363 0022 9DF80F20 		ldrb	r2, [sp, #15]	@ zero_extendqisi2
 4364 0026 2046     		mov	r0, r4
 4365              	.LVL587:
 4366              		.loc 1 522 3 is_stmt 0 view .LVU823
 4367 0028 FFF7FEFF 		bl	u8g2_SetupBuffer
 4368              	.LVL588:
 523:Core/Src/u8g2/Src/u8g2_d_setup.c **** }
 4369              		.loc 1 523 1 view .LVU824
 4370 002c 05B0     		add	sp, sp, #20
 4371              	.LCFI176:
 4372              		.cfi_def_cfa_offset 12
 4373              		@ sp needed
 4374 002e 30BD     		pop	{r4, r5, pc}
 4375              	.LVL589:
 4376              	.L236:
 4377              		.loc 1 523 1 view .LVU825
 4378              		.align	2
 4379              	.L235:
 4380 0030 00000000 		.word	u8x8_cad_001
 4381 0034 00000000 		.word	u8x8_d_ssd1306_96x39
 4382 0038 00000000 		.word	u8g2_ll_hvline_vertical_top_lsb
ARM GAS  C:\Users\MOROSH~1\AppData\Local\Temp\ccO8NVXv.s 			page 85


 4383              		.cfi_endproc
 4384              	.LFE58:
 4386              		.section	.text.u8g2_Setup_ssd1306_96x40_2,"ax",%progbits
 4387              		.align	1
 4388              		.global	u8g2_Setup_ssd1306_96x40_2
 4389              		.syntax unified
 4390              		.thumb
 4391              		.thumb_func
 4393              	u8g2_Setup_ssd1306_96x40_2:
 4394              	.LVL590:
 4395              	.LFB59:
 524:Core/Src/u8g2/Src/u8g2_d_setup.c **** /* ssd1306 2 */
 525:Core/Src/u8g2/Src/u8g2_d_setup.c **** void u8g2_Setup_ssd1306_96x40_2(u8g2_t *u8g2, const u8g2_cb_t *rotation, u8x8_msg_cb byte_cb, u8x8_
 526:Core/Src/u8g2/Src/u8g2_d_setup.c **** {
 4396              		.loc 1 526 1 is_stmt 1 view -0
 4397              		.cfi_startproc
 4398              		@ args = 0, pretend = 0, frame = 8
 4399              		@ frame_needed = 0, uses_anonymous_args = 0
 4400              		.loc 1 526 1 is_stmt 0 view .LVU827
 4401 0000 30B5     		push	{r4, r5, lr}
 4402              	.LCFI177:
 4403              		.cfi_def_cfa_offset 12
 4404              		.cfi_offset 4, -12
 4405              		.cfi_offset 5, -8
 4406              		.cfi_offset 14, -4
 4407 0002 85B0     		sub	sp, sp, #20
 4408              	.LCFI178:
 4409              		.cfi_def_cfa_offset 32
 4410 0004 0446     		mov	r4, r0
 4411 0006 0D46     		mov	r5, r1
 527:Core/Src/u8g2/Src/u8g2_d_setup.c ****   uint8_t tile_buf_height;
 4412              		.loc 1 527 3 is_stmt 1 view .LVU828
 528:Core/Src/u8g2/Src/u8g2_d_setup.c ****   uint8_t *buf;
 4413              		.loc 1 528 3 view .LVU829
 529:Core/Src/u8g2/Src/u8g2_d_setup.c ****   u8g2_SetupDisplay(u8g2, u8x8_d_ssd1306_96x40, u8x8_cad_001, byte_cb, gpio_and_delay_cb);
 4414              		.loc 1 529 3 view .LVU830
 4415 0008 0093     		str	r3, [sp]
 4416 000a 1346     		mov	r3, r2
 4417              	.LVL591:
 4418              		.loc 1 529 3 is_stmt 0 view .LVU831
 4419 000c 084A     		ldr	r2, .L239
 4420              	.LVL592:
 4421              		.loc 1 529 3 view .LVU832
 4422 000e 0949     		ldr	r1, .L239+4
 4423              	.LVL593:
 4424              		.loc 1 529 3 view .LVU833
 4425 0010 FFF7FEFF 		bl	u8x8_Setup
 4426              	.LVL594:
 530:Core/Src/u8g2/Src/u8g2_d_setup.c ****   buf = u8g2_m_12_5_2(&tile_buf_height);
 4427              		.loc 1 530 3 is_stmt 1 view .LVU834
 4428              		.loc 1 530 9 is_stmt 0 view .LVU835
 4429 0014 0DF10F00 		add	r0, sp, #15
 4430 0018 FFF7FEFF 		bl	u8g2_m_12_5_2
 4431              	.LVL595:
 4432 001c 0146     		mov	r1, r0
 4433              	.LVL596:
 531:Core/Src/u8g2/Src/u8g2_d_setup.c ****   u8g2_SetupBuffer(u8g2, buf, tile_buf_height, u8g2_ll_hvline_vertical_top_lsb, rotation);
ARM GAS  C:\Users\MOROSH~1\AppData\Local\Temp\ccO8NVXv.s 			page 86


 4434              		.loc 1 531 3 is_stmt 1 view .LVU836
 4435 001e 0095     		str	r5, [sp]
 4436 0020 054B     		ldr	r3, .L239+8
 4437 0022 9DF80F20 		ldrb	r2, [sp, #15]	@ zero_extendqisi2
 4438 0026 2046     		mov	r0, r4
 4439              	.LVL597:
 4440              		.loc 1 531 3 is_stmt 0 view .LVU837
 4441 0028 FFF7FEFF 		bl	u8g2_SetupBuffer
 4442              	.LVL598:
 532:Core/Src/u8g2/Src/u8g2_d_setup.c **** }
 4443              		.loc 1 532 1 view .LVU838
 4444 002c 05B0     		add	sp, sp, #20
 4445              	.LCFI179:
 4446              		.cfi_def_cfa_offset 12
 4447              		@ sp needed
 4448 002e 30BD     		pop	{r4, r5, pc}
 4449              	.LVL599:
 4450              	.L240:
 4451              		.loc 1 532 1 view .LVU839
 4452              		.align	2
 4453              	.L239:
 4454 0030 00000000 		.word	u8x8_cad_001
 4455 0034 00000000 		.word	u8x8_d_ssd1306_96x40
 4456 0038 00000000 		.word	u8g2_ll_hvline_vertical_top_lsb
 4457              		.cfi_endproc
 4458              	.LFE59:
 4460              		.section	.text.u8g2_Setup_ssd1306_96x39_2,"ax",%progbits
 4461              		.align	1
 4462              		.global	u8g2_Setup_ssd1306_96x39_2
 4463              		.syntax unified
 4464              		.thumb
 4465              		.thumb_func
 4467              	u8g2_Setup_ssd1306_96x39_2:
 4468              	.LVL600:
 4469              	.LFB60:
 533:Core/Src/u8g2/Src/u8g2_d_setup.c **** void u8g2_Setup_ssd1306_96x39_2(u8g2_t *u8g2, const u8g2_cb_t *rotation, u8x8_msg_cb byte_cb, u8x8_
 534:Core/Src/u8g2/Src/u8g2_d_setup.c **** {
 4470              		.loc 1 534 1 is_stmt 1 view -0
 4471              		.cfi_startproc
 4472              		@ args = 0, pretend = 0, frame = 8
 4473              		@ frame_needed = 0, uses_anonymous_args = 0
 4474              		.loc 1 534 1 is_stmt 0 view .LVU841
 4475 0000 30B5     		push	{r4, r5, lr}
 4476              	.LCFI180:
 4477              		.cfi_def_cfa_offset 12
 4478              		.cfi_offset 4, -12
 4479              		.cfi_offset 5, -8
 4480              		.cfi_offset 14, -4
 4481 0002 85B0     		sub	sp, sp, #20
 4482              	.LCFI181:
 4483              		.cfi_def_cfa_offset 32
 4484 0004 0446     		mov	r4, r0
 4485 0006 0D46     		mov	r5, r1
 535:Core/Src/u8g2/Src/u8g2_d_setup.c ****   uint8_t tile_buf_height;
 4486              		.loc 1 535 3 is_stmt 1 view .LVU842
 536:Core/Src/u8g2/Src/u8g2_d_setup.c ****   uint8_t *buf;
 4487              		.loc 1 536 3 view .LVU843
ARM GAS  C:\Users\MOROSH~1\AppData\Local\Temp\ccO8NVXv.s 			page 87


 537:Core/Src/u8g2/Src/u8g2_d_setup.c ****   u8g2_SetupDisplay(u8g2, u8x8_d_ssd1306_96x39, u8x8_cad_001, byte_cb, gpio_and_delay_cb);
 4488              		.loc 1 537 3 view .LVU844
 4489 0008 0093     		str	r3, [sp]
 4490 000a 1346     		mov	r3, r2
 4491              	.LVL601:
 4492              		.loc 1 537 3 is_stmt 0 view .LVU845
 4493 000c 084A     		ldr	r2, .L243
 4494              	.LVL602:
 4495              		.loc 1 537 3 view .LVU846
 4496 000e 0949     		ldr	r1, .L243+4
 4497              	.LVL603:
 4498              		.loc 1 537 3 view .LVU847
 4499 0010 FFF7FEFF 		bl	u8x8_Setup
 4500              	.LVL604:
 538:Core/Src/u8g2/Src/u8g2_d_setup.c ****   buf = u8g2_m_12_5_2(&tile_buf_height);
 4501              		.loc 1 538 3 is_stmt 1 view .LVU848
 4502              		.loc 1 538 9 is_stmt 0 view .LVU849
 4503 0014 0DF10F00 		add	r0, sp, #15
 4504 0018 FFF7FEFF 		bl	u8g2_m_12_5_2
 4505              	.LVL605:
 4506 001c 0146     		mov	r1, r0
 4507              	.LVL606:
 539:Core/Src/u8g2/Src/u8g2_d_setup.c ****   u8g2_SetupBuffer(u8g2, buf, tile_buf_height, u8g2_ll_hvline_vertical_top_lsb, rotation);
 4508              		.loc 1 539 3 is_stmt 1 view .LVU850
 4509 001e 0095     		str	r5, [sp]
 4510 0020 054B     		ldr	r3, .L243+8
 4511 0022 9DF80F20 		ldrb	r2, [sp, #15]	@ zero_extendqisi2
 4512 0026 2046     		mov	r0, r4
 4513              	.LVL607:
 4514              		.loc 1 539 3 is_stmt 0 view .LVU851
 4515 0028 FFF7FEFF 		bl	u8g2_SetupBuffer
 4516              	.LVL608:
 540:Core/Src/u8g2/Src/u8g2_d_setup.c **** }
 4517              		.loc 1 540 1 view .LVU852
 4518 002c 05B0     		add	sp, sp, #20
 4519              	.LCFI182:
 4520              		.cfi_def_cfa_offset 12
 4521              		@ sp needed
 4522 002e 30BD     		pop	{r4, r5, pc}
 4523              	.LVL609:
 4524              	.L244:
 4525              		.loc 1 540 1 view .LVU853
 4526              		.align	2
 4527              	.L243:
 4528 0030 00000000 		.word	u8x8_cad_001
 4529 0034 00000000 		.word	u8x8_d_ssd1306_96x39
 4530 0038 00000000 		.word	u8g2_ll_hvline_vertical_top_lsb
 4531              		.cfi_endproc
 4532              	.LFE60:
 4534              		.section	.text.u8g2_Setup_ssd1306_96x40_f,"ax",%progbits
 4535              		.align	1
 4536              		.global	u8g2_Setup_ssd1306_96x40_f
 4537              		.syntax unified
 4538              		.thumb
 4539              		.thumb_func
 4541              	u8g2_Setup_ssd1306_96x40_f:
 4542              	.LVL610:
ARM GAS  C:\Users\MOROSH~1\AppData\Local\Temp\ccO8NVXv.s 			page 88


 4543              	.LFB61:
 541:Core/Src/u8g2/Src/u8g2_d_setup.c **** /* ssd1306 f */
 542:Core/Src/u8g2/Src/u8g2_d_setup.c **** void u8g2_Setup_ssd1306_96x40_f(u8g2_t *u8g2, const u8g2_cb_t *rotation, u8x8_msg_cb byte_cb, u8x8_
 543:Core/Src/u8g2/Src/u8g2_d_setup.c **** {
 4544              		.loc 1 543 1 is_stmt 1 view -0
 4545              		.cfi_startproc
 4546              		@ args = 0, pretend = 0, frame = 8
 4547              		@ frame_needed = 0, uses_anonymous_args = 0
 4548              		.loc 1 543 1 is_stmt 0 view .LVU855
 4549 0000 30B5     		push	{r4, r5, lr}
 4550              	.LCFI183:
 4551              		.cfi_def_cfa_offset 12
 4552              		.cfi_offset 4, -12
 4553              		.cfi_offset 5, -8
 4554              		.cfi_offset 14, -4
 4555 0002 85B0     		sub	sp, sp, #20
 4556              	.LCFI184:
 4557              		.cfi_def_cfa_offset 32
 4558 0004 0446     		mov	r4, r0
 4559 0006 0D46     		mov	r5, r1
 544:Core/Src/u8g2/Src/u8g2_d_setup.c ****   uint8_t tile_buf_height;
 4560              		.loc 1 544 3 is_stmt 1 view .LVU856
 545:Core/Src/u8g2/Src/u8g2_d_setup.c ****   uint8_t *buf;
 4561              		.loc 1 545 3 view .LVU857
 546:Core/Src/u8g2/Src/u8g2_d_setup.c ****   u8g2_SetupDisplay(u8g2, u8x8_d_ssd1306_96x40, u8x8_cad_001, byte_cb, gpio_and_delay_cb);
 4562              		.loc 1 546 3 view .LVU858
 4563 0008 0093     		str	r3, [sp]
 4564 000a 1346     		mov	r3, r2
 4565              	.LVL611:
 4566              		.loc 1 546 3 is_stmt 0 view .LVU859
 4567 000c 084A     		ldr	r2, .L247
 4568              	.LVL612:
 4569              		.loc 1 546 3 view .LVU860
 4570 000e 0949     		ldr	r1, .L247+4
 4571              	.LVL613:
 4572              		.loc 1 546 3 view .LVU861
 4573 0010 FFF7FEFF 		bl	u8x8_Setup
 4574              	.LVL614:
 547:Core/Src/u8g2/Src/u8g2_d_setup.c ****   buf = u8g2_m_12_5_f(&tile_buf_height);
 4575              		.loc 1 547 3 is_stmt 1 view .LVU862
 4576              		.loc 1 547 9 is_stmt 0 view .LVU863
 4577 0014 0DF10F00 		add	r0, sp, #15
 4578 0018 FFF7FEFF 		bl	u8g2_m_12_5_f
 4579              	.LVL615:
 4580 001c 0146     		mov	r1, r0
 4581              	.LVL616:
 548:Core/Src/u8g2/Src/u8g2_d_setup.c ****   u8g2_SetupBuffer(u8g2, buf, tile_buf_height, u8g2_ll_hvline_vertical_top_lsb, rotation);
 4582              		.loc 1 548 3 is_stmt 1 view .LVU864
 4583 001e 0095     		str	r5, [sp]
 4584 0020 054B     		ldr	r3, .L247+8
 4585 0022 9DF80F20 		ldrb	r2, [sp, #15]	@ zero_extendqisi2
 4586 0026 2046     		mov	r0, r4
 4587              	.LVL617:
 4588              		.loc 1 548 3 is_stmt 0 view .LVU865
 4589 0028 FFF7FEFF 		bl	u8g2_SetupBuffer
 4590              	.LVL618:
 549:Core/Src/u8g2/Src/u8g2_d_setup.c **** }
ARM GAS  C:\Users\MOROSH~1\AppData\Local\Temp\ccO8NVXv.s 			page 89


 4591              		.loc 1 549 1 view .LVU866
 4592 002c 05B0     		add	sp, sp, #20
 4593              	.LCFI185:
 4594              		.cfi_def_cfa_offset 12
 4595              		@ sp needed
 4596 002e 30BD     		pop	{r4, r5, pc}
 4597              	.LVL619:
 4598              	.L248:
 4599              		.loc 1 549 1 view .LVU867
 4600              		.align	2
 4601              	.L247:
 4602 0030 00000000 		.word	u8x8_cad_001
 4603 0034 00000000 		.word	u8x8_d_ssd1306_96x40
 4604 0038 00000000 		.word	u8g2_ll_hvline_vertical_top_lsb
 4605              		.cfi_endproc
 4606              	.LFE61:
 4608              		.section	.text.u8g2_Setup_ssd1306_96x39_f,"ax",%progbits
 4609              		.align	1
 4610              		.global	u8g2_Setup_ssd1306_96x39_f
 4611              		.syntax unified
 4612              		.thumb
 4613              		.thumb_func
 4615              	u8g2_Setup_ssd1306_96x39_f:
 4616              	.LVL620:
 4617              	.LFB62:
 550:Core/Src/u8g2/Src/u8g2_d_setup.c **** void u8g2_Setup_ssd1306_96x39_f(u8g2_t *u8g2, const u8g2_cb_t *rotation, u8x8_msg_cb byte_cb, u8x8_
 551:Core/Src/u8g2/Src/u8g2_d_setup.c **** {
 4618              		.loc 1 551 1 is_stmt 1 view -0
 4619              		.cfi_startproc
 4620              		@ args = 0, pretend = 0, frame = 8
 4621              		@ frame_needed = 0, uses_anonymous_args = 0
 4622              		.loc 1 551 1 is_stmt 0 view .LVU869
 4623 0000 30B5     		push	{r4, r5, lr}
 4624              	.LCFI186:
 4625              		.cfi_def_cfa_offset 12
 4626              		.cfi_offset 4, -12
 4627              		.cfi_offset 5, -8
 4628              		.cfi_offset 14, -4
 4629 0002 85B0     		sub	sp, sp, #20
 4630              	.LCFI187:
 4631              		.cfi_def_cfa_offset 32
 4632 0004 0446     		mov	r4, r0
 4633 0006 0D46     		mov	r5, r1
 552:Core/Src/u8g2/Src/u8g2_d_setup.c ****   uint8_t tile_buf_height;
 4634              		.loc 1 552 3 is_stmt 1 view .LVU870
 553:Core/Src/u8g2/Src/u8g2_d_setup.c ****   uint8_t *buf;
 4635              		.loc 1 553 3 view .LVU871
 554:Core/Src/u8g2/Src/u8g2_d_setup.c ****   u8g2_SetupDisplay(u8g2, u8x8_d_ssd1306_96x39, u8x8_cad_001, byte_cb, gpio_and_delay_cb);
 4636              		.loc 1 554 3 view .LVU872
 4637 0008 0093     		str	r3, [sp]
 4638 000a 1346     		mov	r3, r2
 4639              	.LVL621:
 4640              		.loc 1 554 3 is_stmt 0 view .LVU873
 4641 000c 084A     		ldr	r2, .L251
 4642              	.LVL622:
 4643              		.loc 1 554 3 view .LVU874
 4644 000e 0949     		ldr	r1, .L251+4
ARM GAS  C:\Users\MOROSH~1\AppData\Local\Temp\ccO8NVXv.s 			page 90


 4645              	.LVL623:
 4646              		.loc 1 554 3 view .LVU875
 4647 0010 FFF7FEFF 		bl	u8x8_Setup
 4648              	.LVL624:
 555:Core/Src/u8g2/Src/u8g2_d_setup.c ****   buf = u8g2_m_12_5_f(&tile_buf_height);
 4649              		.loc 1 555 3 is_stmt 1 view .LVU876
 4650              		.loc 1 555 9 is_stmt 0 view .LVU877
 4651 0014 0DF10F00 		add	r0, sp, #15
 4652 0018 FFF7FEFF 		bl	u8g2_m_12_5_f
 4653              	.LVL625:
 4654 001c 0146     		mov	r1, r0
 4655              	.LVL626:
 556:Core/Src/u8g2/Src/u8g2_d_setup.c ****   u8g2_SetupBuffer(u8g2, buf, tile_buf_height, u8g2_ll_hvline_vertical_top_lsb, rotation);
 4656              		.loc 1 556 3 is_stmt 1 view .LVU878
 4657 001e 0095     		str	r5, [sp]
 4658 0020 054B     		ldr	r3, .L251+8
 4659 0022 9DF80F20 		ldrb	r2, [sp, #15]	@ zero_extendqisi2
 4660 0026 2046     		mov	r0, r4
 4661              	.LVL627:
 4662              		.loc 1 556 3 is_stmt 0 view .LVU879
 4663 0028 FFF7FEFF 		bl	u8g2_SetupBuffer
 4664              	.LVL628:
 557:Core/Src/u8g2/Src/u8g2_d_setup.c **** }
 4665              		.loc 1 557 1 view .LVU880
 4666 002c 05B0     		add	sp, sp, #20
 4667              	.LCFI188:
 4668              		.cfi_def_cfa_offset 12
 4669              		@ sp needed
 4670 002e 30BD     		pop	{r4, r5, pc}
 4671              	.LVL629:
 4672              	.L252:
 4673              		.loc 1 557 1 view .LVU881
 4674              		.align	2
 4675              	.L251:
 4676 0030 00000000 		.word	u8x8_cad_001
 4677 0034 00000000 		.word	u8x8_d_ssd1306_96x39
 4678 0038 00000000 		.word	u8g2_ll_hvline_vertical_top_lsb
 4679              		.cfi_endproc
 4680              	.LFE62:
 4682              		.section	.text.u8g2_Setup_ssd1306_i2c_96x40_1,"ax",%progbits
 4683              		.align	1
 4684              		.global	u8g2_Setup_ssd1306_i2c_96x40_1
 4685              		.syntax unified
 4686              		.thumb
 4687              		.thumb_func
 4689              	u8g2_Setup_ssd1306_i2c_96x40_1:
 4690              	.LVL630:
 4691              	.LFB63:
 558:Core/Src/u8g2/Src/u8g2_d_setup.c **** /* ssd1306 */
 559:Core/Src/u8g2/Src/u8g2_d_setup.c **** /* ssd1306 1 */
 560:Core/Src/u8g2/Src/u8g2_d_setup.c **** void u8g2_Setup_ssd1306_i2c_96x40_1(u8g2_t *u8g2, const u8g2_cb_t *rotation, u8x8_msg_cb byte_cb, u
 561:Core/Src/u8g2/Src/u8g2_d_setup.c **** {
 4692              		.loc 1 561 1 is_stmt 1 view -0
 4693              		.cfi_startproc
 4694              		@ args = 0, pretend = 0, frame = 8
 4695              		@ frame_needed = 0, uses_anonymous_args = 0
 4696              		.loc 1 561 1 is_stmt 0 view .LVU883
ARM GAS  C:\Users\MOROSH~1\AppData\Local\Temp\ccO8NVXv.s 			page 91


 4697 0000 30B5     		push	{r4, r5, lr}
 4698              	.LCFI189:
 4699              		.cfi_def_cfa_offset 12
 4700              		.cfi_offset 4, -12
 4701              		.cfi_offset 5, -8
 4702              		.cfi_offset 14, -4
 4703 0002 85B0     		sub	sp, sp, #20
 4704              	.LCFI190:
 4705              		.cfi_def_cfa_offset 32
 4706 0004 0446     		mov	r4, r0
 4707 0006 0D46     		mov	r5, r1
 562:Core/Src/u8g2/Src/u8g2_d_setup.c ****   uint8_t tile_buf_height;
 4708              		.loc 1 562 3 is_stmt 1 view .LVU884
 563:Core/Src/u8g2/Src/u8g2_d_setup.c ****   uint8_t *buf;
 4709              		.loc 1 563 3 view .LVU885
 564:Core/Src/u8g2/Src/u8g2_d_setup.c ****   u8g2_SetupDisplay(u8g2, u8x8_d_ssd1306_96x40, u8x8_cad_ssd13xx_fast_i2c, byte_cb, gpio_and_delay_
 4710              		.loc 1 564 3 view .LVU886
 4711 0008 0093     		str	r3, [sp]
 4712 000a 1346     		mov	r3, r2
 4713              	.LVL631:
 4714              		.loc 1 564 3 is_stmt 0 view .LVU887
 4715 000c 084A     		ldr	r2, .L255
 4716              	.LVL632:
 4717              		.loc 1 564 3 view .LVU888
 4718 000e 0949     		ldr	r1, .L255+4
 4719              	.LVL633:
 4720              		.loc 1 564 3 view .LVU889
 4721 0010 FFF7FEFF 		bl	u8x8_Setup
 4722              	.LVL634:
 565:Core/Src/u8g2/Src/u8g2_d_setup.c ****   buf = u8g2_m_12_5_1(&tile_buf_height);
 4723              		.loc 1 565 3 is_stmt 1 view .LVU890
 4724              		.loc 1 565 9 is_stmt 0 view .LVU891
 4725 0014 0DF10F00 		add	r0, sp, #15
 4726 0018 FFF7FEFF 		bl	u8g2_m_12_5_1
 4727              	.LVL635:
 4728 001c 0146     		mov	r1, r0
 4729              	.LVL636:
 566:Core/Src/u8g2/Src/u8g2_d_setup.c ****   u8g2_SetupBuffer(u8g2, buf, tile_buf_height, u8g2_ll_hvline_vertical_top_lsb, rotation);
 4730              		.loc 1 566 3 is_stmt 1 view .LVU892
 4731 001e 0095     		str	r5, [sp]
 4732 0020 054B     		ldr	r3, .L255+8
 4733 0022 9DF80F20 		ldrb	r2, [sp, #15]	@ zero_extendqisi2
 4734 0026 2046     		mov	r0, r4
 4735              	.LVL637:
 4736              		.loc 1 566 3 is_stmt 0 view .LVU893
 4737 0028 FFF7FEFF 		bl	u8g2_SetupBuffer
 4738              	.LVL638:
 567:Core/Src/u8g2/Src/u8g2_d_setup.c **** }
 4739              		.loc 1 567 1 view .LVU894
 4740 002c 05B0     		add	sp, sp, #20
 4741              	.LCFI191:
 4742              		.cfi_def_cfa_offset 12
 4743              		@ sp needed
 4744 002e 30BD     		pop	{r4, r5, pc}
 4745              	.LVL639:
 4746              	.L256:
 4747              		.loc 1 567 1 view .LVU895
ARM GAS  C:\Users\MOROSH~1\AppData\Local\Temp\ccO8NVXv.s 			page 92


 4748              		.align	2
 4749              	.L255:
 4750 0030 00000000 		.word	u8x8_cad_ssd13xx_fast_i2c
 4751 0034 00000000 		.word	u8x8_d_ssd1306_96x40
 4752 0038 00000000 		.word	u8g2_ll_hvline_vertical_top_lsb
 4753              		.cfi_endproc
 4754              	.LFE63:
 4756              		.section	.text.u8g2_Setup_ssd1306_i2c_96x39_1,"ax",%progbits
 4757              		.align	1
 4758              		.global	u8g2_Setup_ssd1306_i2c_96x39_1
 4759              		.syntax unified
 4760              		.thumb
 4761              		.thumb_func
 4763              	u8g2_Setup_ssd1306_i2c_96x39_1:
 4764              	.LVL640:
 4765              	.LFB64:
 568:Core/Src/u8g2/Src/u8g2_d_setup.c **** void u8g2_Setup_ssd1306_i2c_96x39_1(u8g2_t *u8g2, const u8g2_cb_t *rotation, u8x8_msg_cb byte_cb, u
 569:Core/Src/u8g2/Src/u8g2_d_setup.c **** {
 4766              		.loc 1 569 1 is_stmt 1 view -0
 4767              		.cfi_startproc
 4768              		@ args = 0, pretend = 0, frame = 8
 4769              		@ frame_needed = 0, uses_anonymous_args = 0
 4770              		.loc 1 569 1 is_stmt 0 view .LVU897
 4771 0000 30B5     		push	{r4, r5, lr}
 4772              	.LCFI192:
 4773              		.cfi_def_cfa_offset 12
 4774              		.cfi_offset 4, -12
 4775              		.cfi_offset 5, -8
 4776              		.cfi_offset 14, -4
 4777 0002 85B0     		sub	sp, sp, #20
 4778              	.LCFI193:
 4779              		.cfi_def_cfa_offset 32
 4780 0004 0446     		mov	r4, r0
 4781 0006 0D46     		mov	r5, r1
 570:Core/Src/u8g2/Src/u8g2_d_setup.c ****   uint8_t tile_buf_height;
 4782              		.loc 1 570 3 is_stmt 1 view .LVU898
 571:Core/Src/u8g2/Src/u8g2_d_setup.c ****   uint8_t *buf;
 4783              		.loc 1 571 3 view .LVU899
 572:Core/Src/u8g2/Src/u8g2_d_setup.c ****   u8g2_SetupDisplay(u8g2, u8x8_d_ssd1306_96x39, u8x8_cad_ssd13xx_fast_i2c, byte_cb, gpio_and_delay_
 4784              		.loc 1 572 3 view .LVU900
 4785 0008 0093     		str	r3, [sp]
 4786 000a 1346     		mov	r3, r2
 4787              	.LVL641:
 4788              		.loc 1 572 3 is_stmt 0 view .LVU901
 4789 000c 084A     		ldr	r2, .L259
 4790              	.LVL642:
 4791              		.loc 1 572 3 view .LVU902
 4792 000e 0949     		ldr	r1, .L259+4
 4793              	.LVL643:
 4794              		.loc 1 572 3 view .LVU903
 4795 0010 FFF7FEFF 		bl	u8x8_Setup
 4796              	.LVL644:
 573:Core/Src/u8g2/Src/u8g2_d_setup.c ****   buf = u8g2_m_12_5_1(&tile_buf_height);
 4797              		.loc 1 573 3 is_stmt 1 view .LVU904
 4798              		.loc 1 573 9 is_stmt 0 view .LVU905
 4799 0014 0DF10F00 		add	r0, sp, #15
 4800 0018 FFF7FEFF 		bl	u8g2_m_12_5_1
ARM GAS  C:\Users\MOROSH~1\AppData\Local\Temp\ccO8NVXv.s 			page 93


 4801              	.LVL645:
 4802 001c 0146     		mov	r1, r0
 4803              	.LVL646:
 574:Core/Src/u8g2/Src/u8g2_d_setup.c ****   u8g2_SetupBuffer(u8g2, buf, tile_buf_height, u8g2_ll_hvline_vertical_top_lsb, rotation);
 4804              		.loc 1 574 3 is_stmt 1 view .LVU906
 4805 001e 0095     		str	r5, [sp]
 4806 0020 054B     		ldr	r3, .L259+8
 4807 0022 9DF80F20 		ldrb	r2, [sp, #15]	@ zero_extendqisi2
 4808 0026 2046     		mov	r0, r4
 4809              	.LVL647:
 4810              		.loc 1 574 3 is_stmt 0 view .LVU907
 4811 0028 FFF7FEFF 		bl	u8g2_SetupBuffer
 4812              	.LVL648:
 575:Core/Src/u8g2/Src/u8g2_d_setup.c **** }
 4813              		.loc 1 575 1 view .LVU908
 4814 002c 05B0     		add	sp, sp, #20
 4815              	.LCFI194:
 4816              		.cfi_def_cfa_offset 12
 4817              		@ sp needed
 4818 002e 30BD     		pop	{r4, r5, pc}
 4819              	.LVL649:
 4820              	.L260:
 4821              		.loc 1 575 1 view .LVU909
 4822              		.align	2
 4823              	.L259:
 4824 0030 00000000 		.word	u8x8_cad_ssd13xx_fast_i2c
 4825 0034 00000000 		.word	u8x8_d_ssd1306_96x39
 4826 0038 00000000 		.word	u8g2_ll_hvline_vertical_top_lsb
 4827              		.cfi_endproc
 4828              	.LFE64:
 4830              		.section	.text.u8g2_Setup_ssd1306_i2c_96x40_2,"ax",%progbits
 4831              		.align	1
 4832              		.global	u8g2_Setup_ssd1306_i2c_96x40_2
 4833              		.syntax unified
 4834              		.thumb
 4835              		.thumb_func
 4837              	u8g2_Setup_ssd1306_i2c_96x40_2:
 4838              	.LVL650:
 4839              	.LFB65:
 576:Core/Src/u8g2/Src/u8g2_d_setup.c **** /* ssd1306 2 */
 577:Core/Src/u8g2/Src/u8g2_d_setup.c **** void u8g2_Setup_ssd1306_i2c_96x40_2(u8g2_t *u8g2, const u8g2_cb_t *rotation, u8x8_msg_cb byte_cb, u
 578:Core/Src/u8g2/Src/u8g2_d_setup.c **** {
 4840              		.loc 1 578 1 is_stmt 1 view -0
 4841              		.cfi_startproc
 4842              		@ args = 0, pretend = 0, frame = 8
 4843              		@ frame_needed = 0, uses_anonymous_args = 0
 4844              		.loc 1 578 1 is_stmt 0 view .LVU911
 4845 0000 30B5     		push	{r4, r5, lr}
 4846              	.LCFI195:
 4847              		.cfi_def_cfa_offset 12
 4848              		.cfi_offset 4, -12
 4849              		.cfi_offset 5, -8
 4850              		.cfi_offset 14, -4
 4851 0002 85B0     		sub	sp, sp, #20
 4852              	.LCFI196:
 4853              		.cfi_def_cfa_offset 32
 4854 0004 0446     		mov	r4, r0
ARM GAS  C:\Users\MOROSH~1\AppData\Local\Temp\ccO8NVXv.s 			page 94


 4855 0006 0D46     		mov	r5, r1
 579:Core/Src/u8g2/Src/u8g2_d_setup.c ****   uint8_t tile_buf_height;
 4856              		.loc 1 579 3 is_stmt 1 view .LVU912
 580:Core/Src/u8g2/Src/u8g2_d_setup.c ****   uint8_t *buf;
 4857              		.loc 1 580 3 view .LVU913
 581:Core/Src/u8g2/Src/u8g2_d_setup.c ****   u8g2_SetupDisplay(u8g2, u8x8_d_ssd1306_96x40, u8x8_cad_ssd13xx_fast_i2c, byte_cb, gpio_and_delay_
 4858              		.loc 1 581 3 view .LVU914
 4859 0008 0093     		str	r3, [sp]
 4860 000a 1346     		mov	r3, r2
 4861              	.LVL651:
 4862              		.loc 1 581 3 is_stmt 0 view .LVU915
 4863 000c 084A     		ldr	r2, .L263
 4864              	.LVL652:
 4865              		.loc 1 581 3 view .LVU916
 4866 000e 0949     		ldr	r1, .L263+4
 4867              	.LVL653:
 4868              		.loc 1 581 3 view .LVU917
 4869 0010 FFF7FEFF 		bl	u8x8_Setup
 4870              	.LVL654:
 582:Core/Src/u8g2/Src/u8g2_d_setup.c ****   buf = u8g2_m_12_5_2(&tile_buf_height);
 4871              		.loc 1 582 3 is_stmt 1 view .LVU918
 4872              		.loc 1 582 9 is_stmt 0 view .LVU919
 4873 0014 0DF10F00 		add	r0, sp, #15
 4874 0018 FFF7FEFF 		bl	u8g2_m_12_5_2
 4875              	.LVL655:
 4876 001c 0146     		mov	r1, r0
 4877              	.LVL656:
 583:Core/Src/u8g2/Src/u8g2_d_setup.c ****   u8g2_SetupBuffer(u8g2, buf, tile_buf_height, u8g2_ll_hvline_vertical_top_lsb, rotation);
 4878              		.loc 1 583 3 is_stmt 1 view .LVU920
 4879 001e 0095     		str	r5, [sp]
 4880 0020 054B     		ldr	r3, .L263+8
