ARM GAS  C:\Users\MOROSH~1\AppData\Local\Temp\cc5bU3TX.s 			page 1


   1              		.cpu cortex-m4
   2              		.arch armv7e-m
   3              		.fpu fpv4-sp-d16
   4              		.eabi_attribute 27, 1
   5              		.eabi_attribute 28, 1
   6              		.eabi_attribute 20, 1
   7              		.eabi_attribute 21, 1
   8              		.eabi_attribute 23, 3
   9              		.eabi_attribute 24, 1
  10              		.eabi_attribute 25, 1
  11              		.eabi_attribute 26, 1
  12              		.eabi_attribute 30, 1
  13              		.eabi_attribute 34, 1
  14              		.eabi_attribute 18, 4
  15              		.file	"u8x8_setup.c"
  16              		.text
  17              	.Ltext0:
  18              		.cfi_sections	.debug_frame
  19              		.section	.text.u8x8_dummy_cb,"ax",%progbits
  20              		.align	1
  21              		.global	u8x8_dummy_cb
  22              		.syntax unified
  23              		.thumb
  24              		.thumb_func
  26              	u8x8_dummy_cb:
  27              	.LVL0:
  28              	.LFB0:
  29              		.file 1 "Core/Src/u8g2/Src/u8x8_setup.c"
   1:Core/Src/u8g2/Src/u8x8_setup.c **** /*
   2:Core/Src/u8g2/Src/u8x8_setup.c **** 
   3:Core/Src/u8g2/Src/u8x8_setup.c ****   u8x8_setup.c
   4:Core/Src/u8g2/Src/u8x8_setup.c **** 
   5:Core/Src/u8g2/Src/u8x8_setup.c ****   Universal 8bit Graphics Library (https://github.com/olikraus/u8g2/)
   6:Core/Src/u8g2/Src/u8x8_setup.c **** 
   7:Core/Src/u8g2/Src/u8x8_setup.c ****   Copyright (c) 2016, olikraus@gmail.com
   8:Core/Src/u8g2/Src/u8x8_setup.c ****   All rights reserved.
   9:Core/Src/u8g2/Src/u8x8_setup.c **** 
  10:Core/Src/u8g2/Src/u8x8_setup.c ****   Redistribution and use in source and binary forms, with or without modification, 
  11:Core/Src/u8g2/Src/u8x8_setup.c ****   are permitted provided that the following conditions are met:
  12:Core/Src/u8g2/Src/u8x8_setup.c **** 
  13:Core/Src/u8g2/Src/u8x8_setup.c ****   * Redistributions of source code must retain the above copyright notice, this list 
  14:Core/Src/u8g2/Src/u8x8_setup.c ****     of conditions and the following disclaimer.
  15:Core/Src/u8g2/Src/u8x8_setup.c ****     
  16:Core/Src/u8g2/Src/u8x8_setup.c ****   * Redistributions in binary form must reproduce the above copyright notice, this 
  17:Core/Src/u8g2/Src/u8x8_setup.c ****     list of conditions and the following disclaimer in the documentation and/or other 
  18:Core/Src/u8g2/Src/u8x8_setup.c ****     materials provided with the distribution.
  19:Core/Src/u8g2/Src/u8x8_setup.c **** 
  20:Core/Src/u8g2/Src/u8x8_setup.c ****   THIS SOFTWARE IS PROVIDED BY THE COPYRIGHT HOLDERS AND 
  21:Core/Src/u8g2/Src/u8x8_setup.c ****   CONTRIBUTORS "AS IS" AND ANY EXPRESS OR IMPLIED WARRANTIES, 
  22:Core/Src/u8g2/Src/u8x8_setup.c ****   INCLUDING, BUT NOT LIMITED TO, THE IMPLIED WARRANTIES OF 
  23:Core/Src/u8g2/Src/u8x8_setup.c ****   MERCHANTABILITY AND FITNESS FOR A PARTICULAR PURPOSE ARE 
  24:Core/Src/u8g2/Src/u8x8_setup.c ****   DISCLAIMED. IN NO EVENT SHALL THE COPYRIGHT HOLDER OR 
  25:Core/Src/u8g2/Src/u8x8_setup.c ****   CONTRIBUTORS BE LIABLE FOR ANY DIRECT, INDIRECT, INCIDENTAL, 
  26:Core/Src/u8g2/Src/u8x8_setup.c ****   SPECIAL, EXEMPLARY, OR CONSEQUENTIAL DAMAGES (INCLUDING, BUT 
  27:Core/Src/u8g2/Src/u8x8_setup.c ****   NOT LIMITED TO, PROCUREMENT OF SUBSTITUTE GOODS OR SERVICES; 
  28:Core/Src/u8g2/Src/u8x8_setup.c ****   LOSS OF USE, DATA, OR PROFITS; OR BUSINESS INTERRUPTION) HOWEVER 
  29:Core/Src/u8g2/Src/u8x8_setup.c ****   CAUSED AND ON ANY THEORY OF LIABILITY, WHETHER IN CONTRACT, 
ARM GAS  C:\Users\MOROSH~1\AppData\Local\Temp\cc5bU3TX.s 			page 2


  30:Core/Src/u8g2/Src/u8x8_setup.c ****   STRICT LIABILITY, OR TORT (INCLUDING NEGLIGENCE OR OTHERWISE) 
  31:Core/Src/u8g2/Src/u8x8_setup.c ****   ARISING IN ANY WAY OUT OF THE USE OF THIS SOFTWARE, EVEN IF 
  32:Core/Src/u8g2/Src/u8x8_setup.c ****   ADVISED OF THE POSSIBILITY OF SUCH DAMAGE.  
  33:Core/Src/u8g2/Src/u8x8_setup.c **** 
  34:Core/Src/u8g2/Src/u8x8_setup.c **** */
  35:Core/Src/u8g2/Src/u8x8_setup.c **** 
  36:Core/Src/u8g2/Src/u8x8_setup.c **** 
  37:Core/Src/u8g2/Src/u8x8_setup.c **** #include "u8x8.h"
  38:Core/Src/u8g2/Src/u8x8_setup.c **** 
  39:Core/Src/u8g2/Src/u8x8_setup.c **** /* universal dummy callback, which will be default for all callbacks */
  40:Core/Src/u8g2/Src/u8x8_setup.c **** uint8_t u8x8_dummy_cb(U8X8_UNUSED u8x8_t *u8x8, U8X8_UNUSED uint8_t msg, U8X8_UNUSED uint8_t arg_in
  41:Core/Src/u8g2/Src/u8x8_setup.c **** {
  30              		.loc 1 41 1 view -0
  31              		.cfi_startproc
  32              		@ args = 0, pretend = 0, frame = 0
  33              		@ frame_needed = 0, uses_anonymous_args = 0
  34              		@ link register save eliminated.
  42:Core/Src/u8g2/Src/u8x8_setup.c ****   /* the dummy callback will not handle any message and will fail for all messages */
  43:Core/Src/u8g2/Src/u8x8_setup.c ****   return 0;
  35              		.loc 1 43 3 view .LVU1
  44:Core/Src/u8g2/Src/u8x8_setup.c **** }
  36              		.loc 1 44 1 is_stmt 0 view .LVU2
  37 0000 0020     		movs	r0, #0
  38              	.LVL1:
  39              		.loc 1 44 1 view .LVU3
  40 0002 7047     		bx	lr
  41              		.cfi_endproc
  42              	.LFE0:
  44              		.section	.text.u8x8_d_null_cb,"ax",%progbits
  45              		.align	1
  46              		.global	u8x8_d_null_cb
  47              		.syntax unified
  48              		.thumb
  49              		.thumb_func
  51              	u8x8_d_null_cb:
  52              	.LVL2:
  53              	.LFB1:
  45:Core/Src/u8g2/Src/u8x8_setup.c **** 
  46:Core/Src/u8g2/Src/u8x8_setup.c **** 
  47:Core/Src/u8g2/Src/u8x8_setup.c **** static const u8x8_display_info_t u8x8_null_display_info =
  48:Core/Src/u8g2/Src/u8x8_setup.c **** {
  49:Core/Src/u8g2/Src/u8x8_setup.c ****   /* chip_enable_level = */ 0,
  50:Core/Src/u8g2/Src/u8x8_setup.c ****   /* chip_disable_level = */ 1,
  51:Core/Src/u8g2/Src/u8x8_setup.c ****   
  52:Core/Src/u8g2/Src/u8x8_setup.c ****   /* post_chip_enable_wait_ns = */ 0,
  53:Core/Src/u8g2/Src/u8x8_setup.c ****   /* pre_chip_disable_wait_ns = */ 0,
  54:Core/Src/u8g2/Src/u8x8_setup.c ****   /* reset_pulse_width_ms = */ 0, 
  55:Core/Src/u8g2/Src/u8x8_setup.c ****   /* post_reset_wait_ms = */ 0, 
  56:Core/Src/u8g2/Src/u8x8_setup.c ****   /* sda_setup_time_ns = */ 0,		
  57:Core/Src/u8g2/Src/u8x8_setup.c ****   /* sck_pulse_width_ns = */ 0,	/* half of cycle time (100ns according to datasheet), AVR: below 70
  58:Core/Src/u8g2/Src/u8x8_setup.c ****   /* sck_clock_hz = */ 4000000UL,	/* since Arduino 1.6.0, the SPI bus speed in Hz. Should be  10000
  59:Core/Src/u8g2/Src/u8x8_setup.c ****   /* spi_mode = */ 0,		/* active high, rising edge */
  60:Core/Src/u8g2/Src/u8x8_setup.c ****   /* i2c_bus_clock_100kHz = */ 4,
  61:Core/Src/u8g2/Src/u8x8_setup.c ****   /* data_setup_time_ns = */ 0,
  62:Core/Src/u8g2/Src/u8x8_setup.c ****   /* write_pulse_width_ns = */ 0,
  63:Core/Src/u8g2/Src/u8x8_setup.c ****   /* tile_width = */ 1,		/* 8x8 */
  64:Core/Src/u8g2/Src/u8x8_setup.c ****   /* tile_hight = */ 1,
ARM GAS  C:\Users\MOROSH~1\AppData\Local\Temp\cc5bU3TX.s 			page 3


  65:Core/Src/u8g2/Src/u8x8_setup.c ****   /* default_x_offset = */ 0,
  66:Core/Src/u8g2/Src/u8x8_setup.c ****   /* flipmode_x_offset = */ 0,
  67:Core/Src/u8g2/Src/u8x8_setup.c ****   /* pixel_width = */ 8,
  68:Core/Src/u8g2/Src/u8x8_setup.c ****   /* pixel_height = */ 8
  69:Core/Src/u8g2/Src/u8x8_setup.c **** };
  70:Core/Src/u8g2/Src/u8x8_setup.c **** 
  71:Core/Src/u8g2/Src/u8x8_setup.c **** 
  72:Core/Src/u8g2/Src/u8x8_setup.c **** /* a special null device */
  73:Core/Src/u8g2/Src/u8x8_setup.c **** uint8_t u8x8_d_null_cb(u8x8_t *u8x8, uint8_t msg, U8X8_UNUSED uint8_t arg_int, U8X8_UNUSED void *ar
  74:Core/Src/u8g2/Src/u8x8_setup.c **** {
  54              		.loc 1 74 1 is_stmt 1 view -0
  55              		.cfi_startproc
  56              		@ args = 0, pretend = 0, frame = 0
  57              		@ frame_needed = 0, uses_anonymous_args = 0
  58              		.loc 1 74 1 is_stmt 0 view .LVU5
  59 0000 08B5     		push	{r3, lr}
  60              	.LCFI0:
  61              		.cfi_def_cfa_offset 8
  62              		.cfi_offset 3, -8
  63              		.cfi_offset 14, -4
  75:Core/Src/u8g2/Src/u8x8_setup.c ****   switch(msg)
  64              		.loc 1 75 3 is_stmt 1 view .LVU6
  65 0002 0929     		cmp	r1, #9
  66 0004 03D0     		beq	.L3
  67 0006 0A29     		cmp	r1, #10
  68 0008 05D0     		beq	.L4
  69              	.LVL3:
  70              	.L5:
  76:Core/Src/u8g2/Src/u8x8_setup.c ****   {
  77:Core/Src/u8g2/Src/u8x8_setup.c ****     case U8X8_MSG_DISPLAY_SETUP_MEMORY:
  78:Core/Src/u8g2/Src/u8x8_setup.c ****       u8x8_d_helper_display_setup_memory(u8x8, &u8x8_null_display_info);
  79:Core/Src/u8g2/Src/u8x8_setup.c ****       break;
  80:Core/Src/u8g2/Src/u8x8_setup.c ****     case U8X8_MSG_DISPLAY_INIT:
  81:Core/Src/u8g2/Src/u8x8_setup.c ****       u8x8_d_helper_display_init(u8x8);
  82:Core/Src/u8g2/Src/u8x8_setup.c ****       break;
  83:Core/Src/u8g2/Src/u8x8_setup.c ****   }
  84:Core/Src/u8g2/Src/u8x8_setup.c ****   /* the null device callback will succeed for all messages */
  85:Core/Src/u8g2/Src/u8x8_setup.c ****   return 1;
  71              		.loc 1 85 3 view .LVU7
  86:Core/Src/u8g2/Src/u8x8_setup.c **** }
  72              		.loc 1 86 1 is_stmt 0 view .LVU8
  73 000a 0120     		movs	r0, #1
  74 000c 08BD     		pop	{r3, pc}
  75              	.LVL4:
  76              	.L3:
  78:Core/Src/u8g2/Src/u8x8_setup.c ****       break;
  77              		.loc 1 78 7 is_stmt 1 view .LVU9
  78 000e 0349     		ldr	r1, .L7
  79              	.LVL5:
  78:Core/Src/u8g2/Src/u8x8_setup.c ****       break;
  80              		.loc 1 78 7 is_stmt 0 view .LVU10
  81 0010 FFF7FEFF 		bl	u8x8_d_helper_display_setup_memory
  82              	.LVL6:
  79:Core/Src/u8g2/Src/u8x8_setup.c ****     case U8X8_MSG_DISPLAY_INIT:
  83              		.loc 1 79 7 is_stmt 1 view .LVU11
  84 0014 F9E7     		b	.L5
  85              	.LVL7:
ARM GAS  C:\Users\MOROSH~1\AppData\Local\Temp\cc5bU3TX.s 			page 4


  86              	.L4:
  81:Core/Src/u8g2/Src/u8x8_setup.c ****       break;
  87              		.loc 1 81 7 view .LVU12
  88 0016 FFF7FEFF 		bl	u8x8_d_helper_display_init
  89              	.LVL8:
  82:Core/Src/u8g2/Src/u8x8_setup.c ****   }
  90              		.loc 1 82 7 view .LVU13
  91 001a F6E7     		b	.L5
  92              	.L8:
  93              		.align	2
  94              	.L7:
  95 001c 00000000 		.word	.LANCHOR0
  96              		.cfi_endproc
  97              	.LFE1:
  99              		.section	.text.u8x8_SetupDefaults,"ax",%progbits
 100              		.align	1
 101              		.global	u8x8_SetupDefaults
 102              		.syntax unified
 103              		.thumb
 104              		.thumb_func
 106              	u8x8_SetupDefaults:
 107              	.LVL9:
 108              	.LFB2:
  87:Core/Src/u8g2/Src/u8x8_setup.c **** 
  88:Core/Src/u8g2/Src/u8x8_setup.c **** 
  89:Core/Src/u8g2/Src/u8x8_setup.c **** /*
  90:Core/Src/u8g2/Src/u8x8_setup.c ****   Description:
  91:Core/Src/u8g2/Src/u8x8_setup.c ****     Setup u8x8
  92:Core/Src/u8g2/Src/u8x8_setup.c ****   Args:
  93:Core/Src/u8g2/Src/u8x8_setup.c ****     u8x8	An empty u8x8 structure
  94:Core/Src/u8g2/Src/u8x8_setup.c **** */
  95:Core/Src/u8g2/Src/u8x8_setup.c **** void u8x8_SetupDefaults(u8x8_t *u8x8)
  96:Core/Src/u8g2/Src/u8x8_setup.c **** {
 109              		.loc 1 96 1 view -0
 110              		.cfi_startproc
 111              		@ args = 0, pretend = 0, frame = 0
 112              		@ frame_needed = 0, uses_anonymous_args = 0
 113              		@ link register save eliminated.
  97:Core/Src/u8g2/Src/u8x8_setup.c ****     u8x8->display_info = NULL;
 114              		.loc 1 97 5 view .LVU15
 115              		.loc 1 97 24 is_stmt 0 view .LVU16
 116 0000 0023     		movs	r3, #0
 117 0002 0360     		str	r3, [r0]
  98:Core/Src/u8g2/Src/u8x8_setup.c ****     u8x8->display_cb = u8x8_dummy_cb;
 118              		.loc 1 98 5 is_stmt 1 view .LVU17
 119              		.loc 1 98 22 is_stmt 0 view .LVU18
 120 0004 074A     		ldr	r2, .L10
 121 0006 8260     		str	r2, [r0, #8]
  99:Core/Src/u8g2/Src/u8x8_setup.c ****     u8x8->cad_cb = u8x8_dummy_cb;
 122              		.loc 1 99 5 is_stmt 1 view .LVU19
 123              		.loc 1 99 18 is_stmt 0 view .LVU20
 124 0008 C260     		str	r2, [r0, #12]
 100:Core/Src/u8g2/Src/u8x8_setup.c ****     u8x8->byte_cb = u8x8_dummy_cb;
 125              		.loc 1 100 5 is_stmt 1 view .LVU21
 126              		.loc 1 100 19 is_stmt 0 view .LVU22
 127 000a 0261     		str	r2, [r0, #16]
 101:Core/Src/u8g2/Src/u8x8_setup.c ****     u8x8->gpio_and_delay_cb = u8x8_dummy_cb;
ARM GAS  C:\Users\MOROSH~1\AppData\Local\Temp\cc5bU3TX.s 			page 5


 128              		.loc 1 101 5 is_stmt 1 view .LVU23
 129              		.loc 1 101 29 is_stmt 0 view .LVU24
 130 000c 4261     		str	r2, [r0, #20]
 102:Core/Src/u8g2/Src/u8x8_setup.c ****     u8x8->is_font_inverse_mode = 0;
 131              		.loc 1 102 5 is_stmt 1 view .LVU25
 132              		.loc 1 102 32 is_stmt 0 view .LVU26
 133 000e 80F82330 		strb	r3, [r0, #35]
 103:Core/Src/u8g2/Src/u8x8_setup.c ****     //u8x8->device_address = 0;
 104:Core/Src/u8g2/Src/u8x8_setup.c ****     u8x8->utf8_state = 0;		/* also reset by u8x8_utf8_init */
 134              		.loc 1 104 5 is_stmt 1 view .LVU27
 135              		.loc 1 104 22 is_stmt 0 view .LVU28
 136 0012 80F82630 		strb	r3, [r0, #38]
 105:Core/Src/u8g2/Src/u8x8_setup.c ****     u8x8->bus_clock = 0;		/* issue 769 */
 137              		.loc 1 105 5 is_stmt 1 view .LVU29
 138              		.loc 1 105 21 is_stmt 0 view .LVU30
 139 0016 8361     		str	r3, [r0, #24]
 106:Core/Src/u8g2/Src/u8x8_setup.c ****     u8x8->i2c_address = 255;
 140              		.loc 1 106 5 is_stmt 1 view .LVU31
 141              		.loc 1 106 23 is_stmt 0 view .LVU32
 142 0018 FF23     		movs	r3, #255
 143 001a 80F82430 		strb	r3, [r0, #36]
 107:Core/Src/u8g2/Src/u8x8_setup.c ****     u8x8->debounce_default_pin_state = 255;	/* assume all low active buttons */
 144              		.loc 1 107 5 is_stmt 1 view .LVU33
 145              		.loc 1 107 38 is_stmt 0 view .LVU34
 146 001e 80F82830 		strb	r3, [r0, #40]
 108:Core/Src/u8g2/Src/u8x8_setup.c ****   
 109:Core/Src/u8g2/Src/u8x8_setup.c **** #ifdef U8X8_USE_PINS 
 110:Core/Src/u8g2/Src/u8x8_setup.c ****   {
 111:Core/Src/u8g2/Src/u8x8_setup.c ****     uint8_t i;
 112:Core/Src/u8g2/Src/u8x8_setup.c ****     for( i = 0; i < U8X8_PIN_CNT; i++ )
 113:Core/Src/u8g2/Src/u8x8_setup.c ****       u8x8->pins[i] = U8X8_PIN_NONE;
 114:Core/Src/u8g2/Src/u8x8_setup.c ****   }
 115:Core/Src/u8g2/Src/u8x8_setup.c **** #endif
 116:Core/Src/u8g2/Src/u8x8_setup.c **** }
 147              		.loc 1 116 1 view .LVU35
 148 0022 7047     		bx	lr
 149              	.L11:
 150              		.align	2
 151              	.L10:
 152 0024 00000000 		.word	u8x8_dummy_cb
 153              		.cfi_endproc
 154              	.LFE2:
 156              		.section	.text.u8x8_Setup,"ax",%progbits
 157              		.align	1
 158              		.global	u8x8_Setup
 159              		.syntax unified
 160              		.thumb
 161              		.thumb_func
 163              	u8x8_Setup:
 164              	.LVL10:
 165              	.LFB3:
 117:Core/Src/u8g2/Src/u8x8_setup.c **** 
 118:Core/Src/u8g2/Src/u8x8_setup.c **** 
 119:Core/Src/u8g2/Src/u8x8_setup.c **** /*
 120:Core/Src/u8g2/Src/u8x8_setup.c ****   Description:
 121:Core/Src/u8g2/Src/u8x8_setup.c ****     Setup u8x8 and assign the callback function. The dummy 
 122:Core/Src/u8g2/Src/u8x8_setup.c ****     callback "u8x8_dummy_cb" can be used, if no callback is required.
ARM GAS  C:\Users\MOROSH~1\AppData\Local\Temp\cc5bU3TX.s 			page 6


 123:Core/Src/u8g2/Src/u8x8_setup.c ****     This setup will not communicate with the display itself.
 124:Core/Src/u8g2/Src/u8x8_setup.c ****     Use u8x8_InitDisplay() to send the startup code to the Display.
 125:Core/Src/u8g2/Src/u8x8_setup.c ****   Args:
 126:Core/Src/u8g2/Src/u8x8_setup.c ****     u8x8				An empty u8x8 structure
 127:Core/Src/u8g2/Src/u8x8_setup.c ****     display_cb			Display/controller specific callback function
 128:Core/Src/u8g2/Src/u8x8_setup.c ****     cad_cb				Display controller specific communication callback function
 129:Core/Src/u8g2/Src/u8x8_setup.c ****     byte_cb			Display controller/communication specific callback funtion
 130:Core/Src/u8g2/Src/u8x8_setup.c ****     gpio_and_delay_cb	Environment specific callback function
 131:Core/Src/u8g2/Src/u8x8_setup.c **** 
 132:Core/Src/u8g2/Src/u8x8_setup.c **** */
 133:Core/Src/u8g2/Src/u8x8_setup.c **** void u8x8_Setup(u8x8_t *u8x8, u8x8_msg_cb display_cb, u8x8_msg_cb cad_cb, u8x8_msg_cb byte_cb, u8x8
 134:Core/Src/u8g2/Src/u8x8_setup.c **** {
 166              		.loc 1 134 1 is_stmt 1 view -0
 167              		.cfi_startproc
 168              		@ args = 4, pretend = 0, frame = 0
 169              		@ frame_needed = 0, uses_anonymous_args = 0
 170              		.loc 1 134 1 is_stmt 0 view .LVU37
 171 0000 F8B5     		push	{r3, r4, r5, r6, r7, lr}
 172              	.LCFI1:
 173              		.cfi_def_cfa_offset 24
 174              		.cfi_offset 3, -24
 175              		.cfi_offset 4, -20
 176              		.cfi_offset 5, -16
 177              		.cfi_offset 6, -12
 178              		.cfi_offset 7, -8
 179              		.cfi_offset 14, -4
 180 0002 0446     		mov	r4, r0
 181 0004 0F46     		mov	r7, r1
 182 0006 1646     		mov	r6, r2
 183 0008 1D46     		mov	r5, r3
 135:Core/Src/u8g2/Src/u8x8_setup.c ****   /* setup defaults and reset pins to U8X8_PIN_NONE */
 136:Core/Src/u8g2/Src/u8x8_setup.c ****   u8x8_SetupDefaults(u8x8);
 184              		.loc 1 136 3 is_stmt 1 view .LVU38
 185 000a FFF7FEFF 		bl	u8x8_SetupDefaults
 186              	.LVL11:
 137:Core/Src/u8g2/Src/u8x8_setup.c **** 
 138:Core/Src/u8g2/Src/u8x8_setup.c ****   /* setup specific callbacks */
 139:Core/Src/u8g2/Src/u8x8_setup.c ****   u8x8->display_cb = display_cb;
 187              		.loc 1 139 3 view .LVU39
 188              		.loc 1 139 20 is_stmt 0 view .LVU40
 189 000e A760     		str	r7, [r4, #8]
 140:Core/Src/u8g2/Src/u8x8_setup.c ****   u8x8->cad_cb = cad_cb;
 190              		.loc 1 140 3 is_stmt 1 view .LVU41
 191              		.loc 1 140 16 is_stmt 0 view .LVU42
 192 0010 E660     		str	r6, [r4, #12]
 141:Core/Src/u8g2/Src/u8x8_setup.c ****   u8x8->byte_cb = byte_cb;
 193              		.loc 1 141 3 is_stmt 1 view .LVU43
 194              		.loc 1 141 17 is_stmt 0 view .LVU44
 195 0012 2561     		str	r5, [r4, #16]
 142:Core/Src/u8g2/Src/u8x8_setup.c ****   u8x8->gpio_and_delay_cb = gpio_and_delay_cb;
 196              		.loc 1 142 3 is_stmt 1 view .LVU45
 197              		.loc 1 142 27 is_stmt 0 view .LVU46
 198 0014 069B     		ldr	r3, [sp, #24]
 199 0016 6361     		str	r3, [r4, #20]
 143:Core/Src/u8g2/Src/u8x8_setup.c **** 
 144:Core/Src/u8g2/Src/u8x8_setup.c ****   /* setup display info */
 145:Core/Src/u8g2/Src/u8x8_setup.c ****   u8x8_SetupMemory(u8x8);
ARM GAS  C:\Users\MOROSH~1\AppData\Local\Temp\cc5bU3TX.s 			page 7


 200              		.loc 1 145 3 is_stmt 1 view .LVU47
 201 0018 2046     		mov	r0, r4
 202 001a FFF7FEFF 		bl	u8x8_SetupMemory
 203              	.LVL12:
 146:Core/Src/u8g2/Src/u8x8_setup.c **** }
 204              		.loc 1 146 1 is_stmt 0 view .LVU48
 205 001e F8BD     		pop	{r3, r4, r5, r6, r7, pc}
 206              		.loc 1 146 1 view .LVU49
 207              		.cfi_endproc
 208              	.LFE3:
 210              		.section	.rodata.u8x8_null_display_info,"a"
 211              		.align	2
 212              		.set	.LANCHOR0,. + 0
 215              	u8x8_null_display_info:
 216 0000 00       		.byte	0
 217 0001 01       		.byte	1
 218 0002 00       		.byte	0
 219 0003 00       		.byte	0
 220 0004 00       		.byte	0
 221 0005 00       		.byte	0
 222 0006 00       		.byte	0
 223 0007 00       		.byte	0
 224 0008 00093D00 		.word	4000000
 225 000c 00       		.byte	0
 226 000d 04       		.byte	4
 227 000e 00       		.byte	0
 228 000f 00       		.byte	0
 229 0010 01       		.byte	1
 230 0011 01       		.byte	1
 231 0012 00       		.byte	0
 232 0013 00       		.byte	0
 233 0014 0800     		.short	8
 234 0016 0800     		.short	8
 235              		.text
 236              	.Letext0:
 237              		.file 2 "c:\\program files (x86)\\gnu arm embedded toolchain\\10 2021.10\\arm-none-eabi\\include\\
 238              		.file 3 "c:\\program files (x86)\\gnu arm embedded toolchain\\10 2021.10\\arm-none-eabi\\include\\
 239              		.file 4 "Core/Src/u8g2/Inc/u8x8.h"
ARM GAS  C:\Users\MOROSH~1\AppData\Local\Temp\cc5bU3TX.s 			page 8

