ARM GAS  C:\Users\MOROSH~1\AppData\Local\Temp\ccAIugy3.s 			page 1


   1              		.cpu cortex-m4
   2              		.arch armv7e-m
   3              		.fpu fpv4-sp-d16
   4              		.eabi_attribute 27, 1
   5              		.eabi_attribute 28, 1
   6              		.eabi_attribute 20, 1
   7              		.eabi_attribute 21, 1
   8              		.eabi_attribute 23, 3
   9              		.eabi_attribute 24, 1
  10              		.eabi_attribute 25, 1
  11              		.eabi_attribute 26, 1
  12              		.eabi_attribute 30, 1
  13              		.eabi_attribute 34, 1
  14              		.eabi_attribute 18, 4
  15              		.file	"u8x8_debounce.c"
  16              		.text
  17              	.Ltext0:
  18              		.cfi_sections	.debug_frame
  19              		.section	.text.u8x8_find_first_diff,"ax",%progbits
  20              		.align	1
  21              		.syntax unified
  22              		.thumb
  23              		.thumb_func
  25              	u8x8_find_first_diff:
  26              	.LVL0:
  27              	.LFB1:
  28              		.file 1 "Core/Src/u8g2/Src/u8x8_debounce.c"
   1:Core/Src/u8g2/Src/u8x8_debounce.c **** /*
   2:Core/Src/u8g2/Src/u8x8_debounce.c **** 
   3:Core/Src/u8g2/Src/u8x8_debounce.c ****   u8x8_debounce.c
   4:Core/Src/u8g2/Src/u8x8_debounce.c ****   
   5:Core/Src/u8g2/Src/u8x8_debounce.c ****   Key/button simple debounce algorithm (Addon for u8x8)
   6:Core/Src/u8g2/Src/u8x8_debounce.c ****   
   7:Core/Src/u8g2/Src/u8x8_debounce.c ****   Universal 8bit Graphics Library (https://github.com/olikraus/u8g2/)
   8:Core/Src/u8g2/Src/u8x8_debounce.c **** 
   9:Core/Src/u8g2/Src/u8x8_debounce.c ****   Copyright (c) 2016, olikraus@gmail.com
  10:Core/Src/u8g2/Src/u8x8_debounce.c ****   All rights reserved.
  11:Core/Src/u8g2/Src/u8x8_debounce.c **** 
  12:Core/Src/u8g2/Src/u8x8_debounce.c ****   Redistribution and use in source and binary forms, with or without modification, 
  13:Core/Src/u8g2/Src/u8x8_debounce.c ****   are permitted provided that the following conditions are met:
  14:Core/Src/u8g2/Src/u8x8_debounce.c **** 
  15:Core/Src/u8g2/Src/u8x8_debounce.c ****   * Redistributions of source code must retain the above copyright notice, this list 
  16:Core/Src/u8g2/Src/u8x8_debounce.c ****     of conditions and the following disclaimer.
  17:Core/Src/u8g2/Src/u8x8_debounce.c ****     
  18:Core/Src/u8g2/Src/u8x8_debounce.c ****   * Redistributions in binary form must reproduce the above copyright notice, this 
  19:Core/Src/u8g2/Src/u8x8_debounce.c ****     list of conditions and the following disclaimer in the documentation and/or other 
  20:Core/Src/u8g2/Src/u8x8_debounce.c ****     materials provided with the distribution.
  21:Core/Src/u8g2/Src/u8x8_debounce.c **** 
  22:Core/Src/u8g2/Src/u8x8_debounce.c ****   THIS SOFTWARE IS PROVIDED BY THE COPYRIGHT HOLDERS AND 
  23:Core/Src/u8g2/Src/u8x8_debounce.c ****   CONTRIBUTORS "AS IS" AND ANY EXPRESS OR IMPLIED WARRANTIES, 
  24:Core/Src/u8g2/Src/u8x8_debounce.c ****   INCLUDING, BUT NOT LIMITED TO, THE IMPLIED WARRANTIES OF 
  25:Core/Src/u8g2/Src/u8x8_debounce.c ****   MERCHANTABILITY AND FITNESS FOR A PARTICULAR PURPOSE ARE 
  26:Core/Src/u8g2/Src/u8x8_debounce.c ****   DISCLAIMED. IN NO EVENT SHALL THE COPYRIGHT HOLDER OR 
  27:Core/Src/u8g2/Src/u8x8_debounce.c ****   CONTRIBUTORS BE LIABLE FOR ANY DIRECT, INDIRECT, INCIDENTAL, 
  28:Core/Src/u8g2/Src/u8x8_debounce.c ****   SPECIAL, EXEMPLARY, OR CONSEQUENTIAL DAMAGES (INCLUDING, BUT 
  29:Core/Src/u8g2/Src/u8x8_debounce.c ****   NOT LIMITED TO, PROCUREMENT OF SUBSTITUTE GOODS OR SERVICES; 
  30:Core/Src/u8g2/Src/u8x8_debounce.c ****   LOSS OF USE, DATA, OR PROFITS; OR BUSINESS INTERRUPTION) HOWEVER 
ARM GAS  C:\Users\MOROSH~1\AppData\Local\Temp\ccAIugy3.s 			page 2


  31:Core/Src/u8g2/Src/u8x8_debounce.c ****   CAUSED AND ON ANY THEORY OF LIABILITY, WHETHER IN CONTRACT, 
  32:Core/Src/u8g2/Src/u8x8_debounce.c ****   STRICT LIABILITY, OR TORT (INCLUDING NEGLIGENCE OR OTHERWISE) 
  33:Core/Src/u8g2/Src/u8x8_debounce.c ****   ARISING IN ANY WAY OUT OF THE USE OF THIS SOFTWARE, EVEN IF 
  34:Core/Src/u8g2/Src/u8x8_debounce.c ****   ADVISED OF THE POSSIBILITY OF SUCH DAMAGE.  
  35:Core/Src/u8g2/Src/u8x8_debounce.c ****   
  36:Core/Src/u8g2/Src/u8x8_debounce.c **** */
  37:Core/Src/u8g2/Src/u8x8_debounce.c **** 
  38:Core/Src/u8g2/Src/u8x8_debounce.c **** #include "u8x8.h"
  39:Core/Src/u8g2/Src/u8x8_debounce.c **** 
  40:Core/Src/u8g2/Src/u8x8_debounce.c **** static uint8_t u8x8_read_pin_state(u8x8_t *u8x8)
  41:Core/Src/u8g2/Src/u8x8_debounce.c **** {
  42:Core/Src/u8g2/Src/u8x8_debounce.c ****   uint8_t i;
  43:Core/Src/u8g2/Src/u8x8_debounce.c ****   uint8_t pin_state;
  44:Core/Src/u8g2/Src/u8x8_debounce.c ****   
  45:Core/Src/u8g2/Src/u8x8_debounce.c ****   pin_state = 255;	/* be compatible with the setup of the default pin setup, which is 255 */
  46:Core/Src/u8g2/Src/u8x8_debounce.c ****   for( i = 0; i < U8X8_PIN_INPUT_CNT; i++ )
  47:Core/Src/u8g2/Src/u8x8_debounce.c ****   {
  48:Core/Src/u8g2/Src/u8x8_debounce.c ****     pin_state <<= 1;
  49:Core/Src/u8g2/Src/u8x8_debounce.c ****     
  50:Core/Src/u8g2/Src/u8x8_debounce.c ****     /* the callback function should put the return value into this variable */
  51:Core/Src/u8g2/Src/u8x8_debounce.c ****     u8x8->gpio_result = 1;
  52:Core/Src/u8g2/Src/u8x8_debounce.c ****     u8x8_gpio_call(u8x8, U8X8_MSG_GPIO(i+U8X8_PIN_OUTPUT_CNT), 0);
  53:Core/Src/u8g2/Src/u8x8_debounce.c ****     pin_state |= u8x8->gpio_result & 1;
  54:Core/Src/u8g2/Src/u8x8_debounce.c ****   }
  55:Core/Src/u8g2/Src/u8x8_debounce.c ****   
  56:Core/Src/u8g2/Src/u8x8_debounce.c ****   return pin_state;
  57:Core/Src/u8g2/Src/u8x8_debounce.c **** }
  58:Core/Src/u8g2/Src/u8x8_debounce.c **** 
  59:Core/Src/u8g2/Src/u8x8_debounce.c **** /*
  60:Core/Src/u8g2/Src/u8x8_debounce.c ****   return 0 to U8X8_PIN_INPUT_CNT-1 if there is a difference
  61:Core/Src/u8g2/Src/u8x8_debounce.c ****   return U8X8_PIN_INPUT_CNT if there is no difference
  62:Core/Src/u8g2/Src/u8x8_debounce.c **** */
  63:Core/Src/u8g2/Src/u8x8_debounce.c **** static uint8_t u8x8_find_first_diff(uint8_t a, uint8_t b)
  64:Core/Src/u8g2/Src/u8x8_debounce.c **** {
  29              		.loc 1 64 1 view -0
  30              		.cfi_startproc
  31              		@ args = 0, pretend = 0, frame = 0
  32              		@ frame_needed = 0, uses_anonymous_args = 0
  33              		@ link register save eliminated.
  34              		.loc 1 64 1 is_stmt 0 view .LVU1
  35 0000 8446     		mov	ip, r0
  65:Core/Src/u8g2/Src/u8x8_debounce.c ****   uint8_t mask;
  36              		.loc 1 65 3 is_stmt 1 view .LVU2
  66:Core/Src/u8g2/Src/u8x8_debounce.c ****   uint8_t i;
  37              		.loc 1 66 3 view .LVU3
  67:Core/Src/u8g2/Src/u8x8_debounce.c ****   mask = 1;
  38              		.loc 1 67 3 view .LVU4
  39              	.LVL1:
  68:Core/Src/u8g2/Src/u8x8_debounce.c ****   i = U8X8_PIN_INPUT_CNT;
  40              		.loc 1 68 3 view .LVU5
  41              		.loc 1 68 5 is_stmt 0 view .LVU6
  42 0002 0620     		movs	r0, #6
  43              	.LVL2:
  67:Core/Src/u8g2/Src/u8x8_debounce.c ****   mask = 1;
  44              		.loc 1 67 8 view .LVU7
  45 0004 0123     		movs	r3, #1
  46              	.LVL3:
ARM GAS  C:\Users\MOROSH~1\AppData\Local\Temp\ccAIugy3.s 			page 3


  47              	.L3:
  69:Core/Src/u8g2/Src/u8x8_debounce.c ****   do
  48              		.loc 1 69 3 is_stmt 1 view .LVU8
  70:Core/Src/u8g2/Src/u8x8_debounce.c ****   {
  71:Core/Src/u8g2/Src/u8x8_debounce.c ****     i--;
  49              		.loc 1 71 5 view .LVU9
  50              		.loc 1 71 6 is_stmt 0 view .LVU10
  51 0006 0138     		subs	r0, r0, #1
  52              	.LVL4:
  53              		.loc 1 71 6 view .LVU11
  54 0008 C0B2     		uxtb	r0, r0
  55              	.LVL5:
  72:Core/Src/u8g2/Src/u8x8_debounce.c ****     if ( (a & mask) != (b & mask) )
  56              		.loc 1 72 5 is_stmt 1 view .LVU12
  57              		.loc 1 72 21 is_stmt 0 view .LVU13
  58 000a 8CEA0102 		eor	r2, ip, r1
  59              		.loc 1 72 8 view .LVU14
  60 000e 1342     		tst	r3, r2
  61 0010 04D1     		bne	.L2
  73:Core/Src/u8g2/Src/u8x8_debounce.c ****       return i;
  74:Core/Src/u8g2/Src/u8x8_debounce.c ****     mask <<= 1;
  62              		.loc 1 74 5 is_stmt 1 view .LVU15
  63              		.loc 1 74 10 is_stmt 0 view .LVU16
  64 0012 5B00     		lsls	r3, r3, #1
  65              	.LVL6:
  66              		.loc 1 74 10 view .LVU17
  67 0014 DBB2     		uxtb	r3, r3
  68              	.LVL7:
  75:Core/Src/u8g2/Src/u8x8_debounce.c ****   } while( i > 0 );
  69              		.loc 1 75 10 is_stmt 1 view .LVU18
  70              		.loc 1 75 3 is_stmt 0 view .LVU19
  71 0016 0028     		cmp	r0, #0
  72 0018 F5D1     		bne	.L3
  76:Core/Src/u8g2/Src/u8x8_debounce.c ****   return U8X8_PIN_INPUT_CNT;
  73              		.loc 1 76 10 view .LVU20
  74 001a 0620     		movs	r0, #6
  75              	.LVL8:
  76              	.L2:
  77:Core/Src/u8g2/Src/u8x8_debounce.c **** }
  77              		.loc 1 77 1 view .LVU21
  78 001c 7047     		bx	lr
  79              		.cfi_endproc
  80              	.LFE1:
  82              		.section	.text.u8x8_read_pin_state,"ax",%progbits
  83              		.align	1
  84              		.syntax unified
  85              		.thumb
  86              		.thumb_func
  88              	u8x8_read_pin_state:
  89              	.LVL9:
  90              	.LFB0:
  41:Core/Src/u8g2/Src/u8x8_debounce.c ****   uint8_t i;
  91              		.loc 1 41 1 is_stmt 1 view -0
  92              		.cfi_startproc
  93              		@ args = 0, pretend = 0, frame = 0
  94              		@ frame_needed = 0, uses_anonymous_args = 0
  41:Core/Src/u8g2/Src/u8x8_debounce.c ****   uint8_t i;
ARM GAS  C:\Users\MOROSH~1\AppData\Local\Temp\ccAIugy3.s 			page 4


  95              		.loc 1 41 1 is_stmt 0 view .LVU23
  96 0000 70B5     		push	{r4, r5, r6, lr}
  97              	.LCFI0:
  98              		.cfi_def_cfa_offset 16
  99              		.cfi_offset 4, -16
 100              		.cfi_offset 5, -12
 101              		.cfi_offset 6, -8
 102              		.cfi_offset 14, -4
 103 0002 0646     		mov	r6, r0
  42:Core/Src/u8g2/Src/u8x8_debounce.c ****   uint8_t pin_state;
 104              		.loc 1 42 3 is_stmt 1 view .LVU24
  43:Core/Src/u8g2/Src/u8x8_debounce.c ****   
 105              		.loc 1 43 3 view .LVU25
  45:Core/Src/u8g2/Src/u8x8_debounce.c ****   for( i = 0; i < U8X8_PIN_INPUT_CNT; i++ )
 106              		.loc 1 45 3 view .LVU26
 107              	.LVL10:
  46:Core/Src/u8g2/Src/u8x8_debounce.c ****   {
 108              		.loc 1 46 3 view .LVU27
  45:Core/Src/u8g2/Src/u8x8_debounce.c ****   for( i = 0; i < U8X8_PIN_INPUT_CNT; i++ )
 109              		.loc 1 45 13 is_stmt 0 view .LVU28
 110 0004 FF20     		movs	r0, #255
 111              	.LVL11:
  46:Core/Src/u8g2/Src/u8x8_debounce.c ****   {
 112              		.loc 1 46 10 view .LVU29
 113 0006 0024     		movs	r4, #0
  46:Core/Src/u8g2/Src/u8x8_debounce.c ****   {
 114              		.loc 1 46 3 view .LVU30
 115 0008 12E0     		b	.L5
 116              	.LVL12:
 117              	.L6:
  48:Core/Src/u8g2/Src/u8x8_debounce.c ****     
 118              		.loc 1 48 5 is_stmt 1 discriminator 3 view .LVU31
  48:Core/Src/u8g2/Src/u8x8_debounce.c ****     
 119              		.loc 1 48 15 is_stmt 0 discriminator 3 view .LVU32
 120 000a 4000     		lsls	r0, r0, #1
 121              	.LVL13:
  48:Core/Src/u8g2/Src/u8x8_debounce.c ****     
 122              		.loc 1 48 15 discriminator 3 view .LVU33
 123 000c C5B2     		uxtb	r5, r0
 124              	.LVL14:
  51:Core/Src/u8g2/Src/u8x8_debounce.c ****     u8x8_gpio_call(u8x8, U8X8_MSG_GPIO(i+U8X8_PIN_OUTPUT_CNT), 0);
 125              		.loc 1 51 5 is_stmt 1 discriminator 3 view .LVU34
  51:Core/Src/u8g2/Src/u8x8_debounce.c ****     u8x8_gpio_call(u8x8, U8X8_MSG_GPIO(i+U8X8_PIN_OUTPUT_CNT), 0);
 126              		.loc 1 51 23 is_stmt 0 discriminator 3 view .LVU35
 127 000e 0123     		movs	r3, #1
 128 0010 86F82730 		strb	r3, [r6, #39]
  52:Core/Src/u8g2/Src/u8x8_debounce.c ****     pin_state |= u8x8->gpio_result & 1;
 129              		.loc 1 52 5 is_stmt 1 discriminator 3 view .LVU36
 130 0014 04F15001 		add	r1, r4, #80
 131 0018 0022     		movs	r2, #0
 132 001a C9B2     		uxtb	r1, r1
 133 001c 3046     		mov	r0, r6
 134 001e FFF7FEFF 		bl	u8x8_gpio_call
 135              	.LVL15:
  53:Core/Src/u8g2/Src/u8x8_debounce.c ****   }
 136              		.loc 1 53 5 discriminator 3 view .LVU37
  53:Core/Src/u8g2/Src/u8x8_debounce.c ****   }
ARM GAS  C:\Users\MOROSH~1\AppData\Local\Temp\ccAIugy3.s 			page 5


 137              		.loc 1 53 22 is_stmt 0 discriminator 3 view .LVU38
 138 0022 96F92700 		ldrsb	r0, [r6, #39]
  53:Core/Src/u8g2/Src/u8x8_debounce.c ****   }
 139              		.loc 1 53 36 discriminator 3 view .LVU39
 140 0026 00F00100 		and	r0, r0, #1
  53:Core/Src/u8g2/Src/u8x8_debounce.c ****   }
 141              		.loc 1 53 15 discriminator 3 view .LVU40
 142 002a 2843     		orrs	r0, r0, r5
 143              	.LVL16:
  46:Core/Src/u8g2/Src/u8x8_debounce.c ****   {
 144              		.loc 1 46 39 is_stmt 1 discriminator 3 view .LVU41
  46:Core/Src/u8g2/Src/u8x8_debounce.c ****   {
 145              		.loc 1 46 40 is_stmt 0 discriminator 3 view .LVU42
 146 002c 0134     		adds	r4, r4, #1
 147              	.LVL17:
  46:Core/Src/u8g2/Src/u8x8_debounce.c ****   {
 148              		.loc 1 46 40 discriminator 3 view .LVU43
 149 002e E4B2     		uxtb	r4, r4
 150              	.LVL18:
 151              	.L5:
  46:Core/Src/u8g2/Src/u8x8_debounce.c ****   {
 152              		.loc 1 46 15 is_stmt 1 discriminator 1 view .LVU44
  46:Core/Src/u8g2/Src/u8x8_debounce.c ****   {
 153              		.loc 1 46 3 is_stmt 0 discriminator 1 view .LVU45
 154 0030 052C     		cmp	r4, #5
 155 0032 EAD9     		bls	.L6
  56:Core/Src/u8g2/Src/u8x8_debounce.c **** }
 156              		.loc 1 56 3 is_stmt 1 view .LVU46
  57:Core/Src/u8g2/Src/u8x8_debounce.c **** 
 157              		.loc 1 57 1 is_stmt 0 view .LVU47
 158 0034 70BD     		pop	{r4, r5, r6, pc}
  57:Core/Src/u8g2/Src/u8x8_debounce.c **** 
 159              		.loc 1 57 1 view .LVU48
 160              		.cfi_endproc
 161              	.LFE0:
 163              		.section	.text.u8x8_GetMenuEvent,"ax",%progbits
 164              		.align	1
 165              		.weak	u8x8_GetMenuEvent
 166              		.syntax unified
 167              		.thumb
 168              		.thumb_func
 170              	u8x8_GetMenuEvent:
 171              	.LVL19:
 172              	.LFB2:
  78:Core/Src/u8g2/Src/u8x8_debounce.c **** 
  79:Core/Src/u8g2/Src/u8x8_debounce.c **** /*
  80:Core/Src/u8g2/Src/u8x8_debounce.c ****   State A:
  81:Core/Src/u8g2/Src/u8x8_debounce.c ****     u8x8->debounce_last_pin_state == current_state 
  82:Core/Src/u8g2/Src/u8x8_debounce.c ****       --> State A
  83:Core/Src/u8g2/Src/u8x8_debounce.c ****     u8x8->debounce_last_pin_state != current_state 
  84:Core/Src/u8g2/Src/u8x8_debounce.c ****       --> u8x8->debounce_last_pin_state = current_state 
  85:Core/Src/u8g2/Src/u8x8_debounce.c ****       --> State B + cnt
  86:Core/Src/u8g2/Src/u8x8_debounce.c **** 
  87:Core/Src/u8g2/Src/u8x8_debounce.c ****   State B + cnt
  88:Core/Src/u8g2/Src/u8x8_debounce.c ****     --> state--
  89:Core/Src/u8g2/Src/u8x8_debounce.c **** 
  90:Core/Src/u8g2/Src/u8x8_debounce.c ****   State B
ARM GAS  C:\Users\MOROSH~1\AppData\Local\Temp\ccAIugy3.s 			page 6


  91:Core/Src/u8g2/Src/u8x8_debounce.c ****     u8x8->debounce_last_pin_state == current_state 
  92:Core/Src/u8g2/Src/u8x8_debounce.c ****       --> keypress detected
  93:Core/Src/u8g2/Src/u8x8_debounce.c ****       --> State C
  94:Core/Src/u8g2/Src/u8x8_debounce.c ****     u8x8->debounce_last_pin_state != current_state 
  95:Core/Src/u8g2/Src/u8x8_debounce.c ****       --> State A
  96:Core/Src/u8g2/Src/u8x8_debounce.c **** 
  97:Core/Src/u8g2/Src/u8x8_debounce.c ****   State C
  98:Core/Src/u8g2/Src/u8x8_debounce.c ****     u8x8->debounce_last_pin_state == current_state 
  99:Core/Src/u8g2/Src/u8x8_debounce.c ****       --> State C
 100:Core/Src/u8g2/Src/u8x8_debounce.c ****     u8x8->debounce_last_pin_state != current_state 
 101:Core/Src/u8g2/Src/u8x8_debounce.c ****       --> State A
 102:Core/Src/u8g2/Src/u8x8_debounce.c **** 
 103:Core/Src/u8g2/Src/u8x8_debounce.c **** */
 104:Core/Src/u8g2/Src/u8x8_debounce.c **** 
 105:Core/Src/u8g2/Src/u8x8_debounce.c **** #ifdef __unix__xxxxxx_THIS_IS_DISABLED
 106:Core/Src/u8g2/Src/u8x8_debounce.c **** 
 107:Core/Src/u8g2/Src/u8x8_debounce.c **** #include <stdio.h>
 108:Core/Src/u8g2/Src/u8x8_debounce.c **** #include <stdlib.h>
 109:Core/Src/u8g2/Src/u8x8_debounce.c **** uint8_t u8x8_GetMenuEvent(u8x8_t *u8x8)
 110:Core/Src/u8g2/Src/u8x8_debounce.c **** {
 111:Core/Src/u8g2/Src/u8x8_debounce.c ****     int c;
 112:Core/Src/u8g2/Src/u8x8_debounce.c ****     c = getc(stdin);
 113:Core/Src/u8g2/Src/u8x8_debounce.c ****     switch(c)
 114:Core/Src/u8g2/Src/u8x8_debounce.c ****     {
 115:Core/Src/u8g2/Src/u8x8_debounce.c ****         case 'n':
 116:Core/Src/u8g2/Src/u8x8_debounce.c ****             return  U8X8_MSG_GPIO_MENU_NEXT;
 117:Core/Src/u8g2/Src/u8x8_debounce.c ****         case 'p':
 118:Core/Src/u8g2/Src/u8x8_debounce.c ****             return  U8X8_MSG_GPIO_MENU_PREV;
 119:Core/Src/u8g2/Src/u8x8_debounce.c ****         case 's':
 120:Core/Src/u8g2/Src/u8x8_debounce.c ****             return  U8X8_MSG_GPIO_MENU_SELECT;
 121:Core/Src/u8g2/Src/u8x8_debounce.c ****         case 'h':
 122:Core/Src/u8g2/Src/u8x8_debounce.c ****             return  U8X8_MSG_GPIO_MENU_HOME;
 123:Core/Src/u8g2/Src/u8x8_debounce.c ****         case 'x':
 124:Core/Src/u8g2/Src/u8x8_debounce.c ****             exit(0);
 125:Core/Src/u8g2/Src/u8x8_debounce.c ****         default:
 126:Core/Src/u8g2/Src/u8x8_debounce.c ****             puts("press n, p, s, h or x");
 127:Core/Src/u8g2/Src/u8x8_debounce.c ****             break;
 128:Core/Src/u8g2/Src/u8x8_debounce.c ****     }
 129:Core/Src/u8g2/Src/u8x8_debounce.c ****     return 0;
 130:Core/Src/u8g2/Src/u8x8_debounce.c **** }
 131:Core/Src/u8g2/Src/u8x8_debounce.c **** 
 132:Core/Src/u8g2/Src/u8x8_debounce.c **** 
 133:Core/Src/u8g2/Src/u8x8_debounce.c **** #else  /* __unix__ */
 134:Core/Src/u8g2/Src/u8x8_debounce.c **** 
 135:Core/Src/u8g2/Src/u8x8_debounce.c **** 
 136:Core/Src/u8g2/Src/u8x8_debounce.c **** #define U8X8_DEBOUNCE_WAIT 2
 137:Core/Src/u8g2/Src/u8x8_debounce.c **** /* do debounce and return a GPIO msg which indicates the event */
 138:Core/Src/u8g2/Src/u8x8_debounce.c **** /* returns 0, if there is no event */
 139:Core/Src/u8g2/Src/u8x8_debounce.c **** #if defined(__GNUC__) && !defined(__CYGWIN__)
 140:Core/Src/u8g2/Src/u8x8_debounce.c **** # pragma weak  u8x8_GetMenuEvent
 141:Core/Src/u8g2/Src/u8x8_debounce.c **** #endif
 142:Core/Src/u8g2/Src/u8x8_debounce.c **** uint8_t u8x8_GetMenuEvent(u8x8_t *u8x8)
 143:Core/Src/u8g2/Src/u8x8_debounce.c **** {
 173              		.loc 1 143 1 is_stmt 1 view -0
 174              		.cfi_startproc
 175              		@ args = 0, pretend = 0, frame = 0
 176              		@ frame_needed = 0, uses_anonymous_args = 0
ARM GAS  C:\Users\MOROSH~1\AppData\Local\Temp\ccAIugy3.s 			page 7


 177              		.loc 1 143 1 is_stmt 0 view .LVU50
 178 0000 10B5     		push	{r4, lr}
 179              	.LCFI1:
 180              		.cfi_def_cfa_offset 8
 181              		.cfi_offset 4, -8
 182              		.cfi_offset 14, -4
 183 0002 0446     		mov	r4, r0
 144:Core/Src/u8g2/Src/u8x8_debounce.c ****   uint8_t pin_state;
 184              		.loc 1 144 3 is_stmt 1 view .LVU51
 145:Core/Src/u8g2/Src/u8x8_debounce.c ****   uint8_t result_msg = 0;	/* invalid message, no event */
 185              		.loc 1 145 3 view .LVU52
 186              	.LVL20:
 146:Core/Src/u8g2/Src/u8x8_debounce.c ****   
 147:Core/Src/u8g2/Src/u8x8_debounce.c ****   pin_state = u8x8_read_pin_state(u8x8);
 187              		.loc 1 147 3 view .LVU53
 188              		.loc 1 147 15 is_stmt 0 view .LVU54
 189 0004 FFF7FEFF 		bl	u8x8_read_pin_state
 190              	.LVL21:
 191              		.loc 1 147 15 view .LVU55
 192 0008 0346     		mov	r3, r0
 193              	.LVL22:
 148:Core/Src/u8g2/Src/u8x8_debounce.c ****   
 149:Core/Src/u8g2/Src/u8x8_debounce.c ****   /* States A, B, C & D are encoded in the upper 4 bit*/
 150:Core/Src/u8g2/Src/u8x8_debounce.c ****   switch(u8x8->debounce_state)
 194              		.loc 1 150 3 is_stmt 1 view .LVU56
 195              		.loc 1 150 14 is_stmt 0 view .LVU57
 196 000a 94F82A00 		ldrb	r0, [r4, #42]	@ zero_extendqisi2
 197              		.loc 1 150 3 view .LVU58
 198 000e 2028     		cmp	r0, #32
 199 0010 23D0     		beq	.L9
 200 0012 0DD8     		bhi	.L10
 201 0014 A0B1     		cbz	r0, .L11
 202 0016 1028     		cmp	r0, #16
 203 0018 36D1     		bne	.L13
 151:Core/Src/u8g2/Src/u8x8_debounce.c ****   {
 152:Core/Src/u8g2/Src/u8x8_debounce.c ****     case 0x00:	/* State A, default state */
 153:Core/Src/u8g2/Src/u8x8_debounce.c ****       if ( u8x8->debounce_default_pin_state != pin_state )
 154:Core/Src/u8g2/Src/u8x8_debounce.c ****       {
 155:Core/Src/u8g2/Src/u8x8_debounce.c **** 	//u8x8->debounce_last_pin_state = pin_state;
 156:Core/Src/u8g2/Src/u8x8_debounce.c **** 	u8x8->debounce_state = 0x010 + U8X8_DEBOUNCE_WAIT;
 157:Core/Src/u8g2/Src/u8x8_debounce.c ****       }
 158:Core/Src/u8g2/Src/u8x8_debounce.c ****       break;
 159:Core/Src/u8g2/Src/u8x8_debounce.c ****     case 0x10:	/* State B */
 160:Core/Src/u8g2/Src/u8x8_debounce.c ****       //if ( u8x8->debounce_last_pin_state != pin_state )
 161:Core/Src/u8g2/Src/u8x8_debounce.c ****       if ( u8x8->debounce_default_pin_state == pin_state )
 204              		.loc 1 161 7 is_stmt 1 view .LVU59
 205              		.loc 1 161 16 is_stmt 0 view .LVU60
 206 001a 94F82820 		ldrb	r2, [r4, #40]	@ zero_extendqisi2
 207              		.loc 1 161 10 view .LVU61
 208 001e 9A42     		cmp	r2, r3
 209 0020 16D0     		beq	.L20
 162:Core/Src/u8g2/Src/u8x8_debounce.c ****       {
 163:Core/Src/u8g2/Src/u8x8_debounce.c **** 	u8x8->debounce_state = 0x00;	/* back to state A */
 164:Core/Src/u8g2/Src/u8x8_debounce.c ****       }
 165:Core/Src/u8g2/Src/u8x8_debounce.c ****       else
 166:Core/Src/u8g2/Src/u8x8_debounce.c ****       {
 167:Core/Src/u8g2/Src/u8x8_debounce.c **** 	/* keypress detected */
ARM GAS  C:\Users\MOROSH~1\AppData\Local\Temp\ccAIugy3.s 			page 8


 168:Core/Src/u8g2/Src/u8x8_debounce.c **** 	u8x8->debounce_last_pin_state = pin_state;
 210              		.loc 1 168 2 is_stmt 1 view .LVU62
 211              		.loc 1 168 32 is_stmt 0 view .LVU63
 212 0022 84F82930 		strb	r3, [r4, #41]
 169:Core/Src/u8g2/Src/u8x8_debounce.c **** 	//result_msg = U8X8_MSG_GPIO_MENU_NEXT;
 170:Core/Src/u8g2/Src/u8x8_debounce.c **** 	u8x8->debounce_state = 0x020 + U8X8_DEBOUNCE_WAIT;	/* got to state C */	
 213              		.loc 1 170 2 is_stmt 1 view .LVU64
 214              		.loc 1 170 23 is_stmt 0 view .LVU65
 215 0026 2223     		movs	r3, #34
 216              	.LVL23:
 217              		.loc 1 170 23 view .LVU66
 218 0028 84F82A30 		strb	r3, [r4, #42]
 145:Core/Src/u8g2/Src/u8x8_debounce.c ****   
 219              		.loc 1 145 11 view .LVU67
 220 002c 0020     		movs	r0, #0
 221 002e 2FE0     		b	.L15
 222              	.LVL24:
 223              	.L10:
 150:Core/Src/u8g2/Src/u8x8_debounce.c ****   {
 224              		.loc 1 150 3 view .LVU68
 225 0030 3028     		cmp	r0, #48
 226 0032 29D1     		bne	.L13
 171:Core/Src/u8g2/Src/u8x8_debounce.c ****       }
 172:Core/Src/u8g2/Src/u8x8_debounce.c ****       break;
 173:Core/Src/u8g2/Src/u8x8_debounce.c ****       
 174:Core/Src/u8g2/Src/u8x8_debounce.c ****     case 0x20:	/* State C */
 175:Core/Src/u8g2/Src/u8x8_debounce.c ****       if ( u8x8->debounce_last_pin_state != pin_state )
 176:Core/Src/u8g2/Src/u8x8_debounce.c ****       {
 177:Core/Src/u8g2/Src/u8x8_debounce.c **** 	u8x8->debounce_state = 0x00;	/* back to state A */
 178:Core/Src/u8g2/Src/u8x8_debounce.c ****       }
 179:Core/Src/u8g2/Src/u8x8_debounce.c ****       else
 180:Core/Src/u8g2/Src/u8x8_debounce.c ****       {
 181:Core/Src/u8g2/Src/u8x8_debounce.c **** 	u8x8->debounce_state = 0x030;	/* got to state D */	
 182:Core/Src/u8g2/Src/u8x8_debounce.c ****       }
 183:Core/Src/u8g2/Src/u8x8_debounce.c ****       break;
 184:Core/Src/u8g2/Src/u8x8_debounce.c ****       
 185:Core/Src/u8g2/Src/u8x8_debounce.c ****     case 0x30:	/* State D */
 186:Core/Src/u8g2/Src/u8x8_debounce.c ****       /* wait until key release */
 187:Core/Src/u8g2/Src/u8x8_debounce.c ****       if ( u8x8->debounce_default_pin_state == pin_state )
 227              		.loc 1 187 7 is_stmt 1 view .LVU69
 228              		.loc 1 187 16 is_stmt 0 view .LVU70
 229 0034 94F82800 		ldrb	r0, [r4, #40]	@ zero_extendqisi2
 230              		.loc 1 187 10 view .LVU71
 231 0038 9842     		cmp	r0, r3
 232 003a 1BD0     		beq	.L21
 145:Core/Src/u8g2/Src/u8x8_debounce.c ****   
 233              		.loc 1 145 11 view .LVU72
 234 003c 0020     		movs	r0, #0
 235 003e 27E0     		b	.L15
 236              	.L11:
 153:Core/Src/u8g2/Src/u8x8_debounce.c ****       {
 237              		.loc 1 153 7 is_stmt 1 view .LVU73
 153:Core/Src/u8g2/Src/u8x8_debounce.c ****       {
 238              		.loc 1 153 16 is_stmt 0 view .LVU74
 239 0040 94F82820 		ldrb	r2, [r4, #40]	@ zero_extendqisi2
 153:Core/Src/u8g2/Src/u8x8_debounce.c ****       {
 240              		.loc 1 153 10 view .LVU75
ARM GAS  C:\Users\MOROSH~1\AppData\Local\Temp\ccAIugy3.s 			page 9


 241 0044 9A42     		cmp	r2, r3
 242 0046 23D0     		beq	.L15
 156:Core/Src/u8g2/Src/u8x8_debounce.c ****       }
 243              		.loc 1 156 2 is_stmt 1 view .LVU76
 156:Core/Src/u8g2/Src/u8x8_debounce.c ****       }
 244              		.loc 1 156 23 is_stmt 0 view .LVU77
 245 0048 1223     		movs	r3, #18
 246              	.LVL25:
 156:Core/Src/u8g2/Src/u8x8_debounce.c ****       }
 247              		.loc 1 156 23 view .LVU78
 248 004a 84F82A30 		strb	r3, [r4, #42]
 249 004e 1FE0     		b	.L15
 250              	.LVL26:
 251              	.L20:
 163:Core/Src/u8g2/Src/u8x8_debounce.c ****       }
 252              		.loc 1 163 2 is_stmt 1 view .LVU79
 163:Core/Src/u8g2/Src/u8x8_debounce.c ****       }
 253              		.loc 1 163 23 is_stmt 0 view .LVU80
 254 0050 0023     		movs	r3, #0
 255              	.LVL27:
 163:Core/Src/u8g2/Src/u8x8_debounce.c ****       }
 256              		.loc 1 163 23 view .LVU81
 257 0052 84F82A30 		strb	r3, [r4, #42]
 145:Core/Src/u8g2/Src/u8x8_debounce.c ****   
 258              		.loc 1 145 11 view .LVU82
 259 0056 1846     		mov	r0, r3
 260 0058 1AE0     		b	.L15
 261              	.LVL28:
 262              	.L9:
 175:Core/Src/u8g2/Src/u8x8_debounce.c ****       {
 263              		.loc 1 175 7 is_stmt 1 view .LVU83
 175:Core/Src/u8g2/Src/u8x8_debounce.c ****       {
 264              		.loc 1 175 16 is_stmt 0 view .LVU84
 265 005a 94F82920 		ldrb	r2, [r4, #41]	@ zero_extendqisi2
 175:Core/Src/u8g2/Src/u8x8_debounce.c ****       {
 266              		.loc 1 175 10 view .LVU85
 267 005e 9A42     		cmp	r2, r3
 268 0060 03D0     		beq	.L17
 177:Core/Src/u8g2/Src/u8x8_debounce.c ****       }
 269              		.loc 1 177 2 is_stmt 1 view .LVU86
 177:Core/Src/u8g2/Src/u8x8_debounce.c ****       }
 270              		.loc 1 177 23 is_stmt 0 view .LVU87
 271 0062 0020     		movs	r0, #0
 272 0064 84F82A00 		strb	r0, [r4, #42]
 273 0068 12E0     		b	.L15
 274              	.L17:
 181:Core/Src/u8g2/Src/u8x8_debounce.c ****       }
 275              		.loc 1 181 2 is_stmt 1 view .LVU88
 181:Core/Src/u8g2/Src/u8x8_debounce.c ****       }
 276              		.loc 1 181 23 is_stmt 0 view .LVU89
 277 006a 3023     		movs	r3, #48
 278              	.LVL29:
 181:Core/Src/u8g2/Src/u8x8_debounce.c ****       }
 279              		.loc 1 181 23 view .LVU90
 280 006c 84F82A30 		strb	r3, [r4, #42]
 145:Core/Src/u8g2/Src/u8x8_debounce.c ****   
 281              		.loc 1 145 11 view .LVU91
ARM GAS  C:\Users\MOROSH~1\AppData\Local\Temp\ccAIugy3.s 			page 10


 282 0070 0020     		movs	r0, #0
 283 0072 0DE0     		b	.L15
 284              	.LVL30:
 285              	.L21:
 188:Core/Src/u8g2/Src/u8x8_debounce.c ****       {
 189:Core/Src/u8g2/Src/u8x8_debounce.c **** 	u8x8->debounce_state = 0x00;	/* back to state A */
 286              		.loc 1 189 2 is_stmt 1 view .LVU92
 287              		.loc 1 189 23 is_stmt 0 view .LVU93
 288 0074 0023     		movs	r3, #0
 289              	.LVL31:
 290              		.loc 1 189 23 view .LVU94
 291 0076 84F82A30 		strb	r3, [r4, #42]
 190:Core/Src/u8g2/Src/u8x8_debounce.c **** 	result_msg = U8X8_MSG_GPIO(u8x8_find_first_diff(u8x8->debounce_default_pin_state, u8x8->debounce_l
 292              		.loc 1 190 2 is_stmt 1 view .LVU95
 293              		.loc 1 190 15 is_stmt 0 view .LVU96
 294 007a 94F82910 		ldrb	r1, [r4, #41]	@ zero_extendqisi2
 295 007e FFF7FEFF 		bl	u8x8_find_first_diff
 296              	.LVL32:
 297              		.loc 1 190 13 view .LVU97
 298 0082 5030     		adds	r0, r0, #80
 299 0084 C0B2     		uxtb	r0, r0
 300              	.LVL33:
 301              		.loc 1 190 13 view .LVU98
 302 0086 03E0     		b	.L15
 303              	.LVL34:
 304              	.L13:
 191:Core/Src/u8g2/Src/u8x8_debounce.c ****       }
 192:Core/Src/u8g2/Src/u8x8_debounce.c ****       else
 193:Core/Src/u8g2/Src/u8x8_debounce.c ****       {
 194:Core/Src/u8g2/Src/u8x8_debounce.c **** 	//result_msg = U8X8_MSG_GPIO_MENU_NEXT;
 195:Core/Src/u8g2/Src/u8x8_debounce.c **** 	// maybe implement autorepeat here 
 196:Core/Src/u8g2/Src/u8x8_debounce.c ****       }
 197:Core/Src/u8g2/Src/u8x8_debounce.c ****       break;
 198:Core/Src/u8g2/Src/u8x8_debounce.c ****     default:
 199:Core/Src/u8g2/Src/u8x8_debounce.c ****       u8x8->debounce_state--;	/* count down, until there is a valid state */
 305              		.loc 1 199 7 is_stmt 1 view .LVU99
 306              		.loc 1 199 27 is_stmt 0 view .LVU100
 307 0088 431E     		subs	r3, r0, #1
 308              	.LVL35:
 309              		.loc 1 199 27 view .LVU101
 310 008a 84F82A30 		strb	r3, [r4, #42]
 200:Core/Src/u8g2/Src/u8x8_debounce.c ****       break;
 311              		.loc 1 200 7 is_stmt 1 view .LVU102
 145:Core/Src/u8g2/Src/u8x8_debounce.c ****   
 312              		.loc 1 145 11 is_stmt 0 view .LVU103
 313 008e 0020     		movs	r0, #0
 314              	.LVL36:
 315              	.L15:
 201:Core/Src/u8g2/Src/u8x8_debounce.c ****   }
 202:Core/Src/u8g2/Src/u8x8_debounce.c ****   return result_msg;
 316              		.loc 1 202 3 is_stmt 1 view .LVU104
 203:Core/Src/u8g2/Src/u8x8_debounce.c **** }
 317              		.loc 1 203 1 is_stmt 0 view .LVU105
 318 0090 10BD     		pop	{r4, pc}
 319              		.loc 1 203 1 view .LVU106
 320              		.cfi_endproc
 321              	.LFE2:
ARM GAS  C:\Users\MOROSH~1\AppData\Local\Temp\ccAIugy3.s 			page 11


 323              		.text
 324              	.Letext0:
 325              		.file 2 "c:\\program files (x86)\\gnu arm embedded toolchain\\10 2021.10\\arm-none-eabi\\include\\
 326              		.file 3 "c:\\program files (x86)\\gnu arm embedded toolchain\\10 2021.10\\arm-none-eabi\\include\\
 327              		.file 4 "Core/Src/u8g2/Inc/u8x8.h"
ARM GAS  C:\Users\MOROSH~1\AppData\Local\Temp\ccAIugy3.s 			page 12

