ARM GAS  C:\Users\MOROSH~1\AppData\Local\Temp\cceDu29x.s 			page 1


   1              		.cpu cortex-m4
   2              		.arch armv7e-m
   3              		.fpu fpv4-sp-d16
   4              		.eabi_attribute 27, 1
   5              		.eabi_attribute 28, 1
   6              		.eabi_attribute 20, 1
   7              		.eabi_attribute 21, 1
   8              		.eabi_attribute 23, 3
   9              		.eabi_attribute 24, 1
  10              		.eabi_attribute 25, 1
  11              		.eabi_attribute 26, 1
  12              		.eabi_attribute 30, 1
  13              		.eabi_attribute 34, 1
  14              		.eabi_attribute 18, 4
  15              		.file	"u8x8_cad.c"
  16              		.text
  17              	.Ltext0:
  18              		.cfi_sections	.debug_frame
  19              		.section	.text.u8x8_i2c_data_transfer,"ax",%progbits
  20              		.align	1
  21              		.syntax unified
  22              		.thumb
  23              		.thumb_func
  25              	u8x8_i2c_data_transfer:
  26              	.LVL0:
  27              	.LFB16:
  28              		.file 1 "Core/Src/u8g2/Src/u8x8_cad.c"
   1:Core/Src/u8g2/Src/u8x8_cad.c **** /*
   2:Core/Src/u8g2/Src/u8x8_cad.c ****   
   3:Core/Src/u8g2/Src/u8x8_cad.c ****   u8x8_cad.c
   4:Core/Src/u8g2/Src/u8x8_cad.c ****   
   5:Core/Src/u8g2/Src/u8x8_cad.c ****   "command arg data" interface to the graphics controller
   6:Core/Src/u8g2/Src/u8x8_cad.c **** 
   7:Core/Src/u8g2/Src/u8x8_cad.c ****   Universal 8bit Graphics Library (https://github.com/olikraus/u8g2/)
   8:Core/Src/u8g2/Src/u8x8_cad.c **** 
   9:Core/Src/u8g2/Src/u8x8_cad.c ****   Copyright (c) 2016, olikraus@gmail.com
  10:Core/Src/u8g2/Src/u8x8_cad.c ****   All rights reserved.
  11:Core/Src/u8g2/Src/u8x8_cad.c **** 
  12:Core/Src/u8g2/Src/u8x8_cad.c ****   Redistribution and use in source and binary forms, with or without modification, 
  13:Core/Src/u8g2/Src/u8x8_cad.c ****   are permitted provided that the following conditions are met:
  14:Core/Src/u8g2/Src/u8x8_cad.c **** 
  15:Core/Src/u8g2/Src/u8x8_cad.c ****   * Redistributions of source code must retain the above copyright notice, this list 
  16:Core/Src/u8g2/Src/u8x8_cad.c ****     of conditions and the following disclaimer.
  17:Core/Src/u8g2/Src/u8x8_cad.c ****     
  18:Core/Src/u8g2/Src/u8x8_cad.c ****   * Redistributions in binary form must reproduce the above copyright notice, this 
  19:Core/Src/u8g2/Src/u8x8_cad.c ****     list of conditions and the following disclaimer in the documentation and/or other 
  20:Core/Src/u8g2/Src/u8x8_cad.c ****     materials provided with the distribution.
  21:Core/Src/u8g2/Src/u8x8_cad.c **** 
  22:Core/Src/u8g2/Src/u8x8_cad.c ****   THIS SOFTWARE IS PROVIDED BY THE COPYRIGHT HOLDERS AND 
  23:Core/Src/u8g2/Src/u8x8_cad.c ****   CONTRIBUTORS "AS IS" AND ANY EXPRESS OR IMPLIED WARRANTIES, 
  24:Core/Src/u8g2/Src/u8x8_cad.c ****   INCLUDING, BUT NOT LIMITED TO, THE IMPLIED WARRANTIES OF 
  25:Core/Src/u8g2/Src/u8x8_cad.c ****   MERCHANTABILITY AND FITNESS FOR A PARTICULAR PURPOSE ARE 
  26:Core/Src/u8g2/Src/u8x8_cad.c ****   DISCLAIMED. IN NO EVENT SHALL THE COPYRIGHT HOLDER OR 
  27:Core/Src/u8g2/Src/u8x8_cad.c ****   CONTRIBUTORS BE LIABLE FOR ANY DIRECT, INDIRECT, INCIDENTAL, 
  28:Core/Src/u8g2/Src/u8x8_cad.c ****   SPECIAL, EXEMPLARY, OR CONSEQUENTIAL DAMAGES (INCLUDING, BUT 
  29:Core/Src/u8g2/Src/u8x8_cad.c ****   NOT LIMITED TO, PROCUREMENT OF SUBSTITUTE GOODS OR SERVICES; 
  30:Core/Src/u8g2/Src/u8x8_cad.c ****   LOSS OF USE, DATA, OR PROFITS; OR BUSINESS INTERRUPTION) HOWEVER 
ARM GAS  C:\Users\MOROSH~1\AppData\Local\Temp\cceDu29x.s 			page 2


  31:Core/Src/u8g2/Src/u8x8_cad.c ****   CAUSED AND ON ANY THEORY OF LIABILITY, WHETHER IN CONTRACT, 
  32:Core/Src/u8g2/Src/u8x8_cad.c ****   STRICT LIABILITY, OR TORT (INCLUDING NEGLIGENCE OR OTHERWISE) 
  33:Core/Src/u8g2/Src/u8x8_cad.c ****   ARISING IN ANY WAY OUT OF THE USE OF THIS SOFTWARE, EVEN IF 
  34:Core/Src/u8g2/Src/u8x8_cad.c ****   ADVISED OF THE POSSIBILITY OF SUCH DAMAGE.  
  35:Core/Src/u8g2/Src/u8x8_cad.c **** 
  36:Core/Src/u8g2/Src/u8x8_cad.c **** 
  37:Core/Src/u8g2/Src/u8x8_cad.c ****   The following sequence must be used for any data, which is set to the display:
  38:Core/Src/u8g2/Src/u8x8_cad.c ****   
  39:Core/Src/u8g2/Src/u8x8_cad.c ****   
  40:Core/Src/u8g2/Src/u8x8_cad.c ****   uint8_t u8x8_cad_StartTransfer(u8x8_t *u8x8)
  41:Core/Src/u8g2/Src/u8x8_cad.c **** 
  42:Core/Src/u8g2/Src/u8x8_cad.c ****   any of the following calls
  43:Core/Src/u8g2/Src/u8x8_cad.c ****     uint8_t u8x8_cad_SendCmd(u8x8_t *u8x8, uint8_t cmd)
  44:Core/Src/u8g2/Src/u8x8_cad.c ****     uint8_t u8x8_cad_SendArg(u8x8_t *u8x8, uint8_t arg)
  45:Core/Src/u8g2/Src/u8x8_cad.c ****     uint8_t u8x8_cad_SendData(u8x8_t *u8x8, uint8_t cnt, uint8_t *data)
  46:Core/Src/u8g2/Src/u8x8_cad.c ****   
  47:Core/Src/u8g2/Src/u8x8_cad.c ****   uint8_t u8x8_cad_EndTransfer(u8x8_t *u8x8)
  48:Core/Src/u8g2/Src/u8x8_cad.c **** 
  49:Core/Src/u8g2/Src/u8x8_cad.c **** 
  50:Core/Src/u8g2/Src/u8x8_cad.c **** 
  51:Core/Src/u8g2/Src/u8x8_cad.c **** */
  52:Core/Src/u8g2/Src/u8x8_cad.c **** /*
  53:Core/Src/u8g2/Src/u8x8_cad.c **** uint8_t u8x8_cad_template(u8x8_t *u8x8, uint8_t msg, uint16_t arg_int, void *arg_ptr)
  54:Core/Src/u8g2/Src/u8x8_cad.c **** {
  55:Core/Src/u8g2/Src/u8x8_cad.c ****   uint8_t i;
  56:Core/Src/u8g2/Src/u8x8_cad.c ****   
  57:Core/Src/u8g2/Src/u8x8_cad.c ****   switch(msg)
  58:Core/Src/u8g2/Src/u8x8_cad.c ****   {
  59:Core/Src/u8g2/Src/u8x8_cad.c ****     case U8X8_MSG_CAD_SEND_CMD:
  60:Core/Src/u8g2/Src/u8x8_cad.c ****       u8x8_mcd_byte_SetDC(mcd->next, 1);
  61:Core/Src/u8g2/Src/u8x8_cad.c ****       u8x8_mcd_byte_Send(mcd->next, arg_int);
  62:Core/Src/u8g2/Src/u8x8_cad.c ****       break;
  63:Core/Src/u8g2/Src/u8x8_cad.c ****     case U8X8_MSG_CAD_SEND_ARG:
  64:Core/Src/u8g2/Src/u8x8_cad.c ****       u8x8_mcd_byte_SetDC(mcd->next, 1);
  65:Core/Src/u8g2/Src/u8x8_cad.c ****       u8x8_mcd_byte_Send(mcd->next, arg_int);
  66:Core/Src/u8g2/Src/u8x8_cad.c ****       break;
  67:Core/Src/u8g2/Src/u8x8_cad.c ****     case U8X8_MSG_CAD_SEND_DATA:
  68:Core/Src/u8g2/Src/u8x8_cad.c ****       u8x8_mcd_byte_SetDC(mcd->next, 0);
  69:Core/Src/u8g2/Src/u8x8_cad.c ****       for( i = 0; i < 8; i++ )
  70:Core/Src/u8g2/Src/u8x8_cad.c **** 	u8x8_mcd_byte_Send(mcd->next, ((uint8_t *)arg_ptr)[i]);
  71:Core/Src/u8g2/Src/u8x8_cad.c ****       break;
  72:Core/Src/u8g2/Src/u8x8_cad.c ****     case U8X8_MSG_CAD_RESET:
  73:Core/Src/u8g2/Src/u8x8_cad.c ****       return mcd->next->cb(mcd->next, msg, arg_int, arg_ptr);
  74:Core/Src/u8g2/Src/u8x8_cad.c ****     case U8X8_MSG_CAD_START_TRANSFER:
  75:Core/Src/u8g2/Src/u8x8_cad.c ****       return mcd->next->cb(mcd->next, msg, arg_int, arg_ptr);
  76:Core/Src/u8g2/Src/u8x8_cad.c ****     case U8X8_MSG_CAD_END_TRANSFER:
  77:Core/Src/u8g2/Src/u8x8_cad.c ****       return mcd->next->cb(mcd->next, msg, arg_int, arg_ptr);
  78:Core/Src/u8g2/Src/u8x8_cad.c ****     default:
  79:Core/Src/u8g2/Src/u8x8_cad.c ****       break;
  80:Core/Src/u8g2/Src/u8x8_cad.c ****   }
  81:Core/Src/u8g2/Src/u8x8_cad.c ****   return 1;
  82:Core/Src/u8g2/Src/u8x8_cad.c **** }
  83:Core/Src/u8g2/Src/u8x8_cad.c **** 
  84:Core/Src/u8g2/Src/u8x8_cad.c **** */
  85:Core/Src/u8g2/Src/u8x8_cad.c **** 
  86:Core/Src/u8g2/Src/u8x8_cad.c **** #include "u8x8.h"
  87:Core/Src/u8g2/Src/u8x8_cad.c **** 
ARM GAS  C:\Users\MOROSH~1\AppData\Local\Temp\cceDu29x.s 			page 3


  88:Core/Src/u8g2/Src/u8x8_cad.c **** uint8_t u8x8_cad_SendCmd(u8x8_t *u8x8, uint8_t cmd)
  89:Core/Src/u8g2/Src/u8x8_cad.c **** {
  90:Core/Src/u8g2/Src/u8x8_cad.c ****   return u8x8->cad_cb(u8x8, U8X8_MSG_CAD_SEND_CMD, cmd, NULL);
  91:Core/Src/u8g2/Src/u8x8_cad.c **** }
  92:Core/Src/u8g2/Src/u8x8_cad.c **** 
  93:Core/Src/u8g2/Src/u8x8_cad.c **** uint8_t u8x8_cad_SendArg(u8x8_t *u8x8, uint8_t arg)
  94:Core/Src/u8g2/Src/u8x8_cad.c **** {
  95:Core/Src/u8g2/Src/u8x8_cad.c ****   return u8x8->cad_cb(u8x8, U8X8_MSG_CAD_SEND_ARG, arg, NULL);
  96:Core/Src/u8g2/Src/u8x8_cad.c **** }
  97:Core/Src/u8g2/Src/u8x8_cad.c **** 
  98:Core/Src/u8g2/Src/u8x8_cad.c **** uint8_t u8x8_cad_SendMultipleArg(u8x8_t *u8x8, uint8_t cnt, uint8_t arg)
  99:Core/Src/u8g2/Src/u8x8_cad.c **** {
 100:Core/Src/u8g2/Src/u8x8_cad.c ****   while( cnt > 0 )
 101:Core/Src/u8g2/Src/u8x8_cad.c ****   {
 102:Core/Src/u8g2/Src/u8x8_cad.c ****     u8x8->cad_cb(u8x8, U8X8_MSG_CAD_SEND_ARG, arg, NULL);
 103:Core/Src/u8g2/Src/u8x8_cad.c ****     cnt--;
 104:Core/Src/u8g2/Src/u8x8_cad.c ****   }
 105:Core/Src/u8g2/Src/u8x8_cad.c ****   return 1;
 106:Core/Src/u8g2/Src/u8x8_cad.c **** }
 107:Core/Src/u8g2/Src/u8x8_cad.c **** 
 108:Core/Src/u8g2/Src/u8x8_cad.c **** uint8_t u8x8_cad_SendData(u8x8_t *u8x8, uint8_t cnt, uint8_t *data)
 109:Core/Src/u8g2/Src/u8x8_cad.c **** {
 110:Core/Src/u8g2/Src/u8x8_cad.c ****   return u8x8->cad_cb(u8x8, U8X8_MSG_CAD_SEND_DATA, cnt, data);
 111:Core/Src/u8g2/Src/u8x8_cad.c **** }
 112:Core/Src/u8g2/Src/u8x8_cad.c **** 
 113:Core/Src/u8g2/Src/u8x8_cad.c **** uint8_t u8x8_cad_StartTransfer(u8x8_t *u8x8)
 114:Core/Src/u8g2/Src/u8x8_cad.c **** {
 115:Core/Src/u8g2/Src/u8x8_cad.c ****   return u8x8->cad_cb(u8x8, U8X8_MSG_CAD_START_TRANSFER, 0, NULL);
 116:Core/Src/u8g2/Src/u8x8_cad.c **** }
 117:Core/Src/u8g2/Src/u8x8_cad.c **** 
 118:Core/Src/u8g2/Src/u8x8_cad.c **** uint8_t u8x8_cad_EndTransfer(u8x8_t *u8x8)
 119:Core/Src/u8g2/Src/u8x8_cad.c **** {
 120:Core/Src/u8g2/Src/u8x8_cad.c ****   return u8x8->cad_cb(u8x8, U8X8_MSG_CAD_END_TRANSFER, 0, NULL);
 121:Core/Src/u8g2/Src/u8x8_cad.c **** }
 122:Core/Src/u8g2/Src/u8x8_cad.c **** 
 123:Core/Src/u8g2/Src/u8x8_cad.c **** void u8x8_cad_vsendf(u8x8_t * u8x8, const char *fmt, va_list va)
 124:Core/Src/u8g2/Src/u8x8_cad.c **** {
 125:Core/Src/u8g2/Src/u8x8_cad.c ****   uint8_t d;
 126:Core/Src/u8g2/Src/u8x8_cad.c ****   u8x8_cad_StartTransfer(u8x8);
 127:Core/Src/u8g2/Src/u8x8_cad.c ****   while( *fmt != '\0' )
 128:Core/Src/u8g2/Src/u8x8_cad.c ****   {
 129:Core/Src/u8g2/Src/u8x8_cad.c ****     d = (uint8_t)va_arg(va, int);
 130:Core/Src/u8g2/Src/u8x8_cad.c ****     switch(*fmt)
 131:Core/Src/u8g2/Src/u8x8_cad.c ****     {
 132:Core/Src/u8g2/Src/u8x8_cad.c ****       case 'a':  u8x8_cad_SendArg(u8x8, d); break;
 133:Core/Src/u8g2/Src/u8x8_cad.c ****       case 'c':  u8x8_cad_SendCmd(u8x8, d); break;
 134:Core/Src/u8g2/Src/u8x8_cad.c ****       case 'd':  u8x8_cad_SendData(u8x8, 1, &d); break;
 135:Core/Src/u8g2/Src/u8x8_cad.c ****     }
 136:Core/Src/u8g2/Src/u8x8_cad.c ****     fmt++;
 137:Core/Src/u8g2/Src/u8x8_cad.c ****   }
 138:Core/Src/u8g2/Src/u8x8_cad.c ****   u8x8_cad_EndTransfer(u8x8);
 139:Core/Src/u8g2/Src/u8x8_cad.c **** }
 140:Core/Src/u8g2/Src/u8x8_cad.c **** 
 141:Core/Src/u8g2/Src/u8x8_cad.c **** void u8x8_SendF(u8x8_t * u8x8, const char *fmt, ...)
 142:Core/Src/u8g2/Src/u8x8_cad.c **** {
 143:Core/Src/u8g2/Src/u8x8_cad.c ****   va_list va;
 144:Core/Src/u8g2/Src/u8x8_cad.c ****   va_start(va, fmt);
ARM GAS  C:\Users\MOROSH~1\AppData\Local\Temp\cceDu29x.s 			page 4


 145:Core/Src/u8g2/Src/u8x8_cad.c ****   u8x8_cad_vsendf(u8x8, fmt, va);
 146:Core/Src/u8g2/Src/u8x8_cad.c ****   va_end(va);
 147:Core/Src/u8g2/Src/u8x8_cad.c **** }
 148:Core/Src/u8g2/Src/u8x8_cad.c **** 
 149:Core/Src/u8g2/Src/u8x8_cad.c **** /*
 150:Core/Src/u8g2/Src/u8x8_cad.c ****   21 c		send command c
 151:Core/Src/u8g2/Src/u8x8_cad.c ****   22 a		send arg a
 152:Core/Src/u8g2/Src/u8x8_cad.c ****   23 d		send data d
 153:Core/Src/u8g2/Src/u8x8_cad.c ****   24			CS on
 154:Core/Src/u8g2/Src/u8x8_cad.c ****   25			CS off
 155:Core/Src/u8g2/Src/u8x8_cad.c ****   254 milli	delay by milliseconds
 156:Core/Src/u8g2/Src/u8x8_cad.c ****   255		end of sequence
 157:Core/Src/u8g2/Src/u8x8_cad.c **** */
 158:Core/Src/u8g2/Src/u8x8_cad.c **** 
 159:Core/Src/u8g2/Src/u8x8_cad.c **** void u8x8_cad_SendSequence(u8x8_t *u8x8, uint8_t const *data)
 160:Core/Src/u8g2/Src/u8x8_cad.c **** {
 161:Core/Src/u8g2/Src/u8x8_cad.c ****   uint8_t cmd;
 162:Core/Src/u8g2/Src/u8x8_cad.c ****   uint8_t v;
 163:Core/Src/u8g2/Src/u8x8_cad.c **** 
 164:Core/Src/u8g2/Src/u8x8_cad.c ****   for(;;)
 165:Core/Src/u8g2/Src/u8x8_cad.c ****   {
 166:Core/Src/u8g2/Src/u8x8_cad.c ****     cmd = *data;
 167:Core/Src/u8g2/Src/u8x8_cad.c ****     data++;
 168:Core/Src/u8g2/Src/u8x8_cad.c ****     switch( cmd )
 169:Core/Src/u8g2/Src/u8x8_cad.c ****     {
 170:Core/Src/u8g2/Src/u8x8_cad.c ****       case U8X8_MSG_CAD_SEND_CMD:
 171:Core/Src/u8g2/Src/u8x8_cad.c ****       case U8X8_MSG_CAD_SEND_ARG:
 172:Core/Src/u8g2/Src/u8x8_cad.c **** 	  v = *data;
 173:Core/Src/u8g2/Src/u8x8_cad.c **** 	  u8x8->cad_cb(u8x8, cmd, v, NULL);
 174:Core/Src/u8g2/Src/u8x8_cad.c **** 	  data++;
 175:Core/Src/u8g2/Src/u8x8_cad.c **** 	  break;
 176:Core/Src/u8g2/Src/u8x8_cad.c ****       case U8X8_MSG_CAD_SEND_DATA:
 177:Core/Src/u8g2/Src/u8x8_cad.c **** 	  v = *data;
 178:Core/Src/u8g2/Src/u8x8_cad.c **** 	  u8x8_cad_SendData(u8x8, 1, &v);
 179:Core/Src/u8g2/Src/u8x8_cad.c **** 	  data++;
 180:Core/Src/u8g2/Src/u8x8_cad.c **** 	  break;
 181:Core/Src/u8g2/Src/u8x8_cad.c ****       case U8X8_MSG_CAD_START_TRANSFER:
 182:Core/Src/u8g2/Src/u8x8_cad.c ****       case U8X8_MSG_CAD_END_TRANSFER:
 183:Core/Src/u8g2/Src/u8x8_cad.c **** 	  u8x8->cad_cb(u8x8, cmd, 0, NULL);
 184:Core/Src/u8g2/Src/u8x8_cad.c **** 	  break;
 185:Core/Src/u8g2/Src/u8x8_cad.c ****       case 0x0fe:
 186:Core/Src/u8g2/Src/u8x8_cad.c **** 	  v = *data;
 187:Core/Src/u8g2/Src/u8x8_cad.c **** 	  u8x8_gpio_Delay(u8x8, U8X8_MSG_DELAY_MILLI, v);	    
 188:Core/Src/u8g2/Src/u8x8_cad.c **** 	  data++;
 189:Core/Src/u8g2/Src/u8x8_cad.c **** 	  break;
 190:Core/Src/u8g2/Src/u8x8_cad.c ****       default:
 191:Core/Src/u8g2/Src/u8x8_cad.c **** 	return;
 192:Core/Src/u8g2/Src/u8x8_cad.c ****     }
 193:Core/Src/u8g2/Src/u8x8_cad.c ****   }
 194:Core/Src/u8g2/Src/u8x8_cad.c **** }
 195:Core/Src/u8g2/Src/u8x8_cad.c **** 
 196:Core/Src/u8g2/Src/u8x8_cad.c **** 
 197:Core/Src/u8g2/Src/u8x8_cad.c **** uint8_t u8x8_cad_empty(u8x8_t *u8x8, uint8_t msg, uint8_t arg_int, void *arg_ptr)
 198:Core/Src/u8g2/Src/u8x8_cad.c **** {
 199:Core/Src/u8g2/Src/u8x8_cad.c ****   switch(msg)
 200:Core/Src/u8g2/Src/u8x8_cad.c ****   {
 201:Core/Src/u8g2/Src/u8x8_cad.c ****     case U8X8_MSG_CAD_SEND_CMD:
ARM GAS  C:\Users\MOROSH~1\AppData\Local\Temp\cceDu29x.s 			page 5


 202:Core/Src/u8g2/Src/u8x8_cad.c ****       u8x8_byte_SendByte(u8x8, arg_int);
 203:Core/Src/u8g2/Src/u8x8_cad.c ****       break;
 204:Core/Src/u8g2/Src/u8x8_cad.c ****     case U8X8_MSG_CAD_SEND_ARG:
 205:Core/Src/u8g2/Src/u8x8_cad.c ****       u8x8_byte_SendByte(u8x8, arg_int);
 206:Core/Src/u8g2/Src/u8x8_cad.c ****       break;
 207:Core/Src/u8g2/Src/u8x8_cad.c ****     case U8X8_MSG_CAD_SEND_DATA:
 208:Core/Src/u8g2/Src/u8x8_cad.c ****     case U8X8_MSG_CAD_INIT:
 209:Core/Src/u8g2/Src/u8x8_cad.c ****     case U8X8_MSG_CAD_START_TRANSFER:
 210:Core/Src/u8g2/Src/u8x8_cad.c ****     case U8X8_MSG_CAD_END_TRANSFER:
 211:Core/Src/u8g2/Src/u8x8_cad.c ****       return u8x8->byte_cb(u8x8, msg, arg_int, arg_ptr);
 212:Core/Src/u8g2/Src/u8x8_cad.c ****     default:
 213:Core/Src/u8g2/Src/u8x8_cad.c ****       return 0;
 214:Core/Src/u8g2/Src/u8x8_cad.c ****   }
 215:Core/Src/u8g2/Src/u8x8_cad.c ****   return 1;
 216:Core/Src/u8g2/Src/u8x8_cad.c **** }
 217:Core/Src/u8g2/Src/u8x8_cad.c **** 
 218:Core/Src/u8g2/Src/u8x8_cad.c **** 
 219:Core/Src/u8g2/Src/u8x8_cad.c **** /*
 220:Core/Src/u8g2/Src/u8x8_cad.c ****   convert to bytes by using 
 221:Core/Src/u8g2/Src/u8x8_cad.c ****     dc = 1 for commands and args and
 222:Core/Src/u8g2/Src/u8x8_cad.c ****     dc = 0 for data
 223:Core/Src/u8g2/Src/u8x8_cad.c **** */
 224:Core/Src/u8g2/Src/u8x8_cad.c **** uint8_t u8x8_cad_110(u8x8_t *u8x8, uint8_t msg, uint8_t arg_int, void *arg_ptr)
 225:Core/Src/u8g2/Src/u8x8_cad.c **** {
 226:Core/Src/u8g2/Src/u8x8_cad.c ****   switch(msg)
 227:Core/Src/u8g2/Src/u8x8_cad.c ****   {
 228:Core/Src/u8g2/Src/u8x8_cad.c ****     case U8X8_MSG_CAD_SEND_CMD:
 229:Core/Src/u8g2/Src/u8x8_cad.c ****       u8x8_byte_SetDC(u8x8, 1);
 230:Core/Src/u8g2/Src/u8x8_cad.c ****       u8x8_byte_SendByte(u8x8, arg_int);
 231:Core/Src/u8g2/Src/u8x8_cad.c ****       break;
 232:Core/Src/u8g2/Src/u8x8_cad.c ****     case U8X8_MSG_CAD_SEND_ARG:
 233:Core/Src/u8g2/Src/u8x8_cad.c ****       u8x8_byte_SetDC(u8x8, 1);
 234:Core/Src/u8g2/Src/u8x8_cad.c ****       u8x8_byte_SendByte(u8x8, arg_int);
 235:Core/Src/u8g2/Src/u8x8_cad.c ****       break;
 236:Core/Src/u8g2/Src/u8x8_cad.c ****     case U8X8_MSG_CAD_SEND_DATA:
 237:Core/Src/u8g2/Src/u8x8_cad.c ****       u8x8_byte_SetDC(u8x8, 0);
 238:Core/Src/u8g2/Src/u8x8_cad.c ****       //u8x8_byte_SendBytes(u8x8, arg_int, arg_ptr);
 239:Core/Src/u8g2/Src/u8x8_cad.c ****       //break;
 240:Core/Src/u8g2/Src/u8x8_cad.c ****       /* fall through */
 241:Core/Src/u8g2/Src/u8x8_cad.c ****     case U8X8_MSG_CAD_INIT:
 242:Core/Src/u8g2/Src/u8x8_cad.c ****     case U8X8_MSG_CAD_START_TRANSFER:
 243:Core/Src/u8g2/Src/u8x8_cad.c ****     case U8X8_MSG_CAD_END_TRANSFER:
 244:Core/Src/u8g2/Src/u8x8_cad.c ****       return u8x8->byte_cb(u8x8, msg, arg_int, arg_ptr);
 245:Core/Src/u8g2/Src/u8x8_cad.c ****     default:
 246:Core/Src/u8g2/Src/u8x8_cad.c ****       return 0;
 247:Core/Src/u8g2/Src/u8x8_cad.c ****   }
 248:Core/Src/u8g2/Src/u8x8_cad.c ****   return 1;
 249:Core/Src/u8g2/Src/u8x8_cad.c **** }
 250:Core/Src/u8g2/Src/u8x8_cad.c **** 
 251:Core/Src/u8g2/Src/u8x8_cad.c **** /*
 252:Core/Src/u8g2/Src/u8x8_cad.c ****   convert to bytes by using 
 253:Core/Src/u8g2/Src/u8x8_cad.c ****     dc = 1 for commands and args and
 254:Core/Src/u8g2/Src/u8x8_cad.c ****     dc = 0 for data
 255:Core/Src/u8g2/Src/u8x8_cad.c **** */
 256:Core/Src/u8g2/Src/u8x8_cad.c **** uint8_t u8x8_gu800_cad_110(u8x8_t *u8x8, uint8_t msg, uint8_t arg_int, void *arg_ptr)
 257:Core/Src/u8g2/Src/u8x8_cad.c **** {
 258:Core/Src/u8g2/Src/u8x8_cad.c ****   uint8_t *data;
ARM GAS  C:\Users\MOROSH~1\AppData\Local\Temp\cceDu29x.s 			page 6


 259:Core/Src/u8g2/Src/u8x8_cad.c ****   switch(msg)
 260:Core/Src/u8g2/Src/u8x8_cad.c ****   {
 261:Core/Src/u8g2/Src/u8x8_cad.c ****     case U8X8_MSG_CAD_SEND_CMD:
 262:Core/Src/u8g2/Src/u8x8_cad.c ****       u8x8_byte_SetDC(u8x8, 1);
 263:Core/Src/u8g2/Src/u8x8_cad.c ****       u8x8_byte_StartTransfer(u8x8);
 264:Core/Src/u8g2/Src/u8x8_cad.c ****       u8x8_byte_SendByte(u8x8, arg_int);
 265:Core/Src/u8g2/Src/u8x8_cad.c ****       u8x8_byte_EndTransfer(u8x8);
 266:Core/Src/u8g2/Src/u8x8_cad.c ****       break;
 267:Core/Src/u8g2/Src/u8x8_cad.c ****     case U8X8_MSG_CAD_SEND_ARG:
 268:Core/Src/u8g2/Src/u8x8_cad.c ****       u8x8_byte_SetDC(u8x8, 1);
 269:Core/Src/u8g2/Src/u8x8_cad.c ****       u8x8_byte_StartTransfer(u8x8);
 270:Core/Src/u8g2/Src/u8x8_cad.c ****       u8x8_byte_SendByte(u8x8, arg_int);
 271:Core/Src/u8g2/Src/u8x8_cad.c ****       u8x8_byte_EndTransfer(u8x8);
 272:Core/Src/u8g2/Src/u8x8_cad.c ****       break;
 273:Core/Src/u8g2/Src/u8x8_cad.c ****     case U8X8_MSG_CAD_SEND_DATA:
 274:Core/Src/u8g2/Src/u8x8_cad.c ****       u8x8_byte_SetDC(u8x8, 0);
 275:Core/Src/u8g2/Src/u8x8_cad.c ****       data = (uint8_t *)arg_ptr;
 276:Core/Src/u8g2/Src/u8x8_cad.c ****       while( arg_int > 0 )
 277:Core/Src/u8g2/Src/u8x8_cad.c ****       {
 278:Core/Src/u8g2/Src/u8x8_cad.c ****         u8x8_byte_StartTransfer(u8x8);
 279:Core/Src/u8g2/Src/u8x8_cad.c ****         u8x8_byte_SendByte(u8x8, *data);
 280:Core/Src/u8g2/Src/u8x8_cad.c ****         u8x8_byte_EndTransfer(u8x8);
 281:Core/Src/u8g2/Src/u8x8_cad.c ****         data++;
 282:Core/Src/u8g2/Src/u8x8_cad.c ****         arg_int--;
 283:Core/Src/u8g2/Src/u8x8_cad.c ****       }
 284:Core/Src/u8g2/Src/u8x8_cad.c ****       break;
 285:Core/Src/u8g2/Src/u8x8_cad.c ****     case U8X8_MSG_CAD_INIT:
 286:Core/Src/u8g2/Src/u8x8_cad.c ****       u8x8->byte_cb(u8x8, msg, arg_int, arg_ptr);
 287:Core/Src/u8g2/Src/u8x8_cad.c ****       break;
 288:Core/Src/u8g2/Src/u8x8_cad.c ****     case U8X8_MSG_CAD_START_TRANSFER:
 289:Core/Src/u8g2/Src/u8x8_cad.c ****     case U8X8_MSG_CAD_END_TRANSFER:
 290:Core/Src/u8g2/Src/u8x8_cad.c ****       break;
 291:Core/Src/u8g2/Src/u8x8_cad.c ****     default:
 292:Core/Src/u8g2/Src/u8x8_cad.c ****       return 0;
 293:Core/Src/u8g2/Src/u8x8_cad.c ****   }
 294:Core/Src/u8g2/Src/u8x8_cad.c ****   return 1;
 295:Core/Src/u8g2/Src/u8x8_cad.c **** }
 296:Core/Src/u8g2/Src/u8x8_cad.c **** 
 297:Core/Src/u8g2/Src/u8x8_cad.c **** /*
 298:Core/Src/u8g2/Src/u8x8_cad.c ****   convert to bytes by using 
 299:Core/Src/u8g2/Src/u8x8_cad.c ****     dc = 1 for commands and args and
 300:Core/Src/u8g2/Src/u8x8_cad.c ****     dc = 0 for data
 301:Core/Src/u8g2/Src/u8x8_cad.c ****     t6963
 302:Core/Src/u8g2/Src/u8x8_cad.c **** */
 303:Core/Src/u8g2/Src/u8x8_cad.c **** uint8_t u8x8_cad_100(u8x8_t *u8x8, uint8_t msg, uint8_t arg_int, void *arg_ptr)
 304:Core/Src/u8g2/Src/u8x8_cad.c **** {
 305:Core/Src/u8g2/Src/u8x8_cad.c ****   switch(msg)
 306:Core/Src/u8g2/Src/u8x8_cad.c ****   {
 307:Core/Src/u8g2/Src/u8x8_cad.c ****     case U8X8_MSG_CAD_SEND_CMD:
 308:Core/Src/u8g2/Src/u8x8_cad.c ****       u8x8_byte_SetDC(u8x8, 1);
 309:Core/Src/u8g2/Src/u8x8_cad.c ****       u8x8_byte_SendByte(u8x8, arg_int);
 310:Core/Src/u8g2/Src/u8x8_cad.c ****       break;
 311:Core/Src/u8g2/Src/u8x8_cad.c ****     case U8X8_MSG_CAD_SEND_ARG:
 312:Core/Src/u8g2/Src/u8x8_cad.c ****       u8x8_byte_SetDC(u8x8, 0);
 313:Core/Src/u8g2/Src/u8x8_cad.c ****       u8x8_byte_SendByte(u8x8, arg_int);
 314:Core/Src/u8g2/Src/u8x8_cad.c ****       break;
 315:Core/Src/u8g2/Src/u8x8_cad.c ****     case U8X8_MSG_CAD_SEND_DATA:
ARM GAS  C:\Users\MOROSH~1\AppData\Local\Temp\cceDu29x.s 			page 7


 316:Core/Src/u8g2/Src/u8x8_cad.c ****       u8x8_byte_SetDC(u8x8, 0);
 317:Core/Src/u8g2/Src/u8x8_cad.c ****       //u8x8_byte_SendBytes(u8x8, arg_int, arg_ptr);
 318:Core/Src/u8g2/Src/u8x8_cad.c ****       //break;
 319:Core/Src/u8g2/Src/u8x8_cad.c ****       /* fall through */
 320:Core/Src/u8g2/Src/u8x8_cad.c ****     case U8X8_MSG_CAD_INIT:
 321:Core/Src/u8g2/Src/u8x8_cad.c ****     case U8X8_MSG_CAD_START_TRANSFER:
 322:Core/Src/u8g2/Src/u8x8_cad.c ****     case U8X8_MSG_CAD_END_TRANSFER:
 323:Core/Src/u8g2/Src/u8x8_cad.c ****       return u8x8->byte_cb(u8x8, msg, arg_int, arg_ptr);
 324:Core/Src/u8g2/Src/u8x8_cad.c ****     default:
 325:Core/Src/u8g2/Src/u8x8_cad.c ****       return 0;
 326:Core/Src/u8g2/Src/u8x8_cad.c ****   }
 327:Core/Src/u8g2/Src/u8x8_cad.c ****   return 1;
 328:Core/Src/u8g2/Src/u8x8_cad.c **** }
 329:Core/Src/u8g2/Src/u8x8_cad.c **** 
 330:Core/Src/u8g2/Src/u8x8_cad.c **** /*
 331:Core/Src/u8g2/Src/u8x8_cad.c ****   convert to bytes by using 
 332:Core/Src/u8g2/Src/u8x8_cad.c ****     dc = 0 for commands and args and
 333:Core/Src/u8g2/Src/u8x8_cad.c ****     dc = 1 for data
 334:Core/Src/u8g2/Src/u8x8_cad.c **** */
 335:Core/Src/u8g2/Src/u8x8_cad.c **** uint8_t u8x8_cad_001(u8x8_t *u8x8, uint8_t msg, uint8_t arg_int, void *arg_ptr)
 336:Core/Src/u8g2/Src/u8x8_cad.c **** {
 337:Core/Src/u8g2/Src/u8x8_cad.c ****   switch(msg)
 338:Core/Src/u8g2/Src/u8x8_cad.c ****   {
 339:Core/Src/u8g2/Src/u8x8_cad.c ****     case U8X8_MSG_CAD_SEND_CMD:
 340:Core/Src/u8g2/Src/u8x8_cad.c ****       u8x8_byte_SetDC(u8x8, 0);
 341:Core/Src/u8g2/Src/u8x8_cad.c ****       u8x8_byte_SendByte(u8x8, arg_int);
 342:Core/Src/u8g2/Src/u8x8_cad.c ****       break;
 343:Core/Src/u8g2/Src/u8x8_cad.c ****     case U8X8_MSG_CAD_SEND_ARG:
 344:Core/Src/u8g2/Src/u8x8_cad.c ****       u8x8_byte_SetDC(u8x8, 0);
 345:Core/Src/u8g2/Src/u8x8_cad.c ****       u8x8_byte_SendByte(u8x8, arg_int);
 346:Core/Src/u8g2/Src/u8x8_cad.c ****       break;
 347:Core/Src/u8g2/Src/u8x8_cad.c ****     case U8X8_MSG_CAD_SEND_DATA:
 348:Core/Src/u8g2/Src/u8x8_cad.c ****       u8x8_byte_SetDC(u8x8, 1);
 349:Core/Src/u8g2/Src/u8x8_cad.c ****       //u8x8_byte_SendBytes(u8x8, arg_int, arg_ptr);
 350:Core/Src/u8g2/Src/u8x8_cad.c ****       //break;
 351:Core/Src/u8g2/Src/u8x8_cad.c ****       /* fall through */
 352:Core/Src/u8g2/Src/u8x8_cad.c ****     case U8X8_MSG_CAD_INIT:
 353:Core/Src/u8g2/Src/u8x8_cad.c ****     case U8X8_MSG_CAD_START_TRANSFER:
 354:Core/Src/u8g2/Src/u8x8_cad.c ****     case U8X8_MSG_CAD_END_TRANSFER:
 355:Core/Src/u8g2/Src/u8x8_cad.c ****       return u8x8->byte_cb(u8x8, msg, arg_int, arg_ptr);
 356:Core/Src/u8g2/Src/u8x8_cad.c ****     default:
 357:Core/Src/u8g2/Src/u8x8_cad.c ****       return 0;
 358:Core/Src/u8g2/Src/u8x8_cad.c ****   }
 359:Core/Src/u8g2/Src/u8x8_cad.c ****   return 1;
 360:Core/Src/u8g2/Src/u8x8_cad.c **** }
 361:Core/Src/u8g2/Src/u8x8_cad.c **** 
 362:Core/Src/u8g2/Src/u8x8_cad.c **** /*
 363:Core/Src/u8g2/Src/u8x8_cad.c ****   convert to bytes by using 
 364:Core/Src/u8g2/Src/u8x8_cad.c ****     dc = 0 for commands 
 365:Core/Src/u8g2/Src/u8x8_cad.c ****     dc = 1 for args and data
 366:Core/Src/u8g2/Src/u8x8_cad.c **** */
 367:Core/Src/u8g2/Src/u8x8_cad.c **** uint8_t u8x8_cad_011(u8x8_t *u8x8, uint8_t msg, uint8_t arg_int, void *arg_ptr)
 368:Core/Src/u8g2/Src/u8x8_cad.c **** {
 369:Core/Src/u8g2/Src/u8x8_cad.c ****   switch(msg)
 370:Core/Src/u8g2/Src/u8x8_cad.c ****   {
 371:Core/Src/u8g2/Src/u8x8_cad.c ****     case U8X8_MSG_CAD_SEND_CMD:
 372:Core/Src/u8g2/Src/u8x8_cad.c ****       u8x8_byte_SetDC(u8x8, 0);
ARM GAS  C:\Users\MOROSH~1\AppData\Local\Temp\cceDu29x.s 			page 8


 373:Core/Src/u8g2/Src/u8x8_cad.c ****       u8x8_byte_SendByte(u8x8, arg_int);
 374:Core/Src/u8g2/Src/u8x8_cad.c ****       break;
 375:Core/Src/u8g2/Src/u8x8_cad.c ****     case U8X8_MSG_CAD_SEND_ARG:
 376:Core/Src/u8g2/Src/u8x8_cad.c ****       u8x8_byte_SetDC(u8x8, 1);
 377:Core/Src/u8g2/Src/u8x8_cad.c ****       u8x8_byte_SendByte(u8x8, arg_int);
 378:Core/Src/u8g2/Src/u8x8_cad.c ****       break;
 379:Core/Src/u8g2/Src/u8x8_cad.c ****     case U8X8_MSG_CAD_SEND_DATA:
 380:Core/Src/u8g2/Src/u8x8_cad.c ****       u8x8_byte_SetDC(u8x8, 1);
 381:Core/Src/u8g2/Src/u8x8_cad.c ****       //u8x8_byte_SendBytes(u8x8, arg_int, arg_ptr);
 382:Core/Src/u8g2/Src/u8x8_cad.c ****       //break;
 383:Core/Src/u8g2/Src/u8x8_cad.c ****       /* fall through */
 384:Core/Src/u8g2/Src/u8x8_cad.c ****     case U8X8_MSG_CAD_INIT:
 385:Core/Src/u8g2/Src/u8x8_cad.c ****     case U8X8_MSG_CAD_START_TRANSFER:
 386:Core/Src/u8g2/Src/u8x8_cad.c ****     case U8X8_MSG_CAD_END_TRANSFER:
 387:Core/Src/u8g2/Src/u8x8_cad.c ****       return u8x8->byte_cb(u8x8, msg, arg_int, arg_ptr);
 388:Core/Src/u8g2/Src/u8x8_cad.c ****     default:
 389:Core/Src/u8g2/Src/u8x8_cad.c ****       return 0;
 390:Core/Src/u8g2/Src/u8x8_cad.c ****   }
 391:Core/Src/u8g2/Src/u8x8_cad.c ****   return 1;
 392:Core/Src/u8g2/Src/u8x8_cad.c **** }
 393:Core/Src/u8g2/Src/u8x8_cad.c **** 
 394:Core/Src/u8g2/Src/u8x8_cad.c **** /* cad procedure for the ST7920 in SPI mode */
 395:Core/Src/u8g2/Src/u8x8_cad.c **** /* u8x8_byte_SetDC is not used */
 396:Core/Src/u8g2/Src/u8x8_cad.c **** uint8_t u8x8_cad_st7920_spi(u8x8_t *u8x8, uint8_t msg, uint8_t arg_int, void *arg_ptr)
 397:Core/Src/u8g2/Src/u8x8_cad.c **** {
 398:Core/Src/u8g2/Src/u8x8_cad.c ****   uint8_t *data;
 399:Core/Src/u8g2/Src/u8x8_cad.c ****   uint8_t b;
 400:Core/Src/u8g2/Src/u8x8_cad.c ****   uint8_t i;
 401:Core/Src/u8g2/Src/u8x8_cad.c ****   static uint8_t buf[16];
 402:Core/Src/u8g2/Src/u8x8_cad.c ****   uint8_t *ptr;
 403:Core/Src/u8g2/Src/u8x8_cad.c ****   
 404:Core/Src/u8g2/Src/u8x8_cad.c ****   switch(msg)
 405:Core/Src/u8g2/Src/u8x8_cad.c ****   {
 406:Core/Src/u8g2/Src/u8x8_cad.c ****     case U8X8_MSG_CAD_SEND_CMD:
 407:Core/Src/u8g2/Src/u8x8_cad.c ****       u8x8_byte_SendByte(u8x8, 0x0f8);
 408:Core/Src/u8g2/Src/u8x8_cad.c ****       u8x8_gpio_Delay(u8x8, U8X8_MSG_DELAY_NANO, 1);
 409:Core/Src/u8g2/Src/u8x8_cad.c ****       u8x8_byte_SendByte(u8x8, arg_int & 0x0f0);
 410:Core/Src/u8g2/Src/u8x8_cad.c ****       u8x8_gpio_Delay(u8x8, U8X8_MSG_DELAY_NANO, 1);
 411:Core/Src/u8g2/Src/u8x8_cad.c ****       u8x8_byte_SendByte(u8x8, arg_int << 4);
 412:Core/Src/u8g2/Src/u8x8_cad.c ****       u8x8_gpio_Delay(u8x8, U8X8_MSG_DELAY_NANO, 1);
 413:Core/Src/u8g2/Src/u8x8_cad.c ****       break;
 414:Core/Src/u8g2/Src/u8x8_cad.c ****     case U8X8_MSG_CAD_SEND_ARG:
 415:Core/Src/u8g2/Src/u8x8_cad.c ****       u8x8_byte_SendByte(u8x8, 0x0f8);
 416:Core/Src/u8g2/Src/u8x8_cad.c ****       u8x8_byte_SendByte(u8x8, arg_int & 0x0f0);
 417:Core/Src/u8g2/Src/u8x8_cad.c ****       u8x8_byte_SendByte(u8x8, arg_int << 4);
 418:Core/Src/u8g2/Src/u8x8_cad.c ****       break;
 419:Core/Src/u8g2/Src/u8x8_cad.c ****     case U8X8_MSG_CAD_SEND_DATA:
 420:Core/Src/u8g2/Src/u8x8_cad.c ****     
 421:Core/Src/u8g2/Src/u8x8_cad.c ****       u8x8_byte_SendByte(u8x8, 0x0fa);
 422:Core/Src/u8g2/Src/u8x8_cad.c ****       u8x8_gpio_Delay(u8x8, U8X8_MSG_DELAY_NANO, 1);
 423:Core/Src/u8g2/Src/u8x8_cad.c **** 
 424:Core/Src/u8g2/Src/u8x8_cad.c ****       /* this loop should be optimized: multiple bytes should be sent */
 425:Core/Src/u8g2/Src/u8x8_cad.c ****       /* u8x8_byte_SendBytes(u8x8, arg_int, arg_ptr); */
 426:Core/Src/u8g2/Src/u8x8_cad.c ****       data = (uint8_t *)arg_ptr;
 427:Core/Src/u8g2/Src/u8x8_cad.c ****     
 428:Core/Src/u8g2/Src/u8x8_cad.c ****       /* the following loop increases speed by 20% */
 429:Core/Src/u8g2/Src/u8x8_cad.c ****       while( arg_int >= 8 )
ARM GAS  C:\Users\MOROSH~1\AppData\Local\Temp\cceDu29x.s 			page 9


 430:Core/Src/u8g2/Src/u8x8_cad.c ****       {
 431:Core/Src/u8g2/Src/u8x8_cad.c **** 	i = 8;
 432:Core/Src/u8g2/Src/u8x8_cad.c **** 	ptr = buf;
 433:Core/Src/u8g2/Src/u8x8_cad.c **** 	do
 434:Core/Src/u8g2/Src/u8x8_cad.c **** 	{
 435:Core/Src/u8g2/Src/u8x8_cad.c **** 	  b = *data++;
 436:Core/Src/u8g2/Src/u8x8_cad.c **** 	  *ptr++= b & 0x0f0;
 437:Core/Src/u8g2/Src/u8x8_cad.c **** 	  b <<= 4;
 438:Core/Src/u8g2/Src/u8x8_cad.c **** 	  *ptr++= b;
 439:Core/Src/u8g2/Src/u8x8_cad.c **** 	  i--;
 440:Core/Src/u8g2/Src/u8x8_cad.c **** 	} while( i > 0 );
 441:Core/Src/u8g2/Src/u8x8_cad.c **** 	arg_int -= 8;
 442:Core/Src/u8g2/Src/u8x8_cad.c **** 	u8x8_byte_SendBytes(u8x8, 16, buf); 
 443:Core/Src/u8g2/Src/u8x8_cad.c ****       }
 444:Core/Src/u8g2/Src/u8x8_cad.c ****       
 445:Core/Src/u8g2/Src/u8x8_cad.c ****     
 446:Core/Src/u8g2/Src/u8x8_cad.c ****       while( arg_int > 0 )
 447:Core/Src/u8g2/Src/u8x8_cad.c ****       {
 448:Core/Src/u8g2/Src/u8x8_cad.c **** 	b = *data;
 449:Core/Src/u8g2/Src/u8x8_cad.c **** 	u8x8_byte_SendByte(u8x8, b & 0x0f0);
 450:Core/Src/u8g2/Src/u8x8_cad.c **** 	u8x8_byte_SendByte(u8x8, b << 4);
 451:Core/Src/u8g2/Src/u8x8_cad.c **** 	data++;
 452:Core/Src/u8g2/Src/u8x8_cad.c **** 	arg_int--;
 453:Core/Src/u8g2/Src/u8x8_cad.c ****       }
 454:Core/Src/u8g2/Src/u8x8_cad.c ****       u8x8_gpio_Delay(u8x8, U8X8_MSG_DELAY_NANO, 1);
 455:Core/Src/u8g2/Src/u8x8_cad.c ****       break;
 456:Core/Src/u8g2/Src/u8x8_cad.c ****     case U8X8_MSG_CAD_INIT:
 457:Core/Src/u8g2/Src/u8x8_cad.c ****     case U8X8_MSG_CAD_START_TRANSFER:
 458:Core/Src/u8g2/Src/u8x8_cad.c ****     case U8X8_MSG_CAD_END_TRANSFER:
 459:Core/Src/u8g2/Src/u8x8_cad.c ****       return u8x8->byte_cb(u8x8, msg, arg_int, arg_ptr);
 460:Core/Src/u8g2/Src/u8x8_cad.c ****     default:
 461:Core/Src/u8g2/Src/u8x8_cad.c ****       return 0;
 462:Core/Src/u8g2/Src/u8x8_cad.c ****   }
 463:Core/Src/u8g2/Src/u8x8_cad.c ****   return 1;
 464:Core/Src/u8g2/Src/u8x8_cad.c **** }
 465:Core/Src/u8g2/Src/u8x8_cad.c **** 
 466:Core/Src/u8g2/Src/u8x8_cad.c **** 
 467:Core/Src/u8g2/Src/u8x8_cad.c **** /* cad procedure for the SSD13xx family in I2C mode */
 468:Core/Src/u8g2/Src/u8x8_cad.c **** /* this procedure is also used by the ST7588 */
 469:Core/Src/u8g2/Src/u8x8_cad.c **** /* u8x8_byte_SetDC is not used */
 470:Core/Src/u8g2/Src/u8x8_cad.c **** /* U8X8_MSG_BYTE_START_TRANSFER starts i2c transfer, U8X8_MSG_BYTE_END_TRANSFER stops transfer */
 471:Core/Src/u8g2/Src/u8x8_cad.c **** /* After transfer start, a full byte indicates command or data mode */
 472:Core/Src/u8g2/Src/u8x8_cad.c **** 
 473:Core/Src/u8g2/Src/u8x8_cad.c **** static void u8x8_i2c_data_transfer(u8x8_t *u8x8, uint8_t arg_int, void *arg_ptr) U8X8_NOINLINE;
 474:Core/Src/u8g2/Src/u8x8_cad.c **** static void u8x8_i2c_data_transfer(u8x8_t *u8x8, uint8_t arg_int, void *arg_ptr)
 475:Core/Src/u8g2/Src/u8x8_cad.c **** {
  29              		.loc 1 475 1 view -0
  30              		.cfi_startproc
  31              		@ args = 0, pretend = 0, frame = 0
  32              		@ frame_needed = 0, uses_anonymous_args = 0
  33              		.loc 1 475 1 is_stmt 0 view .LVU1
  34 0000 70B5     		push	{r4, r5, r6, lr}
  35              	.LCFI0:
  36              		.cfi_def_cfa_offset 16
  37              		.cfi_offset 4, -16
  38              		.cfi_offset 5, -12
  39              		.cfi_offset 6, -8
ARM GAS  C:\Users\MOROSH~1\AppData\Local\Temp\cceDu29x.s 			page 10


  40              		.cfi_offset 14, -4
  41 0002 0446     		mov	r4, r0
  42 0004 0D46     		mov	r5, r1
  43 0006 1646     		mov	r6, r2
 476:Core/Src/u8g2/Src/u8x8_cad.c ****     u8x8_byte_StartTransfer(u8x8);    
  44              		.loc 1 476 5 is_stmt 1 view .LVU2
  45 0008 FFF7FEFF 		bl	u8x8_byte_StartTransfer
  46              	.LVL1:
 477:Core/Src/u8g2/Src/u8x8_cad.c ****     u8x8_byte_SendByte(u8x8, 0x040);
  47              		.loc 1 477 5 view .LVU3
  48 000c 4021     		movs	r1, #64
  49 000e 2046     		mov	r0, r4
  50 0010 FFF7FEFF 		bl	u8x8_byte_SendByte
  51              	.LVL2:
 478:Core/Src/u8g2/Src/u8x8_cad.c ****     u8x8->byte_cb(u8x8, U8X8_MSG_CAD_SEND_DATA, arg_int, arg_ptr);
  52              		.loc 1 478 5 view .LVU4
  53 0014 3346     		mov	r3, r6
  54 0016 2A46     		mov	r2, r5
  55 0018 1721     		movs	r1, #23
  56 001a 2046     		mov	r0, r4
  57 001c 2569     		ldr	r5, [r4, #16]
  58 001e A847     		blx	r5
  59              	.LVL3:
 479:Core/Src/u8g2/Src/u8x8_cad.c ****     u8x8_byte_EndTransfer(u8x8);
  60              		.loc 1 479 5 view .LVU5
  61 0020 2046     		mov	r0, r4
  62 0022 FFF7FEFF 		bl	u8x8_byte_EndTransfer
  63              	.LVL4:
 480:Core/Src/u8g2/Src/u8x8_cad.c **** }
  64              		.loc 1 480 1 is_stmt 0 view .LVU6
  65 0026 70BD     		pop	{r4, r5, r6, pc}
  66              		.loc 1 480 1 view .LVU7
  67              		.cfi_endproc
  68              	.LFE16:
  70              		.section	.text.u8x8_cad_SendCmd,"ax",%progbits
  71              		.align	1
  72              		.global	u8x8_cad_SendCmd
  73              		.syntax unified
  74              		.thumb
  75              		.thumb_func
  77              	u8x8_cad_SendCmd:
  78              	.LVL5:
  79              	.LFB0:
  89:Core/Src/u8g2/Src/u8x8_cad.c ****   return u8x8->cad_cb(u8x8, U8X8_MSG_CAD_SEND_CMD, cmd, NULL);
  80              		.loc 1 89 1 is_stmt 1 view -0
  81              		.cfi_startproc
  82              		@ args = 0, pretend = 0, frame = 0
  83              		@ frame_needed = 0, uses_anonymous_args = 0
  89:Core/Src/u8g2/Src/u8x8_cad.c ****   return u8x8->cad_cb(u8x8, U8X8_MSG_CAD_SEND_CMD, cmd, NULL);
  84              		.loc 1 89 1 is_stmt 0 view .LVU9
  85 0000 10B5     		push	{r4, lr}
  86              	.LCFI1:
  87              		.cfi_def_cfa_offset 8
  88              		.cfi_offset 4, -8
  89              		.cfi_offset 14, -4
  90 0002 0A46     		mov	r2, r1
  90:Core/Src/u8g2/Src/u8x8_cad.c **** }
ARM GAS  C:\Users\MOROSH~1\AppData\Local\Temp\cceDu29x.s 			page 11


  91              		.loc 1 90 3 is_stmt 1 view .LVU10
  90:Core/Src/u8g2/Src/u8x8_cad.c **** }
  92              		.loc 1 90 14 is_stmt 0 view .LVU11
  93 0004 C468     		ldr	r4, [r0, #12]
  90:Core/Src/u8g2/Src/u8x8_cad.c **** }
  94              		.loc 1 90 10 view .LVU12
  95 0006 0023     		movs	r3, #0
  96 0008 1521     		movs	r1, #21
  97              	.LVL6:
  90:Core/Src/u8g2/Src/u8x8_cad.c **** }
  98              		.loc 1 90 10 view .LVU13
  99 000a A047     		blx	r4
 100              	.LVL7:
  91:Core/Src/u8g2/Src/u8x8_cad.c **** 
 101              		.loc 1 91 1 view .LVU14
 102 000c 10BD     		pop	{r4, pc}
 103              		.cfi_endproc
 104              	.LFE0:
 106              		.section	.text.u8x8_cad_SendArg,"ax",%progbits
 107              		.align	1
 108              		.global	u8x8_cad_SendArg
 109              		.syntax unified
 110              		.thumb
 111              		.thumb_func
 113              	u8x8_cad_SendArg:
 114              	.LVL8:
 115              	.LFB1:
  94:Core/Src/u8g2/Src/u8x8_cad.c ****   return u8x8->cad_cb(u8x8, U8X8_MSG_CAD_SEND_ARG, arg, NULL);
 116              		.loc 1 94 1 is_stmt 1 view -0
 117              		.cfi_startproc
 118              		@ args = 0, pretend = 0, frame = 0
 119              		@ frame_needed = 0, uses_anonymous_args = 0
  94:Core/Src/u8g2/Src/u8x8_cad.c ****   return u8x8->cad_cb(u8x8, U8X8_MSG_CAD_SEND_ARG, arg, NULL);
 120              		.loc 1 94 1 is_stmt 0 view .LVU16
 121 0000 10B5     		push	{r4, lr}
 122              	.LCFI2:
 123              		.cfi_def_cfa_offset 8
 124              		.cfi_offset 4, -8
 125              		.cfi_offset 14, -4
 126 0002 0A46     		mov	r2, r1
  95:Core/Src/u8g2/Src/u8x8_cad.c **** }
 127              		.loc 1 95 3 is_stmt 1 view .LVU17
  95:Core/Src/u8g2/Src/u8x8_cad.c **** }
 128              		.loc 1 95 14 is_stmt 0 view .LVU18
 129 0004 C468     		ldr	r4, [r0, #12]
  95:Core/Src/u8g2/Src/u8x8_cad.c **** }
 130              		.loc 1 95 10 view .LVU19
 131 0006 0023     		movs	r3, #0
 132 0008 1621     		movs	r1, #22
 133              	.LVL9:
  95:Core/Src/u8g2/Src/u8x8_cad.c **** }
 134              		.loc 1 95 10 view .LVU20
 135 000a A047     		blx	r4
 136              	.LVL10:
  96:Core/Src/u8g2/Src/u8x8_cad.c **** 
 137              		.loc 1 96 1 view .LVU21
 138 000c 10BD     		pop	{r4, pc}
ARM GAS  C:\Users\MOROSH~1\AppData\Local\Temp\cceDu29x.s 			page 12


 139              		.cfi_endproc
 140              	.LFE1:
 142              		.section	.text.u8x8_cad_SendMultipleArg,"ax",%progbits
 143              		.align	1
 144              		.global	u8x8_cad_SendMultipleArg
 145              		.syntax unified
 146              		.thumb
 147              		.thumb_func
 149              	u8x8_cad_SendMultipleArg:
 150              	.LVL11:
 151              	.LFB2:
  99:Core/Src/u8g2/Src/u8x8_cad.c ****   while( cnt > 0 )
 152              		.loc 1 99 1 is_stmt 1 view -0
 153              		.cfi_startproc
 154              		@ args = 0, pretend = 0, frame = 0
 155              		@ frame_needed = 0, uses_anonymous_args = 0
  99:Core/Src/u8g2/Src/u8x8_cad.c ****   while( cnt > 0 )
 156              		.loc 1 99 1 is_stmt 0 view .LVU23
 157 0000 F8B5     		push	{r3, r4, r5, r6, r7, lr}
 158              	.LCFI3:
 159              		.cfi_def_cfa_offset 24
 160              		.cfi_offset 3, -24
 161              		.cfi_offset 4, -20
 162              		.cfi_offset 5, -16
 163              		.cfi_offset 6, -12
 164              		.cfi_offset 7, -8
 165              		.cfi_offset 14, -4
 166 0002 0546     		mov	r5, r0
 167 0004 0C46     		mov	r4, r1
 168 0006 1646     		mov	r6, r2
 100:Core/Src/u8g2/Src/u8x8_cad.c ****   {
 169              		.loc 1 100 3 is_stmt 1 view .LVU24
 100:Core/Src/u8g2/Src/u8x8_cad.c ****   {
 170              		.loc 1 100 8 is_stmt 0 view .LVU25
 171 0008 07E0     		b	.L8
 172              	.LVL12:
 173              	.L9:
 102:Core/Src/u8g2/Src/u8x8_cad.c ****     cnt--;
 174              		.loc 1 102 5 is_stmt 1 view .LVU26
 175 000a 0023     		movs	r3, #0
 176 000c 3246     		mov	r2, r6
 177 000e 1621     		movs	r1, #22
 178 0010 2846     		mov	r0, r5
 179 0012 EF68     		ldr	r7, [r5, #12]
 180 0014 B847     		blx	r7
 181              	.LVL13:
 103:Core/Src/u8g2/Src/u8x8_cad.c ****   }
 182              		.loc 1 103 5 view .LVU27
 103:Core/Src/u8g2/Src/u8x8_cad.c ****   }
 183              		.loc 1 103 8 is_stmt 0 view .LVU28
 184 0016 013C     		subs	r4, r4, #1
 185              	.LVL14:
 103:Core/Src/u8g2/Src/u8x8_cad.c ****   }
 186              		.loc 1 103 8 view .LVU29
 187 0018 E4B2     		uxtb	r4, r4
 188              	.LVL15:
 189              	.L8:
ARM GAS  C:\Users\MOROSH~1\AppData\Local\Temp\cceDu29x.s 			page 13


 100:Core/Src/u8g2/Src/u8x8_cad.c ****   {
 190              		.loc 1 100 8 is_stmt 1 view .LVU30
 191 001a 002C     		cmp	r4, #0
 192 001c F5D1     		bne	.L9
 105:Core/Src/u8g2/Src/u8x8_cad.c **** }
 193              		.loc 1 105 3 view .LVU31
 106:Core/Src/u8g2/Src/u8x8_cad.c **** 
 194              		.loc 1 106 1 is_stmt 0 view .LVU32
 195 001e 0120     		movs	r0, #1
 196 0020 F8BD     		pop	{r3, r4, r5, r6, r7, pc}
 106:Core/Src/u8g2/Src/u8x8_cad.c **** 
 197              		.loc 1 106 1 view .LVU33
 198              		.cfi_endproc
 199              	.LFE2:
 201              		.section	.text.u8x8_cad_SendData,"ax",%progbits
 202              		.align	1
 203              		.global	u8x8_cad_SendData
 204              		.syntax unified
 205              		.thumb
 206              		.thumb_func
 208              	u8x8_cad_SendData:
 209              	.LVL16:
 210              	.LFB3:
 109:Core/Src/u8g2/Src/u8x8_cad.c ****   return u8x8->cad_cb(u8x8, U8X8_MSG_CAD_SEND_DATA, cnt, data);
 211              		.loc 1 109 1 is_stmt 1 view -0
 212              		.cfi_startproc
 213              		@ args = 0, pretend = 0, frame = 0
 214              		@ frame_needed = 0, uses_anonymous_args = 0
 109:Core/Src/u8g2/Src/u8x8_cad.c ****   return u8x8->cad_cb(u8x8, U8X8_MSG_CAD_SEND_DATA, cnt, data);
 215              		.loc 1 109 1 is_stmt 0 view .LVU35
 216 0000 10B5     		push	{r4, lr}
 217              	.LCFI4:
 218              		.cfi_def_cfa_offset 8
 219              		.cfi_offset 4, -8
 220              		.cfi_offset 14, -4
 221 0002 1346     		mov	r3, r2
 110:Core/Src/u8g2/Src/u8x8_cad.c **** }
 222              		.loc 1 110 3 is_stmt 1 view .LVU36
 110:Core/Src/u8g2/Src/u8x8_cad.c **** }
 223              		.loc 1 110 14 is_stmt 0 view .LVU37
 224 0004 C468     		ldr	r4, [r0, #12]
 110:Core/Src/u8g2/Src/u8x8_cad.c **** }
 225              		.loc 1 110 10 view .LVU38
 226 0006 0A46     		mov	r2, r1
 227              	.LVL17:
 110:Core/Src/u8g2/Src/u8x8_cad.c **** }
 228              		.loc 1 110 10 view .LVU39
 229 0008 1721     		movs	r1, #23
 230              	.LVL18:
 110:Core/Src/u8g2/Src/u8x8_cad.c **** }
 231              		.loc 1 110 10 view .LVU40
 232 000a A047     		blx	r4
 233              	.LVL19:
 111:Core/Src/u8g2/Src/u8x8_cad.c **** 
 234              		.loc 1 111 1 view .LVU41
 235 000c 10BD     		pop	{r4, pc}
 236              		.cfi_endproc
ARM GAS  C:\Users\MOROSH~1\AppData\Local\Temp\cceDu29x.s 			page 14


 237              	.LFE3:
 239              		.section	.text.u8x8_cad_StartTransfer,"ax",%progbits
 240              		.align	1
 241              		.global	u8x8_cad_StartTransfer
 242              		.syntax unified
 243              		.thumb
 244              		.thumb_func
 246              	u8x8_cad_StartTransfer:
 247              	.LVL20:
 248              	.LFB4:
 114:Core/Src/u8g2/Src/u8x8_cad.c ****   return u8x8->cad_cb(u8x8, U8X8_MSG_CAD_START_TRANSFER, 0, NULL);
 249              		.loc 1 114 1 is_stmt 1 view -0
 250              		.cfi_startproc
 251              		@ args = 0, pretend = 0, frame = 0
 252              		@ frame_needed = 0, uses_anonymous_args = 0
 114:Core/Src/u8g2/Src/u8x8_cad.c ****   return u8x8->cad_cb(u8x8, U8X8_MSG_CAD_START_TRANSFER, 0, NULL);
 253              		.loc 1 114 1 is_stmt 0 view .LVU43
 254 0000 10B5     		push	{r4, lr}
 255              	.LCFI5:
 256              		.cfi_def_cfa_offset 8
 257              		.cfi_offset 4, -8
 258              		.cfi_offset 14, -4
 115:Core/Src/u8g2/Src/u8x8_cad.c **** }
 259              		.loc 1 115 3 is_stmt 1 view .LVU44
 115:Core/Src/u8g2/Src/u8x8_cad.c **** }
 260              		.loc 1 115 14 is_stmt 0 view .LVU45
 261 0002 C468     		ldr	r4, [r0, #12]
 115:Core/Src/u8g2/Src/u8x8_cad.c **** }
 262              		.loc 1 115 10 view .LVU46
 263 0004 0023     		movs	r3, #0
 264 0006 1A46     		mov	r2, r3
 265 0008 1821     		movs	r1, #24
 266 000a A047     		blx	r4
 267              	.LVL21:
 116:Core/Src/u8g2/Src/u8x8_cad.c **** 
 268              		.loc 1 116 1 view .LVU47
 269 000c 10BD     		pop	{r4, pc}
 270              		.cfi_endproc
 271              	.LFE4:
 273              		.section	.text.u8x8_cad_EndTransfer,"ax",%progbits
 274              		.align	1
 275              		.global	u8x8_cad_EndTransfer
 276              		.syntax unified
 277              		.thumb
 278              		.thumb_func
 280              	u8x8_cad_EndTransfer:
 281              	.LVL22:
 282              	.LFB5:
 119:Core/Src/u8g2/Src/u8x8_cad.c ****   return u8x8->cad_cb(u8x8, U8X8_MSG_CAD_END_TRANSFER, 0, NULL);
 283              		.loc 1 119 1 is_stmt 1 view -0
 284              		.cfi_startproc
 285              		@ args = 0, pretend = 0, frame = 0
 286              		@ frame_needed = 0, uses_anonymous_args = 0
 119:Core/Src/u8g2/Src/u8x8_cad.c ****   return u8x8->cad_cb(u8x8, U8X8_MSG_CAD_END_TRANSFER, 0, NULL);
 287              		.loc 1 119 1 is_stmt 0 view .LVU49
 288 0000 10B5     		push	{r4, lr}
 289              	.LCFI6:
ARM GAS  C:\Users\MOROSH~1\AppData\Local\Temp\cceDu29x.s 			page 15


 290              		.cfi_def_cfa_offset 8
 291              		.cfi_offset 4, -8
 292              		.cfi_offset 14, -4
 120:Core/Src/u8g2/Src/u8x8_cad.c **** }
 293              		.loc 1 120 3 is_stmt 1 view .LVU50
 120:Core/Src/u8g2/Src/u8x8_cad.c **** }
 294              		.loc 1 120 14 is_stmt 0 view .LVU51
 295 0002 C468     		ldr	r4, [r0, #12]
 120:Core/Src/u8g2/Src/u8x8_cad.c **** }
 296              		.loc 1 120 10 view .LVU52
 297 0004 0023     		movs	r3, #0
 298 0006 1A46     		mov	r2, r3
 299 0008 1921     		movs	r1, #25
 300 000a A047     		blx	r4
 301              	.LVL23:
 121:Core/Src/u8g2/Src/u8x8_cad.c **** 
 302              		.loc 1 121 1 view .LVU53
 303 000c 10BD     		pop	{r4, pc}
 304              		.cfi_endproc
 305              	.LFE5:
 307              		.section	.text.u8x8_cad_vsendf,"ax",%progbits
 308              		.align	1
 309              		.global	u8x8_cad_vsendf
 310              		.syntax unified
 311              		.thumb
 312              		.thumb_func
 314              	u8x8_cad_vsendf:
 315              	.LVL24:
 316              	.LFB6:
 124:Core/Src/u8g2/Src/u8x8_cad.c ****   uint8_t d;
 317              		.loc 1 124 1 is_stmt 1 view -0
 318              		.cfi_startproc
 319              		@ args = 0, pretend = 0, frame = 16
 320              		@ frame_needed = 0, uses_anonymous_args = 0
 124:Core/Src/u8g2/Src/u8x8_cad.c ****   uint8_t d;
 321              		.loc 1 124 1 is_stmt 0 view .LVU55
 322 0000 30B5     		push	{r4, r5, lr}
 323              	.LCFI7:
 324              		.cfi_def_cfa_offset 12
 325              		.cfi_offset 4, -12
 326              		.cfi_offset 5, -8
 327              		.cfi_offset 14, -4
 328 0002 85B0     		sub	sp, sp, #20
 329              	.LCFI8:
 330              		.cfi_def_cfa_offset 32
 331 0004 0546     		mov	r5, r0
 332 0006 0C46     		mov	r4, r1
 333 0008 0192     		str	r2, [sp, #4]
 125:Core/Src/u8g2/Src/u8x8_cad.c ****   u8x8_cad_StartTransfer(u8x8);
 334              		.loc 1 125 3 is_stmt 1 view .LVU56
 126:Core/Src/u8g2/Src/u8x8_cad.c ****   while( *fmt != '\0' )
 335              		.loc 1 126 3 view .LVU57
 336 000a FFF7FEFF 		bl	u8x8_cad_StartTransfer
 337              	.LVL25:
 127:Core/Src/u8g2/Src/u8x8_cad.c ****   {
 338              		.loc 1 127 3 view .LVU58
 127:Core/Src/u8g2/Src/u8x8_cad.c ****   {
ARM GAS  C:\Users\MOROSH~1\AppData\Local\Temp\cceDu29x.s 			page 16


 339              		.loc 1 127 8 is_stmt 0 view .LVU59
 340 000e 03E0     		b	.L18
 341              	.L19:
 133:Core/Src/u8g2/Src/u8x8_cad.c ****       case 'd':  u8x8_cad_SendData(u8x8, 1, &d); break;
 342              		.loc 1 133 18 is_stmt 1 view .LVU60
 343 0010 2846     		mov	r0, r5
 344 0012 FFF7FEFF 		bl	u8x8_cad_SendCmd
 345              	.LVL26:
 133:Core/Src/u8g2/Src/u8x8_cad.c ****       case 'd':  u8x8_cad_SendData(u8x8, 1, &d); break;
 346              		.loc 1 133 45 view .LVU61
 347              	.L21:
 136:Core/Src/u8g2/Src/u8x8_cad.c ****   }
 348              		.loc 1 136 5 view .LVU62
 136:Core/Src/u8g2/Src/u8x8_cad.c ****   }
 349              		.loc 1 136 8 is_stmt 0 view .LVU63
 350 0016 0134     		adds	r4, r4, #1
 351              	.LVL27:
 352              	.L18:
 127:Core/Src/u8g2/Src/u8x8_cad.c ****   {
 353              		.loc 1 127 8 is_stmt 1 view .LVU64
 127:Core/Src/u8g2/Src/u8x8_cad.c ****   {
 354              		.loc 1 127 10 is_stmt 0 view .LVU65
 355 0018 2378     		ldrb	r3, [r4]	@ zero_extendqisi2
 127:Core/Src/u8g2/Src/u8x8_cad.c ****   {
 356              		.loc 1 127 8 view .LVU66
 357 001a BBB1     		cbz	r3, .L24
 129:Core/Src/u8g2/Src/u8x8_cad.c ****     switch(*fmt)
 358              		.loc 1 129 5 is_stmt 1 view .LVU67
 129:Core/Src/u8g2/Src/u8x8_cad.c ****     switch(*fmt)
 359              		.loc 1 129 18 is_stmt 0 view .LVU68
 360 001c 019B     		ldr	r3, [sp, #4]
 361 001e 1A1D     		adds	r2, r3, #4
 362 0020 0192     		str	r2, [sp, #4]
 129:Core/Src/u8g2/Src/u8x8_cad.c ****     switch(*fmt)
 363              		.loc 1 129 9 view .LVU69
 364 0022 1978     		ldrb	r1, [r3]	@ zero_extendqisi2
 129:Core/Src/u8g2/Src/u8x8_cad.c ****     switch(*fmt)
 365              		.loc 1 129 7 view .LVU70
 366 0024 8DF80F10 		strb	r1, [sp, #15]
 130:Core/Src/u8g2/Src/u8x8_cad.c ****     {
 367              		.loc 1 130 5 is_stmt 1 view .LVU71
 130:Core/Src/u8g2/Src/u8x8_cad.c ****     {
 368              		.loc 1 130 12 is_stmt 0 view .LVU72
 369 0028 2378     		ldrb	r3, [r4]	@ zero_extendqisi2
 130:Core/Src/u8g2/Src/u8x8_cad.c ****     {
 370              		.loc 1 130 5 view .LVU73
 371 002a 632B     		cmp	r3, #99
 372 002c F0D0     		beq	.L19
 373 002e 642B     		cmp	r3, #100
 374 0030 05D0     		beq	.L20
 375 0032 612B     		cmp	r3, #97
 376 0034 EFD1     		bne	.L21
 132:Core/Src/u8g2/Src/u8x8_cad.c ****       case 'c':  u8x8_cad_SendCmd(u8x8, d); break;
 377              		.loc 1 132 18 is_stmt 1 view .LVU74
 378 0036 2846     		mov	r0, r5
 379 0038 FFF7FEFF 		bl	u8x8_cad_SendArg
 380              	.LVL28:
ARM GAS  C:\Users\MOROSH~1\AppData\Local\Temp\cceDu29x.s 			page 17


 132:Core/Src/u8g2/Src/u8x8_cad.c ****       case 'c':  u8x8_cad_SendCmd(u8x8, d); break;
 381              		.loc 1 132 45 view .LVU75
 132:Core/Src/u8g2/Src/u8x8_cad.c ****       case 'c':  u8x8_cad_SendCmd(u8x8, d); break;
 382              		.loc 1 132 7 is_stmt 0 view .LVU76
 383 003c EBE7     		b	.L21
 384              	.L20:
 134:Core/Src/u8g2/Src/u8x8_cad.c ****     }
 385              		.loc 1 134 18 is_stmt 1 view .LVU77
 386 003e 0DF10F02 		add	r2, sp, #15
 387 0042 0121     		movs	r1, #1
 388 0044 2846     		mov	r0, r5
 389 0046 FFF7FEFF 		bl	u8x8_cad_SendData
 390              	.LVL29:
 134:Core/Src/u8g2/Src/u8x8_cad.c ****     }
 391              		.loc 1 134 50 view .LVU78
 134:Core/Src/u8g2/Src/u8x8_cad.c ****     }
 392              		.loc 1 134 7 is_stmt 0 view .LVU79
 393 004a E4E7     		b	.L21
 394              	.L24:
 138:Core/Src/u8g2/Src/u8x8_cad.c **** }
 395              		.loc 1 138 3 is_stmt 1 view .LVU80
 396 004c 2846     		mov	r0, r5
 397 004e FFF7FEFF 		bl	u8x8_cad_EndTransfer
 398              	.LVL30:
 139:Core/Src/u8g2/Src/u8x8_cad.c **** 
 399              		.loc 1 139 1 is_stmt 0 view .LVU81
 400 0052 05B0     		add	sp, sp, #20
 401              	.LCFI9:
 402              		.cfi_def_cfa_offset 12
 403              		@ sp needed
 404 0054 30BD     		pop	{r4, r5, pc}
 139:Core/Src/u8g2/Src/u8x8_cad.c **** 
 405              		.loc 1 139 1 view .LVU82
 406              		.cfi_endproc
 407              	.LFE6:
 409              		.section	.text.u8x8_SendF,"ax",%progbits
 410              		.align	1
 411              		.global	u8x8_SendF
 412              		.syntax unified
 413              		.thumb
 414              		.thumb_func
 416              	u8x8_SendF:
 417              	.LVL31:
 418              	.LFB7:
 142:Core/Src/u8g2/Src/u8x8_cad.c ****   va_list va;
 419              		.loc 1 142 1 is_stmt 1 view -0
 420              		.cfi_startproc
 421              		@ args = 4, pretend = 12, frame = 8
 422              		@ frame_needed = 0, uses_anonymous_args = 1
 142:Core/Src/u8g2/Src/u8x8_cad.c ****   va_list va;
 423              		.loc 1 142 1 is_stmt 0 view .LVU84
 424 0000 0EB4     		push	{r1, r2, r3}
 425              	.LCFI10:
 426              		.cfi_def_cfa_offset 12
 427              		.cfi_offset 1, -12
 428              		.cfi_offset 2, -8
 429              		.cfi_offset 3, -4
ARM GAS  C:\Users\MOROSH~1\AppData\Local\Temp\cceDu29x.s 			page 18


 430 0002 00B5     		push	{lr}
 431              	.LCFI11:
 432              		.cfi_def_cfa_offset 16
 433              		.cfi_offset 14, -16
 434 0004 82B0     		sub	sp, sp, #8
 435              	.LCFI12:
 436              		.cfi_def_cfa_offset 24
 437 0006 03AA     		add	r2, sp, #12
 438 0008 52F8041B 		ldr	r1, [r2], #4
 143:Core/Src/u8g2/Src/u8x8_cad.c ****   va_start(va, fmt);
 439              		.loc 1 143 3 is_stmt 1 view .LVU85
 144:Core/Src/u8g2/Src/u8x8_cad.c ****   u8x8_cad_vsendf(u8x8, fmt, va);
 440              		.loc 1 144 3 view .LVU86
 441 000c 0192     		str	r2, [sp, #4]
 145:Core/Src/u8g2/Src/u8x8_cad.c ****   va_end(va);
 442              		.loc 1 145 3 view .LVU87
 443 000e FFF7FEFF 		bl	u8x8_cad_vsendf
 444              	.LVL32:
 146:Core/Src/u8g2/Src/u8x8_cad.c **** }
 445              		.loc 1 146 3 view .LVU88
 147:Core/Src/u8g2/Src/u8x8_cad.c **** 
 446              		.loc 1 147 1 is_stmt 0 view .LVU89
 447 0012 02B0     		add	sp, sp, #8
 448              	.LCFI13:
 449              		.cfi_def_cfa_offset 16
 450              		@ sp needed
 451 0014 5DF804EB 		ldr	lr, [sp], #4
 452              	.LCFI14:
 453              		.cfi_restore 14
 454              		.cfi_def_cfa_offset 12
 455 0018 03B0     		add	sp, sp, #12
 456              	.LCFI15:
 457              		.cfi_restore 3
 458              		.cfi_restore 2
 459              		.cfi_restore 1
 460              		.cfi_def_cfa_offset 0
 461 001a 7047     		bx	lr
 462              		.cfi_endproc
 463              	.LFE7:
 465              		.section	.text.u8x8_cad_SendSequence,"ax",%progbits
 466              		.align	1
 467              		.global	u8x8_cad_SendSequence
 468              		.syntax unified
 469              		.thumb
 470              		.thumb_func
 472              	u8x8_cad_SendSequence:
 473              	.LVL33:
 474              	.LFB8:
 160:Core/Src/u8g2/Src/u8x8_cad.c ****   uint8_t cmd;
 475              		.loc 1 160 1 is_stmt 1 view -0
 476              		.cfi_startproc
 477              		@ args = 0, pretend = 0, frame = 8
 478              		@ frame_needed = 0, uses_anonymous_args = 0
 160:Core/Src/u8g2/Src/u8x8_cad.c ****   uint8_t cmd;
 479              		.loc 1 160 1 is_stmt 0 view .LVU91
 480 0000 70B5     		push	{r4, r5, r6, lr}
 481              	.LCFI16:
ARM GAS  C:\Users\MOROSH~1\AppData\Local\Temp\cceDu29x.s 			page 19


 482              		.cfi_def_cfa_offset 16
 483              		.cfi_offset 4, -16
 484              		.cfi_offset 5, -12
 485              		.cfi_offset 6, -8
 486              		.cfi_offset 14, -4
 487 0002 82B0     		sub	sp, sp, #8
 488              	.LCFI17:
 489              		.cfi_def_cfa_offset 24
 490 0004 0646     		mov	r6, r0
 491 0006 0D46     		mov	r5, r1
 492 0008 16E0     		b	.L28
 493              	.LVL34:
 494              	.L39:
 168:Core/Src/u8g2/Src/u8x8_cad.c ****     {
 495              		.loc 1 168 5 view .LVU92
 496 000a 1529     		cmp	r1, #21
 497 000c 0CD2     		bcs	.L38
 498              	.L27:
 194:Core/Src/u8g2/Src/u8x8_cad.c **** 
 499              		.loc 1 194 1 view .LVU93
 500 000e 02B0     		add	sp, sp, #8
 501              	.LCFI18:
 502              		.cfi_remember_state
 503              		.cfi_def_cfa_offset 16
 504              		@ sp needed
 505 0010 70BD     		pop	{r4, r5, r6, pc}
 506              	.LVL35:
 507              	.L29:
 508              	.LCFI19:
 509              		.cfi_restore_state
 168:Core/Src/u8g2/Src/u8x8_cad.c ****     {
 510              		.loc 1 168 5 view .LVU94
 511 0012 FE29     		cmp	r1, #254
 512 0014 FBD1     		bne	.L27
 186:Core/Src/u8g2/Src/u8x8_cad.c **** 	  u8x8_gpio_Delay(u8x8, U8X8_MSG_DELAY_MILLI, v);	    
 513              		.loc 1 186 4 is_stmt 1 view .LVU95
 186:Core/Src/u8g2/Src/u8x8_cad.c **** 	  u8x8_gpio_Delay(u8x8, U8X8_MSG_DELAY_MILLI, v);	    
 514              		.loc 1 186 8 is_stmt 0 view .LVU96
 515 0016 2278     		ldrb	r2, [r4]	@ zero_extendqisi2
 186:Core/Src/u8g2/Src/u8x8_cad.c **** 	  u8x8_gpio_Delay(u8x8, U8X8_MSG_DELAY_MILLI, v);	    
 516              		.loc 1 186 6 view .LVU97
 517 0018 8DF80720 		strb	r2, [sp, #7]
 187:Core/Src/u8g2/Src/u8x8_cad.c **** 	  data++;
 518              		.loc 1 187 4 is_stmt 1 view .LVU98
 519 001c 2921     		movs	r1, #41
 520              	.LVL36:
 187:Core/Src/u8g2/Src/u8x8_cad.c **** 	  data++;
 521              		.loc 1 187 4 is_stmt 0 view .LVU99
 522 001e 3046     		mov	r0, r6
 523 0020 FFF7FEFF 		bl	u8x8_gpio_call
 524              	.LVL37:
 188:Core/Src/u8g2/Src/u8x8_cad.c **** 	  break;
 525              		.loc 1 188 4 is_stmt 1 view .LVU100
 188:Core/Src/u8g2/Src/u8x8_cad.c **** 	  break;
 526              		.loc 1 188 8 is_stmt 0 view .LVU101
 527 0024 0235     		adds	r5, r5, #2
 528              	.LVL38:
ARM GAS  C:\Users\MOROSH~1\AppData\Local\Temp\cceDu29x.s 			page 20


 189:Core/Src/u8g2/Src/u8x8_cad.c ****       default:
 529              		.loc 1 189 4 is_stmt 1 view .LVU102
 530 0026 07E0     		b	.L28
 531              	.LVL39:
 532              	.L38:
 172:Core/Src/u8g2/Src/u8x8_cad.c **** 	  u8x8->cad_cb(u8x8, cmd, v, NULL);
 533              		.loc 1 172 4 view .LVU103
 172:Core/Src/u8g2/Src/u8x8_cad.c **** 	  u8x8->cad_cb(u8x8, cmd, v, NULL);
 534              		.loc 1 172 8 is_stmt 0 view .LVU104
 535 0028 2278     		ldrb	r2, [r4]	@ zero_extendqisi2
 172:Core/Src/u8g2/Src/u8x8_cad.c **** 	  u8x8->cad_cb(u8x8, cmd, v, NULL);
 536              		.loc 1 172 6 view .LVU105
 537 002a 8DF80720 		strb	r2, [sp, #7]
 173:Core/Src/u8g2/Src/u8x8_cad.c **** 	  data++;
 538              		.loc 1 173 4 is_stmt 1 view .LVU106
 173:Core/Src/u8g2/Src/u8x8_cad.c **** 	  data++;
 539              		.loc 1 173 8 is_stmt 0 view .LVU107
 540 002e F468     		ldr	r4, [r6, #12]
 541              	.LVL40:
 173:Core/Src/u8g2/Src/u8x8_cad.c **** 	  data++;
 542              		.loc 1 173 4 view .LVU108
 543 0030 0023     		movs	r3, #0
 544 0032 3046     		mov	r0, r6
 545 0034 A047     		blx	r4
 546              	.LVL41:
 174:Core/Src/u8g2/Src/u8x8_cad.c **** 	  break;
 547              		.loc 1 174 4 is_stmt 1 view .LVU109
 174:Core/Src/u8g2/Src/u8x8_cad.c **** 	  break;
 548              		.loc 1 174 8 is_stmt 0 view .LVU110
 549 0036 0235     		adds	r5, r5, #2
 550              	.LVL42:
 175:Core/Src/u8g2/Src/u8x8_cad.c ****       case U8X8_MSG_CAD_SEND_DATA:
 551              		.loc 1 175 4 is_stmt 1 view .LVU111
 552              	.L28:
 161:Core/Src/u8g2/Src/u8x8_cad.c ****   uint8_t v;
 553              		.loc 1 161 3 view .LVU112
 162:Core/Src/u8g2/Src/u8x8_cad.c **** 
 554              		.loc 1 162 3 view .LVU113
 164:Core/Src/u8g2/Src/u8x8_cad.c ****   {
 555              		.loc 1 164 3 view .LVU114
 166:Core/Src/u8g2/Src/u8x8_cad.c ****     data++;
 556              		.loc 1 166 5 view .LVU115
 166:Core/Src/u8g2/Src/u8x8_cad.c ****     data++;
 557              		.loc 1 166 9 is_stmt 0 view .LVU116
 558 0038 2C46     		mov	r4, r5
 559 003a 14F8011B 		ldrb	r1, [r4], #1	@ zero_extendqisi2
 560              	.LVL43:
 167:Core/Src/u8g2/Src/u8x8_cad.c ****     switch( cmd )
 561              		.loc 1 167 5 is_stmt 1 view .LVU117
 168:Core/Src/u8g2/Src/u8x8_cad.c ****     {
 562              		.loc 1 168 5 view .LVU118
 563 003e 1929     		cmp	r1, #25
 564 0040 E7D8     		bhi	.L29
 565 0042 1829     		cmp	r1, #24
 566 0044 0ED2     		bcs	.L30
 567 0046 1629     		cmp	r1, #22
 568 0048 DFD9     		bls	.L39
ARM GAS  C:\Users\MOROSH~1\AppData\Local\Temp\cceDu29x.s 			page 21


 569 004a 1729     		cmp	r1, #23
 570 004c DFD1     		bne	.L27
 177:Core/Src/u8g2/Src/u8x8_cad.c **** 	  u8x8_cad_SendData(u8x8, 1, &v);
 571              		.loc 1 177 4 view .LVU119
 177:Core/Src/u8g2/Src/u8x8_cad.c **** 	  u8x8_cad_SendData(u8x8, 1, &v);
 572              		.loc 1 177 8 is_stmt 0 view .LVU120
 573 004e 2378     		ldrb	r3, [r4]	@ zero_extendqisi2
 177:Core/Src/u8g2/Src/u8x8_cad.c **** 	  u8x8_cad_SendData(u8x8, 1, &v);
 574              		.loc 1 177 6 view .LVU121
 575 0050 8DF80730 		strb	r3, [sp, #7]
 178:Core/Src/u8g2/Src/u8x8_cad.c **** 	  data++;
 576              		.loc 1 178 4 is_stmt 1 view .LVU122
 577 0054 0DF10702 		add	r2, sp, #7
 578 0058 0121     		movs	r1, #1
 579              	.LVL44:
 178:Core/Src/u8g2/Src/u8x8_cad.c **** 	  data++;
 580              		.loc 1 178 4 is_stmt 0 view .LVU123
 581 005a 3046     		mov	r0, r6
 582 005c FFF7FEFF 		bl	u8x8_cad_SendData
 583              	.LVL45:
 179:Core/Src/u8g2/Src/u8x8_cad.c **** 	  break;
 584              		.loc 1 179 4 is_stmt 1 view .LVU124
 179:Core/Src/u8g2/Src/u8x8_cad.c **** 	  break;
 585              		.loc 1 179 8 is_stmt 0 view .LVU125
 586 0060 0235     		adds	r5, r5, #2
 587              	.LVL46:
 180:Core/Src/u8g2/Src/u8x8_cad.c ****       case U8X8_MSG_CAD_START_TRANSFER:
 588              		.loc 1 180 4 is_stmt 1 view .LVU126
 589 0062 E9E7     		b	.L28
 590              	.LVL47:
 591              	.L30:
 183:Core/Src/u8g2/Src/u8x8_cad.c **** 	  break;
 592              		.loc 1 183 4 view .LVU127
 183:Core/Src/u8g2/Src/u8x8_cad.c **** 	  break;
 593              		.loc 1 183 8 is_stmt 0 view .LVU128
 594 0064 F568     		ldr	r5, [r6, #12]
 183:Core/Src/u8g2/Src/u8x8_cad.c **** 	  break;
 595              		.loc 1 183 4 view .LVU129
 596 0066 0023     		movs	r3, #0
 597 0068 1A46     		mov	r2, r3
 598 006a 3046     		mov	r0, r6
 599 006c A847     		blx	r5
 600              	.LVL48:
 184:Core/Src/u8g2/Src/u8x8_cad.c ****       case 0x0fe:
 601              		.loc 1 184 4 is_stmt 1 view .LVU130
 167:Core/Src/u8g2/Src/u8x8_cad.c ****     switch( cmd )
 602              		.loc 1 167 9 is_stmt 0 view .LVU131
 603 006e 2546     		mov	r5, r4
 184:Core/Src/u8g2/Src/u8x8_cad.c ****       case 0x0fe:
 604              		.loc 1 184 4 view .LVU132
 605 0070 E2E7     		b	.L28
 606              		.cfi_endproc
 607              	.LFE8:
 609              		.section	.text.u8x8_cad_empty,"ax",%progbits
 610              		.align	1
 611              		.global	u8x8_cad_empty
 612              		.syntax unified
ARM GAS  C:\Users\MOROSH~1\AppData\Local\Temp\cceDu29x.s 			page 22


 613              		.thumb
 614              		.thumb_func
 616              	u8x8_cad_empty:
 617              	.LVL49:
 618              	.LFB9:
 198:Core/Src/u8g2/Src/u8x8_cad.c ****   switch(msg)
 619              		.loc 1 198 1 is_stmt 1 view -0
 620              		.cfi_startproc
 621              		@ args = 0, pretend = 0, frame = 0
 622              		@ frame_needed = 0, uses_anonymous_args = 0
 198:Core/Src/u8g2/Src/u8x8_cad.c ****   switch(msg)
 623              		.loc 1 198 1 is_stmt 0 view .LVU134
 624 0000 10B5     		push	{r4, lr}
 625              	.LCFI20:
 626              		.cfi_def_cfa_offset 8
 627              		.cfi_offset 4, -8
 628              		.cfi_offset 14, -4
 629 0002 8C46     		mov	ip, r1
 199:Core/Src/u8g2/Src/u8x8_cad.c ****   {
 630              		.loc 1 199 3 is_stmt 1 view .LVU135
 631 0004 1439     		subs	r1, r1, #20
 632              	.LVL50:
 199:Core/Src/u8g2/Src/u8x8_cad.c ****   {
 633              		.loc 1 199 3 is_stmt 0 view .LVU136
 634 0006 0529     		cmp	r1, #5
 635 0008 12D8     		bhi	.L46
 636 000a DFE801F0 		tbb	[pc, r1]
 637              	.L43:
 638 000e 0D       		.byte	(.L42-.L43)/2
 639 000f 03       		.byte	(.L45-.L43)/2
 640 0010 08       		.byte	(.L44-.L43)/2
 641 0011 0D       		.byte	(.L42-.L43)/2
 642 0012 0D       		.byte	(.L42-.L43)/2
 643 0013 0D       		.byte	(.L42-.L43)/2
 644              		.p2align 1
 645              	.L45:
 202:Core/Src/u8g2/Src/u8x8_cad.c ****       break;
 646              		.loc 1 202 7 is_stmt 1 view .LVU137
 647 0014 1146     		mov	r1, r2
 648 0016 FFF7FEFF 		bl	u8x8_byte_SendByte
 649              	.LVL51:
 203:Core/Src/u8g2/Src/u8x8_cad.c ****     case U8X8_MSG_CAD_SEND_ARG:
 650              		.loc 1 203 7 view .LVU138
 215:Core/Src/u8g2/Src/u8x8_cad.c **** }
 651              		.loc 1 215 10 is_stmt 0 view .LVU139
 652 001a 0120     		movs	r0, #1
 653              	.L41:
 216:Core/Src/u8g2/Src/u8x8_cad.c **** 
 654              		.loc 1 216 1 view .LVU140
 655 001c 10BD     		pop	{r4, pc}
 656              	.LVL52:
 657              	.L44:
 205:Core/Src/u8g2/Src/u8x8_cad.c ****       break;
 658              		.loc 1 205 7 is_stmt 1 view .LVU141
 659 001e 1146     		mov	r1, r2
 660 0020 FFF7FEFF 		bl	u8x8_byte_SendByte
 661              	.LVL53:
ARM GAS  C:\Users\MOROSH~1\AppData\Local\Temp\cceDu29x.s 			page 23


 206:Core/Src/u8g2/Src/u8x8_cad.c ****     case U8X8_MSG_CAD_SEND_DATA:
 662              		.loc 1 206 7 view .LVU142
 215:Core/Src/u8g2/Src/u8x8_cad.c **** }
 663              		.loc 1 215 10 is_stmt 0 view .LVU143
 664 0024 0120     		movs	r0, #1
 206:Core/Src/u8g2/Src/u8x8_cad.c ****     case U8X8_MSG_CAD_SEND_DATA:
 665              		.loc 1 206 7 view .LVU144
 666 0026 F9E7     		b	.L41
 667              	.LVL54:
 668              	.L42:
 211:Core/Src/u8g2/Src/u8x8_cad.c ****     default:
 669              		.loc 1 211 7 is_stmt 1 view .LVU145
 211:Core/Src/u8g2/Src/u8x8_cad.c ****     default:
 670              		.loc 1 211 18 is_stmt 0 view .LVU146
 671 0028 0469     		ldr	r4, [r0, #16]
 211:Core/Src/u8g2/Src/u8x8_cad.c ****     default:
 672              		.loc 1 211 14 view .LVU147
 673 002a 6146     		mov	r1, ip
 674 002c A047     		blx	r4
 675              	.LVL55:
 211:Core/Src/u8g2/Src/u8x8_cad.c ****     default:
 676              		.loc 1 211 14 view .LVU148
 677 002e F5E7     		b	.L41
 678              	.LVL56:
 679              	.L46:
 199:Core/Src/u8g2/Src/u8x8_cad.c ****   {
 680              		.loc 1 199 3 view .LVU149
 681 0030 0020     		movs	r0, #0
 682              	.LVL57:
 199:Core/Src/u8g2/Src/u8x8_cad.c ****   {
 683              		.loc 1 199 3 view .LVU150
 684 0032 F3E7     		b	.L41
 685              		.cfi_endproc
 686              	.LFE9:
 688              		.section	.text.u8x8_cad_110,"ax",%progbits
 689              		.align	1
 690              		.global	u8x8_cad_110
 691              		.syntax unified
 692              		.thumb
 693              		.thumb_func
 695              	u8x8_cad_110:
 696              	.LVL58:
 697              	.LFB10:
 225:Core/Src/u8g2/Src/u8x8_cad.c ****   switch(msg)
 698              		.loc 1 225 1 is_stmt 1 view -0
 699              		.cfi_startproc
 700              		@ args = 0, pretend = 0, frame = 0
 701              		@ frame_needed = 0, uses_anonymous_args = 0
 225:Core/Src/u8g2/Src/u8x8_cad.c ****   switch(msg)
 702              		.loc 1 225 1 is_stmt 0 view .LVU152
 703 0000 2DE9F041 		push	{r4, r5, r6, r7, r8, lr}
 704              	.LCFI21:
 705              		.cfi_def_cfa_offset 24
 706              		.cfi_offset 4, -24
 707              		.cfi_offset 5, -20
 708              		.cfi_offset 6, -16
 709              		.cfi_offset 7, -12
ARM GAS  C:\Users\MOROSH~1\AppData\Local\Temp\cceDu29x.s 			page 24


 710              		.cfi_offset 8, -8
 711              		.cfi_offset 14, -4
 712 0004 0446     		mov	r4, r0
 713 0006 0D46     		mov	r5, r1
 714 0008 1646     		mov	r6, r2
 715 000a 1F46     		mov	r7, r3
 226:Core/Src/u8g2/Src/u8x8_cad.c ****   {
 716              		.loc 1 226 3 is_stmt 1 view .LVU153
 717 000c A1F11403 		sub	r3, r1, #20
 718              	.LVL59:
 226:Core/Src/u8g2/Src/u8x8_cad.c ****   {
 719              		.loc 1 226 3 is_stmt 0 view .LVU154
 720 0010 052B     		cmp	r3, #5
 721 0012 22D8     		bhi	.L55
 722 0014 DFE803F0 		tbb	[pc, r3]
 723              	.LVL60:
 724              	.L51:
 725 0018 18       		.byte	(.L50-.L51)/2
 726 0019 03       		.byte	(.L54-.L51)/2
 727 001a 0C       		.byte	(.L53-.L51)/2
 728 001b 15       		.byte	(.L52-.L51)/2
 729 001c 18       		.byte	(.L50-.L51)/2
 730 001d 18       		.byte	(.L50-.L51)/2
 731              		.p2align 1
 732              	.L54:
 229:Core/Src/u8g2/Src/u8x8_cad.c ****       u8x8_byte_SendByte(u8x8, arg_int);
 733              		.loc 1 229 7 is_stmt 1 view .LVU155
 734 001e 0121     		movs	r1, #1
 735              	.LVL61:
 229:Core/Src/u8g2/Src/u8x8_cad.c ****       u8x8_byte_SendByte(u8x8, arg_int);
 736              		.loc 1 229 7 is_stmt 0 view .LVU156
 737 0020 FFF7FEFF 		bl	u8x8_byte_SetDC
 738              	.LVL62:
 230:Core/Src/u8g2/Src/u8x8_cad.c ****       break;
 739              		.loc 1 230 7 is_stmt 1 view .LVU157
 740 0024 3146     		mov	r1, r6
 741 0026 2046     		mov	r0, r4
 742 0028 FFF7FEFF 		bl	u8x8_byte_SendByte
 743              	.LVL63:
 231:Core/Src/u8g2/Src/u8x8_cad.c ****     case U8X8_MSG_CAD_SEND_ARG:
 744              		.loc 1 231 7 view .LVU158
 248:Core/Src/u8g2/Src/u8x8_cad.c **** }
 745              		.loc 1 248 10 is_stmt 0 view .LVU159
 746 002c 0120     		movs	r0, #1
 231:Core/Src/u8g2/Src/u8x8_cad.c ****     case U8X8_MSG_CAD_SEND_ARG:
 747              		.loc 1 231 7 view .LVU160
 748 002e 12E0     		b	.L49
 749              	.LVL64:
 750              	.L53:
 233:Core/Src/u8g2/Src/u8x8_cad.c ****       u8x8_byte_SendByte(u8x8, arg_int);
 751              		.loc 1 233 7 is_stmt 1 view .LVU161
 752 0030 0121     		movs	r1, #1
 753              	.LVL65:
 233:Core/Src/u8g2/Src/u8x8_cad.c ****       u8x8_byte_SendByte(u8x8, arg_int);
 754              		.loc 1 233 7 is_stmt 0 view .LVU162
 755 0032 FFF7FEFF 		bl	u8x8_byte_SetDC
 756              	.LVL66:
ARM GAS  C:\Users\MOROSH~1\AppData\Local\Temp\cceDu29x.s 			page 25


 234:Core/Src/u8g2/Src/u8x8_cad.c ****       break;
 757              		.loc 1 234 7 is_stmt 1 view .LVU163
 758 0036 3146     		mov	r1, r6
 759 0038 2046     		mov	r0, r4
 760 003a FFF7FEFF 		bl	u8x8_byte_SendByte
 761              	.LVL67:
 235:Core/Src/u8g2/Src/u8x8_cad.c ****     case U8X8_MSG_CAD_SEND_DATA:
 762              		.loc 1 235 7 view .LVU164
 248:Core/Src/u8g2/Src/u8x8_cad.c **** }
 763              		.loc 1 248 10 is_stmt 0 view .LVU165
 764 003e 0120     		movs	r0, #1
 235:Core/Src/u8g2/Src/u8x8_cad.c ****     case U8X8_MSG_CAD_SEND_DATA:
 765              		.loc 1 235 7 view .LVU166
 766 0040 09E0     		b	.L49
 767              	.LVL68:
 768              	.L52:
 237:Core/Src/u8g2/Src/u8x8_cad.c ****       //u8x8_byte_SendBytes(u8x8, arg_int, arg_ptr);
 769              		.loc 1 237 7 is_stmt 1 view .LVU167
 770 0042 0021     		movs	r1, #0
 771              	.LVL69:
 237:Core/Src/u8g2/Src/u8x8_cad.c ****       //u8x8_byte_SendBytes(u8x8, arg_int, arg_ptr);
 772              		.loc 1 237 7 is_stmt 0 view .LVU168
 773 0044 FFF7FEFF 		bl	u8x8_byte_SetDC
 774              	.LVL70:
 775              	.L50:
 244:Core/Src/u8g2/Src/u8x8_cad.c ****     default:
 776              		.loc 1 244 7 is_stmt 1 view .LVU169
 244:Core/Src/u8g2/Src/u8x8_cad.c ****     default:
 777              		.loc 1 244 18 is_stmt 0 view .LVU170
 778 0048 D4F81080 		ldr	r8, [r4, #16]
 244:Core/Src/u8g2/Src/u8x8_cad.c ****     default:
 779              		.loc 1 244 14 view .LVU171
 780 004c 3B46     		mov	r3, r7
 781 004e 3246     		mov	r2, r6
 782 0050 2946     		mov	r1, r5
 783 0052 2046     		mov	r0, r4
 784 0054 C047     		blx	r8
 785              	.LVL71:
 786              	.L49:
 249:Core/Src/u8g2/Src/u8x8_cad.c **** 
 787              		.loc 1 249 1 view .LVU172
 788 0056 BDE8F081 		pop	{r4, r5, r6, r7, r8, pc}
 789              	.LVL72:
 790              	.L55:
 226:Core/Src/u8g2/Src/u8x8_cad.c ****   {
 791              		.loc 1 226 3 view .LVU173
 792 005a 0020     		movs	r0, #0
 793              	.LVL73:
 226:Core/Src/u8g2/Src/u8x8_cad.c ****   {
 794              		.loc 1 226 3 view .LVU174
 795 005c FBE7     		b	.L49
 796              		.cfi_endproc
 797              	.LFE10:
 799              		.section	.text.u8x8_gu800_cad_110,"ax",%progbits
 800              		.align	1
 801              		.global	u8x8_gu800_cad_110
 802              		.syntax unified
ARM GAS  C:\Users\MOROSH~1\AppData\Local\Temp\cceDu29x.s 			page 26


 803              		.thumb
 804              		.thumb_func
 806              	u8x8_gu800_cad_110:
 807              	.LVL74:
 808              	.LFB11:
 257:Core/Src/u8g2/Src/u8x8_cad.c ****   uint8_t *data;
 809              		.loc 1 257 1 is_stmt 1 view -0
 810              		.cfi_startproc
 811              		@ args = 0, pretend = 0, frame = 0
 812              		@ frame_needed = 0, uses_anonymous_args = 0
 257:Core/Src/u8g2/Src/u8x8_cad.c ****   uint8_t *data;
 813              		.loc 1 257 1 is_stmt 0 view .LVU176
 814 0000 F8B5     		push	{r3, r4, r5, r6, r7, lr}
 815              	.LCFI22:
 816              		.cfi_def_cfa_offset 24
 817              		.cfi_offset 3, -24
 818              		.cfi_offset 4, -20
 819              		.cfi_offset 5, -16
 820              		.cfi_offset 6, -12
 821              		.cfi_offset 7, -8
 822              		.cfi_offset 14, -4
 823 0002 0546     		mov	r5, r0
 824 0004 1446     		mov	r4, r2
 825 0006 1E46     		mov	r6, r3
 258:Core/Src/u8g2/Src/u8x8_cad.c ****   switch(msg)
 826              		.loc 1 258 3 is_stmt 1 view .LVU177
 259:Core/Src/u8g2/Src/u8x8_cad.c ****   {
 827              		.loc 1 259 3 view .LVU178
 828 0008 A1F11403 		sub	r3, r1, #20
 829              	.LVL75:
 259:Core/Src/u8g2/Src/u8x8_cad.c ****   {
 830              		.loc 1 259 3 is_stmt 0 view .LVU179
 831 000c 052B     		cmp	r3, #5
 832 000e 04D8     		bhi	.L58
 833 0010 DFE803F0 		tbb	[pc, r3]
 834              	.LVL76:
 835              	.L60:
 836 0014 38       		.byte	(.L64-.L60)/2
 837 0015 05       		.byte	(.L63-.L60)/2
 838 0016 14       		.byte	(.L62-.L60)/2
 839 0017 23       		.byte	(.L61-.L60)/2
 840 0018 3E       		.byte	(.L67-.L60)/2
 841 0019 3E       		.byte	(.L67-.L60)/2
 842              		.p2align 1
 843              	.L58:
 259:Core/Src/u8g2/Src/u8x8_cad.c ****   {
 844              		.loc 1 259 3 view .LVU180
 845 001a 0020     		movs	r0, #0
 846              	.LVL77:
 259:Core/Src/u8g2/Src/u8x8_cad.c ****   {
 847              		.loc 1 259 3 view .LVU181
 848 001c 39E0     		b	.L59
 849              	.LVL78:
 850              	.L63:
 262:Core/Src/u8g2/Src/u8x8_cad.c ****       u8x8_byte_StartTransfer(u8x8);
 851              		.loc 1 262 7 is_stmt 1 view .LVU182
 852 001e 0121     		movs	r1, #1
ARM GAS  C:\Users\MOROSH~1\AppData\Local\Temp\cceDu29x.s 			page 27


 853              	.LVL79:
 262:Core/Src/u8g2/Src/u8x8_cad.c ****       u8x8_byte_StartTransfer(u8x8);
 854              		.loc 1 262 7 is_stmt 0 view .LVU183
 855 0020 FFF7FEFF 		bl	u8x8_byte_SetDC
 856              	.LVL80:
 263:Core/Src/u8g2/Src/u8x8_cad.c ****       u8x8_byte_SendByte(u8x8, arg_int);
 857              		.loc 1 263 7 is_stmt 1 view .LVU184
 858 0024 2846     		mov	r0, r5
 859 0026 FFF7FEFF 		bl	u8x8_byte_StartTransfer
 860              	.LVL81:
 264:Core/Src/u8g2/Src/u8x8_cad.c ****       u8x8_byte_EndTransfer(u8x8);
 861              		.loc 1 264 7 view .LVU185
 862 002a 2146     		mov	r1, r4
 863 002c 2846     		mov	r0, r5
 864 002e FFF7FEFF 		bl	u8x8_byte_SendByte
 865              	.LVL82:
 265:Core/Src/u8g2/Src/u8x8_cad.c ****       break;
 866              		.loc 1 265 7 view .LVU186
 867 0032 2846     		mov	r0, r5
 868 0034 FFF7FEFF 		bl	u8x8_byte_EndTransfer
 869              	.LVL83:
 266:Core/Src/u8g2/Src/u8x8_cad.c ****     case U8X8_MSG_CAD_SEND_ARG:
 870              		.loc 1 266 7 view .LVU187
 294:Core/Src/u8g2/Src/u8x8_cad.c **** }
 871              		.loc 1 294 10 is_stmt 0 view .LVU188
 872 0038 0120     		movs	r0, #1
 266:Core/Src/u8g2/Src/u8x8_cad.c ****     case U8X8_MSG_CAD_SEND_ARG:
 873              		.loc 1 266 7 view .LVU189
 874 003a 2AE0     		b	.L59
 875              	.LVL84:
 876              	.L62:
 268:Core/Src/u8g2/Src/u8x8_cad.c ****       u8x8_byte_StartTransfer(u8x8);
 877              		.loc 1 268 7 is_stmt 1 view .LVU190
 878 003c 0121     		movs	r1, #1
 879              	.LVL85:
 268:Core/Src/u8g2/Src/u8x8_cad.c ****       u8x8_byte_StartTransfer(u8x8);
 880              		.loc 1 268 7 is_stmt 0 view .LVU191
 881 003e FFF7FEFF 		bl	u8x8_byte_SetDC
 882              	.LVL86:
 269:Core/Src/u8g2/Src/u8x8_cad.c ****       u8x8_byte_SendByte(u8x8, arg_int);
 883              		.loc 1 269 7 is_stmt 1 view .LVU192
 884 0042 2846     		mov	r0, r5
 885 0044 FFF7FEFF 		bl	u8x8_byte_StartTransfer
 886              	.LVL87:
 270:Core/Src/u8g2/Src/u8x8_cad.c ****       u8x8_byte_EndTransfer(u8x8);
 887              		.loc 1 270 7 view .LVU193
 888 0048 2146     		mov	r1, r4
 889 004a 2846     		mov	r0, r5
 890 004c FFF7FEFF 		bl	u8x8_byte_SendByte
 891              	.LVL88:
 271:Core/Src/u8g2/Src/u8x8_cad.c ****       break;
 892              		.loc 1 271 7 view .LVU194
 893 0050 2846     		mov	r0, r5
 894 0052 FFF7FEFF 		bl	u8x8_byte_EndTransfer
 895              	.LVL89:
 272:Core/Src/u8g2/Src/u8x8_cad.c ****     case U8X8_MSG_CAD_SEND_DATA:
 896              		.loc 1 272 7 view .LVU195
ARM GAS  C:\Users\MOROSH~1\AppData\Local\Temp\cceDu29x.s 			page 28


 294:Core/Src/u8g2/Src/u8x8_cad.c **** }
 897              		.loc 1 294 10 is_stmt 0 view .LVU196
 898 0056 0120     		movs	r0, #1
 272:Core/Src/u8g2/Src/u8x8_cad.c ****     case U8X8_MSG_CAD_SEND_DATA:
 899              		.loc 1 272 7 view .LVU197
 900 0058 1BE0     		b	.L59
 901              	.LVL90:
 902              	.L61:
 274:Core/Src/u8g2/Src/u8x8_cad.c ****       data = (uint8_t *)arg_ptr;
 903              		.loc 1 274 7 is_stmt 1 view .LVU198
 904 005a 0021     		movs	r1, #0
 905              	.LVL91:
 274:Core/Src/u8g2/Src/u8x8_cad.c ****       data = (uint8_t *)arg_ptr;
 906              		.loc 1 274 7 is_stmt 0 view .LVU199
 907 005c FFF7FEFF 		bl	u8x8_byte_SetDC
 908              	.LVL92:
 275:Core/Src/u8g2/Src/u8x8_cad.c ****       while( arg_int > 0 )
 909              		.loc 1 275 7 is_stmt 1 view .LVU200
 276:Core/Src/u8g2/Src/u8x8_cad.c ****       {
 910              		.loc 1 276 7 view .LVU201
 276:Core/Src/u8g2/Src/u8x8_cad.c ****       {
 911              		.loc 1 276 12 is_stmt 0 view .LVU202
 912 0060 0CE0     		b	.L65
 913              	.LVL93:
 914              	.L66:
 278:Core/Src/u8g2/Src/u8x8_cad.c ****         u8x8_byte_SendByte(u8x8, *data);
 915              		.loc 1 278 9 is_stmt 1 view .LVU203
 916 0062 2846     		mov	r0, r5
 917 0064 FFF7FEFF 		bl	u8x8_byte_StartTransfer
 918              	.LVL94:
 279:Core/Src/u8g2/Src/u8x8_cad.c ****         u8x8_byte_EndTransfer(u8x8);
 919              		.loc 1 279 9 view .LVU204
 920 0068 16F8011B 		ldrb	r1, [r6], #1	@ zero_extendqisi2
 921              	.LVL95:
 279:Core/Src/u8g2/Src/u8x8_cad.c ****         u8x8_byte_EndTransfer(u8x8);
 922              		.loc 1 279 9 is_stmt 0 view .LVU205
 923 006c 2846     		mov	r0, r5
 924 006e FFF7FEFF 		bl	u8x8_byte_SendByte
 925              	.LVL96:
 280:Core/Src/u8g2/Src/u8x8_cad.c ****         data++;
 926              		.loc 1 280 9 is_stmt 1 view .LVU206
 927 0072 2846     		mov	r0, r5
 928 0074 FFF7FEFF 		bl	u8x8_byte_EndTransfer
 929              	.LVL97:
 281:Core/Src/u8g2/Src/u8x8_cad.c ****         arg_int--;
 930              		.loc 1 281 9 view .LVU207
 282:Core/Src/u8g2/Src/u8x8_cad.c ****       }
 931              		.loc 1 282 9 view .LVU208
 282:Core/Src/u8g2/Src/u8x8_cad.c ****       }
 932              		.loc 1 282 16 is_stmt 0 view .LVU209
 933 0078 013C     		subs	r4, r4, #1
 934              	.LVL98:
 282:Core/Src/u8g2/Src/u8x8_cad.c ****       }
 935              		.loc 1 282 16 view .LVU210
 936 007a E4B2     		uxtb	r4, r4
 937              	.LVL99:
 938              	.L65:
ARM GAS  C:\Users\MOROSH~1\AppData\Local\Temp\cceDu29x.s 			page 29


 276:Core/Src/u8g2/Src/u8x8_cad.c ****       {
 939              		.loc 1 276 12 is_stmt 1 view .LVU211
 940 007c 002C     		cmp	r4, #0
 941 007e F0D1     		bne	.L66
 294:Core/Src/u8g2/Src/u8x8_cad.c **** }
 942              		.loc 1 294 10 is_stmt 0 view .LVU212
 943 0080 0120     		movs	r0, #1
 944 0082 06E0     		b	.L59
 945              	.LVL100:
 946              	.L64:
 286:Core/Src/u8g2/Src/u8x8_cad.c ****       break;
 947              		.loc 1 286 7 is_stmt 1 view .LVU213
 286:Core/Src/u8g2/Src/u8x8_cad.c ****       break;
 948              		.loc 1 286 11 is_stmt 0 view .LVU214
 949 0084 0769     		ldr	r7, [r0, #16]
 286:Core/Src/u8g2/Src/u8x8_cad.c ****       break;
 950              		.loc 1 286 7 view .LVU215
 951 0086 3346     		mov	r3, r6
 952 0088 2246     		mov	r2, r4
 953 008a B847     		blx	r7
 954              	.LVL101:
 287:Core/Src/u8g2/Src/u8x8_cad.c ****     case U8X8_MSG_CAD_START_TRANSFER:
 955              		.loc 1 287 7 is_stmt 1 view .LVU216
 294:Core/Src/u8g2/Src/u8x8_cad.c **** }
 956              		.loc 1 294 10 is_stmt 0 view .LVU217
 957 008c 0120     		movs	r0, #1
 287:Core/Src/u8g2/Src/u8x8_cad.c ****     case U8X8_MSG_CAD_START_TRANSFER:
 958              		.loc 1 287 7 view .LVU218
 959 008e 00E0     		b	.L59
 960              	.LVL102:
 961              	.L67:
 294:Core/Src/u8g2/Src/u8x8_cad.c **** }
 962              		.loc 1 294 10 view .LVU219
 963 0090 0120     		movs	r0, #1
 964              	.LVL103:
 965              	.L59:
 295:Core/Src/u8g2/Src/u8x8_cad.c **** 
 966              		.loc 1 295 1 view .LVU220
 967 0092 F8BD     		pop	{r3, r4, r5, r6, r7, pc}
 295:Core/Src/u8g2/Src/u8x8_cad.c **** 
 968              		.loc 1 295 1 view .LVU221
 969              		.cfi_endproc
 970              	.LFE11:
 972              		.section	.text.u8x8_cad_100,"ax",%progbits
 973              		.align	1
 974              		.global	u8x8_cad_100
 975              		.syntax unified
 976              		.thumb
 977              		.thumb_func
 979              	u8x8_cad_100:
 980              	.LVL104:
 981              	.LFB12:
 304:Core/Src/u8g2/Src/u8x8_cad.c ****   switch(msg)
 982              		.loc 1 304 1 is_stmt 1 view -0
 983              		.cfi_startproc
 984              		@ args = 0, pretend = 0, frame = 0
 985              		@ frame_needed = 0, uses_anonymous_args = 0
ARM GAS  C:\Users\MOROSH~1\AppData\Local\Temp\cceDu29x.s 			page 30


 304:Core/Src/u8g2/Src/u8x8_cad.c ****   switch(msg)
 986              		.loc 1 304 1 is_stmt 0 view .LVU223
 987 0000 2DE9F041 		push	{r4, r5, r6, r7, r8, lr}
 988              	.LCFI23:
 989              		.cfi_def_cfa_offset 24
 990              		.cfi_offset 4, -24
 991              		.cfi_offset 5, -20
 992              		.cfi_offset 6, -16
 993              		.cfi_offset 7, -12
 994              		.cfi_offset 8, -8
 995              		.cfi_offset 14, -4
 996 0004 0446     		mov	r4, r0
 997 0006 0D46     		mov	r5, r1
 998 0008 1646     		mov	r6, r2
 999 000a 1F46     		mov	r7, r3
 305:Core/Src/u8g2/Src/u8x8_cad.c ****   {
 1000              		.loc 1 305 3 is_stmt 1 view .LVU224
 1001 000c A1F11403 		sub	r3, r1, #20
 1002              	.LVL105:
 305:Core/Src/u8g2/Src/u8x8_cad.c ****   {
 1003              		.loc 1 305 3 is_stmt 0 view .LVU225
 1004 0010 052B     		cmp	r3, #5
 1005 0012 22D8     		bhi	.L76
 1006 0014 DFE803F0 		tbb	[pc, r3]
 1007              	.LVL106:
 1008              	.L72:
 1009 0018 18       		.byte	(.L71-.L72)/2
 1010 0019 03       		.byte	(.L75-.L72)/2
 1011 001a 0C       		.byte	(.L74-.L72)/2
 1012 001b 15       		.byte	(.L73-.L72)/2
 1013 001c 18       		.byte	(.L71-.L72)/2
 1014 001d 18       		.byte	(.L71-.L72)/2
 1015              		.p2align 1
 1016              	.L75:
 308:Core/Src/u8g2/Src/u8x8_cad.c ****       u8x8_byte_SendByte(u8x8, arg_int);
 1017              		.loc 1 308 7 is_stmt 1 view .LVU226
 1018 001e 0121     		movs	r1, #1
 1019              	.LVL107:
 308:Core/Src/u8g2/Src/u8x8_cad.c ****       u8x8_byte_SendByte(u8x8, arg_int);
 1020              		.loc 1 308 7 is_stmt 0 view .LVU227
 1021 0020 FFF7FEFF 		bl	u8x8_byte_SetDC
 1022              	.LVL108:
 309:Core/Src/u8g2/Src/u8x8_cad.c ****       break;
 1023              		.loc 1 309 7 is_stmt 1 view .LVU228
 1024 0024 3146     		mov	r1, r6
 1025 0026 2046     		mov	r0, r4
 1026 0028 FFF7FEFF 		bl	u8x8_byte_SendByte
 1027              	.LVL109:
 310:Core/Src/u8g2/Src/u8x8_cad.c ****     case U8X8_MSG_CAD_SEND_ARG:
 1028              		.loc 1 310 7 view .LVU229
 327:Core/Src/u8g2/Src/u8x8_cad.c **** }
 1029              		.loc 1 327 10 is_stmt 0 view .LVU230
 1030 002c 0120     		movs	r0, #1
 310:Core/Src/u8g2/Src/u8x8_cad.c ****     case U8X8_MSG_CAD_SEND_ARG:
 1031              		.loc 1 310 7 view .LVU231
 1032 002e 12E0     		b	.L70
 1033              	.LVL110:
ARM GAS  C:\Users\MOROSH~1\AppData\Local\Temp\cceDu29x.s 			page 31


 1034              	.L74:
 312:Core/Src/u8g2/Src/u8x8_cad.c ****       u8x8_byte_SendByte(u8x8, arg_int);
 1035              		.loc 1 312 7 is_stmt 1 view .LVU232
 1036 0030 0021     		movs	r1, #0
 1037              	.LVL111:
 312:Core/Src/u8g2/Src/u8x8_cad.c ****       u8x8_byte_SendByte(u8x8, arg_int);
 1038              		.loc 1 312 7 is_stmt 0 view .LVU233
 1039 0032 FFF7FEFF 		bl	u8x8_byte_SetDC
 1040              	.LVL112:
 313:Core/Src/u8g2/Src/u8x8_cad.c ****       break;
 1041              		.loc 1 313 7 is_stmt 1 view .LVU234
 1042 0036 3146     		mov	r1, r6
 1043 0038 2046     		mov	r0, r4
 1044 003a FFF7FEFF 		bl	u8x8_byte_SendByte
 1045              	.LVL113:
 314:Core/Src/u8g2/Src/u8x8_cad.c ****     case U8X8_MSG_CAD_SEND_DATA:
 1046              		.loc 1 314 7 view .LVU235
 327:Core/Src/u8g2/Src/u8x8_cad.c **** }
 1047              		.loc 1 327 10 is_stmt 0 view .LVU236
 1048 003e 0120     		movs	r0, #1
 314:Core/Src/u8g2/Src/u8x8_cad.c ****     case U8X8_MSG_CAD_SEND_DATA:
 1049              		.loc 1 314 7 view .LVU237
 1050 0040 09E0     		b	.L70
 1051              	.LVL114:
 1052              	.L73:
 316:Core/Src/u8g2/Src/u8x8_cad.c ****       //u8x8_byte_SendBytes(u8x8, arg_int, arg_ptr);
 1053              		.loc 1 316 7 is_stmt 1 view .LVU238
 1054 0042 0021     		movs	r1, #0
 1055              	.LVL115:
 316:Core/Src/u8g2/Src/u8x8_cad.c ****       //u8x8_byte_SendBytes(u8x8, arg_int, arg_ptr);
 1056              		.loc 1 316 7 is_stmt 0 view .LVU239
 1057 0044 FFF7FEFF 		bl	u8x8_byte_SetDC
 1058              	.LVL116:
 1059              	.L71:
 323:Core/Src/u8g2/Src/u8x8_cad.c ****     default:
 1060              		.loc 1 323 7 is_stmt 1 view .LVU240
 323:Core/Src/u8g2/Src/u8x8_cad.c ****     default:
 1061              		.loc 1 323 18 is_stmt 0 view .LVU241
 1062 0048 D4F81080 		ldr	r8, [r4, #16]
 323:Core/Src/u8g2/Src/u8x8_cad.c ****     default:
 1063              		.loc 1 323 14 view .LVU242
 1064 004c 3B46     		mov	r3, r7
 1065 004e 3246     		mov	r2, r6
 1066 0050 2946     		mov	r1, r5
 1067 0052 2046     		mov	r0, r4
 1068 0054 C047     		blx	r8
 1069              	.LVL117:
 1070              	.L70:
 328:Core/Src/u8g2/Src/u8x8_cad.c **** 
 1071              		.loc 1 328 1 view .LVU243
 1072 0056 BDE8F081 		pop	{r4, r5, r6, r7, r8, pc}
 1073              	.LVL118:
 1074              	.L76:
 305:Core/Src/u8g2/Src/u8x8_cad.c ****   {
 1075              		.loc 1 305 3 view .LVU244
 1076 005a 0020     		movs	r0, #0
 1077              	.LVL119:
ARM GAS  C:\Users\MOROSH~1\AppData\Local\Temp\cceDu29x.s 			page 32


 305:Core/Src/u8g2/Src/u8x8_cad.c ****   {
 1078              		.loc 1 305 3 view .LVU245
 1079 005c FBE7     		b	.L70
 1080              		.cfi_endproc
 1081              	.LFE12:
 1083              		.section	.text.u8x8_cad_001,"ax",%progbits
 1084              		.align	1
 1085              		.global	u8x8_cad_001
 1086              		.syntax unified
 1087              		.thumb
 1088              		.thumb_func
 1090              	u8x8_cad_001:
 1091              	.LVL120:
 1092              	.LFB13:
 336:Core/Src/u8g2/Src/u8x8_cad.c ****   switch(msg)
 1093              		.loc 1 336 1 is_stmt 1 view -0
 1094              		.cfi_startproc
 1095              		@ args = 0, pretend = 0, frame = 0
 1096              		@ frame_needed = 0, uses_anonymous_args = 0
 336:Core/Src/u8g2/Src/u8x8_cad.c ****   switch(msg)
 1097              		.loc 1 336 1 is_stmt 0 view .LVU247
 1098 0000 2DE9F041 		push	{r4, r5, r6, r7, r8, lr}
 1099              	.LCFI24:
 1100              		.cfi_def_cfa_offset 24
 1101              		.cfi_offset 4, -24
 1102              		.cfi_offset 5, -20
 1103              		.cfi_offset 6, -16
 1104              		.cfi_offset 7, -12
 1105              		.cfi_offset 8, -8
 1106              		.cfi_offset 14, -4
 1107 0004 0446     		mov	r4, r0
 1108 0006 0D46     		mov	r5, r1
 1109 0008 1646     		mov	r6, r2
 1110 000a 1F46     		mov	r7, r3
 337:Core/Src/u8g2/Src/u8x8_cad.c ****   {
 1111              		.loc 1 337 3 is_stmt 1 view .LVU248
 1112 000c A1F11403 		sub	r3, r1, #20
 1113              	.LVL121:
 337:Core/Src/u8g2/Src/u8x8_cad.c ****   {
 1114              		.loc 1 337 3 is_stmt 0 view .LVU249
 1115 0010 052B     		cmp	r3, #5
 1116 0012 22D8     		bhi	.L85
 1117 0014 DFE803F0 		tbb	[pc, r3]
 1118              	.LVL122:
 1119              	.L81:
 1120 0018 18       		.byte	(.L80-.L81)/2
 1121 0019 03       		.byte	(.L84-.L81)/2
 1122 001a 0C       		.byte	(.L83-.L81)/2
 1123 001b 15       		.byte	(.L82-.L81)/2
 1124 001c 18       		.byte	(.L80-.L81)/2
 1125 001d 18       		.byte	(.L80-.L81)/2
 1126              		.p2align 1
 1127              	.L84:
 340:Core/Src/u8g2/Src/u8x8_cad.c ****       u8x8_byte_SendByte(u8x8, arg_int);
 1128              		.loc 1 340 7 is_stmt 1 view .LVU250
 1129 001e 0021     		movs	r1, #0
 1130              	.LVL123:
ARM GAS  C:\Users\MOROSH~1\AppData\Local\Temp\cceDu29x.s 			page 33


 340:Core/Src/u8g2/Src/u8x8_cad.c ****       u8x8_byte_SendByte(u8x8, arg_int);
 1131              		.loc 1 340 7 is_stmt 0 view .LVU251
 1132 0020 FFF7FEFF 		bl	u8x8_byte_SetDC
 1133              	.LVL124:
 341:Core/Src/u8g2/Src/u8x8_cad.c ****       break;
 1134              		.loc 1 341 7 is_stmt 1 view .LVU252
 1135 0024 3146     		mov	r1, r6
 1136 0026 2046     		mov	r0, r4
 1137 0028 FFF7FEFF 		bl	u8x8_byte_SendByte
 1138              	.LVL125:
 342:Core/Src/u8g2/Src/u8x8_cad.c ****     case U8X8_MSG_CAD_SEND_ARG:
 1139              		.loc 1 342 7 view .LVU253
 359:Core/Src/u8g2/Src/u8x8_cad.c **** }
 1140              		.loc 1 359 10 is_stmt 0 view .LVU254
 1141 002c 0120     		movs	r0, #1
 342:Core/Src/u8g2/Src/u8x8_cad.c ****     case U8X8_MSG_CAD_SEND_ARG:
 1142              		.loc 1 342 7 view .LVU255
 1143 002e 12E0     		b	.L79
 1144              	.LVL126:
 1145              	.L83:
 344:Core/Src/u8g2/Src/u8x8_cad.c ****       u8x8_byte_SendByte(u8x8, arg_int);
 1146              		.loc 1 344 7 is_stmt 1 view .LVU256
 1147 0030 0021     		movs	r1, #0
 1148              	.LVL127:
 344:Core/Src/u8g2/Src/u8x8_cad.c ****       u8x8_byte_SendByte(u8x8, arg_int);
 1149              		.loc 1 344 7 is_stmt 0 view .LVU257
 1150 0032 FFF7FEFF 		bl	u8x8_byte_SetDC
 1151              	.LVL128:
 345:Core/Src/u8g2/Src/u8x8_cad.c ****       break;
 1152              		.loc 1 345 7 is_stmt 1 view .LVU258
 1153 0036 3146     		mov	r1, r6
 1154 0038 2046     		mov	r0, r4
 1155 003a FFF7FEFF 		bl	u8x8_byte_SendByte
 1156              	.LVL129:
 346:Core/Src/u8g2/Src/u8x8_cad.c ****     case U8X8_MSG_CAD_SEND_DATA:
 1157              		.loc 1 346 7 view .LVU259
 359:Core/Src/u8g2/Src/u8x8_cad.c **** }
 1158              		.loc 1 359 10 is_stmt 0 view .LVU260
 1159 003e 0120     		movs	r0, #1
 346:Core/Src/u8g2/Src/u8x8_cad.c ****     case U8X8_MSG_CAD_SEND_DATA:
 1160              		.loc 1 346 7 view .LVU261
 1161 0040 09E0     		b	.L79
 1162              	.LVL130:
 1163              	.L82:
 348:Core/Src/u8g2/Src/u8x8_cad.c ****       //u8x8_byte_SendBytes(u8x8, arg_int, arg_ptr);
 1164              		.loc 1 348 7 is_stmt 1 view .LVU262
 1165 0042 0121     		movs	r1, #1
 1166              	.LVL131:
 348:Core/Src/u8g2/Src/u8x8_cad.c ****       //u8x8_byte_SendBytes(u8x8, arg_int, arg_ptr);
 1167              		.loc 1 348 7 is_stmt 0 view .LVU263
 1168 0044 FFF7FEFF 		bl	u8x8_byte_SetDC
 1169              	.LVL132:
 1170              	.L80:
 355:Core/Src/u8g2/Src/u8x8_cad.c ****     default:
 1171              		.loc 1 355 7 is_stmt 1 view .LVU264
 355:Core/Src/u8g2/Src/u8x8_cad.c ****     default:
 1172              		.loc 1 355 18 is_stmt 0 view .LVU265
ARM GAS  C:\Users\MOROSH~1\AppData\Local\Temp\cceDu29x.s 			page 34


 1173 0048 D4F81080 		ldr	r8, [r4, #16]
 355:Core/Src/u8g2/Src/u8x8_cad.c ****     default:
 1174              		.loc 1 355 14 view .LVU266
 1175 004c 3B46     		mov	r3, r7
 1176 004e 3246     		mov	r2, r6
 1177 0050 2946     		mov	r1, r5
 1178 0052 2046     		mov	r0, r4
 1179 0054 C047     		blx	r8
 1180              	.LVL133:
 1181              	.L79:
 360:Core/Src/u8g2/Src/u8x8_cad.c **** 
 1182              		.loc 1 360 1 view .LVU267
 1183 0056 BDE8F081 		pop	{r4, r5, r6, r7, r8, pc}
 1184              	.LVL134:
 1185              	.L85:
 337:Core/Src/u8g2/Src/u8x8_cad.c ****   {
 1186              		.loc 1 337 3 view .LVU268
 1187 005a 0020     		movs	r0, #0
 1188              	.LVL135:
 337:Core/Src/u8g2/Src/u8x8_cad.c ****   {
 1189              		.loc 1 337 3 view .LVU269
 1190 005c FBE7     		b	.L79
 1191              		.cfi_endproc
 1192              	.LFE13:
 1194              		.section	.text.u8x8_cad_011,"ax",%progbits
 1195              		.align	1
 1196              		.global	u8x8_cad_011
 1197              		.syntax unified
 1198              		.thumb
 1199              		.thumb_func
 1201              	u8x8_cad_011:
 1202              	.LVL136:
 1203              	.LFB14:
 368:Core/Src/u8g2/Src/u8x8_cad.c ****   switch(msg)
 1204              		.loc 1 368 1 is_stmt 1 view -0
 1205              		.cfi_startproc
 1206              		@ args = 0, pretend = 0, frame = 0
 1207              		@ frame_needed = 0, uses_anonymous_args = 0
 368:Core/Src/u8g2/Src/u8x8_cad.c ****   switch(msg)
 1208              		.loc 1 368 1 is_stmt 0 view .LVU271
 1209 0000 2DE9F041 		push	{r4, r5, r6, r7, r8, lr}
 1210              	.LCFI25:
 1211              		.cfi_def_cfa_offset 24
 1212              		.cfi_offset 4, -24
 1213              		.cfi_offset 5, -20
 1214              		.cfi_offset 6, -16
 1215              		.cfi_offset 7, -12
 1216              		.cfi_offset 8, -8
 1217              		.cfi_offset 14, -4
 1218 0004 0446     		mov	r4, r0
 1219 0006 0D46     		mov	r5, r1
 1220 0008 1646     		mov	r6, r2
 1221 000a 1F46     		mov	r7, r3
 369:Core/Src/u8g2/Src/u8x8_cad.c ****   {
 1222              		.loc 1 369 3 is_stmt 1 view .LVU272
 1223 000c A1F11403 		sub	r3, r1, #20
 1224              	.LVL137:
ARM GAS  C:\Users\MOROSH~1\AppData\Local\Temp\cceDu29x.s 			page 35


 369:Core/Src/u8g2/Src/u8x8_cad.c ****   {
 1225              		.loc 1 369 3 is_stmt 0 view .LVU273
 1226 0010 052B     		cmp	r3, #5
 1227 0012 22D8     		bhi	.L94
 1228 0014 DFE803F0 		tbb	[pc, r3]
 1229              	.LVL138:
 1230              	.L90:
 1231 0018 18       		.byte	(.L89-.L90)/2
 1232 0019 03       		.byte	(.L93-.L90)/2
 1233 001a 0C       		.byte	(.L92-.L90)/2
 1234 001b 15       		.byte	(.L91-.L90)/2
 1235 001c 18       		.byte	(.L89-.L90)/2
 1236 001d 18       		.byte	(.L89-.L90)/2
 1237              		.p2align 1
 1238              	.L93:
 372:Core/Src/u8g2/Src/u8x8_cad.c ****       u8x8_byte_SendByte(u8x8, arg_int);
 1239              		.loc 1 372 7 is_stmt 1 view .LVU274
 1240 001e 0021     		movs	r1, #0
 1241              	.LVL139:
 372:Core/Src/u8g2/Src/u8x8_cad.c ****       u8x8_byte_SendByte(u8x8, arg_int);
 1242              		.loc 1 372 7 is_stmt 0 view .LVU275
 1243 0020 FFF7FEFF 		bl	u8x8_byte_SetDC
 1244              	.LVL140:
 373:Core/Src/u8g2/Src/u8x8_cad.c ****       break;
 1245              		.loc 1 373 7 is_stmt 1 view .LVU276
 1246 0024 3146     		mov	r1, r6
 1247 0026 2046     		mov	r0, r4
 1248 0028 FFF7FEFF 		bl	u8x8_byte_SendByte
 1249              	.LVL141:
 374:Core/Src/u8g2/Src/u8x8_cad.c ****     case U8X8_MSG_CAD_SEND_ARG:
 1250              		.loc 1 374 7 view .LVU277
 391:Core/Src/u8g2/Src/u8x8_cad.c **** }
 1251              		.loc 1 391 10 is_stmt 0 view .LVU278
 1252 002c 0120     		movs	r0, #1
 374:Core/Src/u8g2/Src/u8x8_cad.c ****     case U8X8_MSG_CAD_SEND_ARG:
 1253              		.loc 1 374 7 view .LVU279
 1254 002e 12E0     		b	.L88
 1255              	.LVL142:
 1256              	.L92:
 376:Core/Src/u8g2/Src/u8x8_cad.c ****       u8x8_byte_SendByte(u8x8, arg_int);
 1257              		.loc 1 376 7 is_stmt 1 view .LVU280
 1258 0030 0121     		movs	r1, #1
 1259              	.LVL143:
 376:Core/Src/u8g2/Src/u8x8_cad.c ****       u8x8_byte_SendByte(u8x8, arg_int);
 1260              		.loc 1 376 7 is_stmt 0 view .LVU281
 1261 0032 FFF7FEFF 		bl	u8x8_byte_SetDC
 1262              	.LVL144:
 377:Core/Src/u8g2/Src/u8x8_cad.c ****       break;
 1263              		.loc 1 377 7 is_stmt 1 view .LVU282
 1264 0036 3146     		mov	r1, r6
 1265 0038 2046     		mov	r0, r4
 1266 003a FFF7FEFF 		bl	u8x8_byte_SendByte
 1267              	.LVL145:
 378:Core/Src/u8g2/Src/u8x8_cad.c ****     case U8X8_MSG_CAD_SEND_DATA:
 1268              		.loc 1 378 7 view .LVU283
 391:Core/Src/u8g2/Src/u8x8_cad.c **** }
 1269              		.loc 1 391 10 is_stmt 0 view .LVU284
ARM GAS  C:\Users\MOROSH~1\AppData\Local\Temp\cceDu29x.s 			page 36


 1270 003e 0120     		movs	r0, #1
 378:Core/Src/u8g2/Src/u8x8_cad.c ****     case U8X8_MSG_CAD_SEND_DATA:
 1271              		.loc 1 378 7 view .LVU285
 1272 0040 09E0     		b	.L88
 1273              	.LVL146:
 1274              	.L91:
 380:Core/Src/u8g2/Src/u8x8_cad.c ****       //u8x8_byte_SendBytes(u8x8, arg_int, arg_ptr);
 1275              		.loc 1 380 7 is_stmt 1 view .LVU286
 1276 0042 0121     		movs	r1, #1
 1277              	.LVL147:
 380:Core/Src/u8g2/Src/u8x8_cad.c ****       //u8x8_byte_SendBytes(u8x8, arg_int, arg_ptr);
 1278              		.loc 1 380 7 is_stmt 0 view .LVU287
 1279 0044 FFF7FEFF 		bl	u8x8_byte_SetDC
 1280              	.LVL148:
 1281              	.L89:
 387:Core/Src/u8g2/Src/u8x8_cad.c ****     default:
 1282              		.loc 1 387 7 is_stmt 1 view .LVU288
 387:Core/Src/u8g2/Src/u8x8_cad.c ****     default:
 1283              		.loc 1 387 18 is_stmt 0 view .LVU289
 1284 0048 D4F81080 		ldr	r8, [r4, #16]
 387:Core/Src/u8g2/Src/u8x8_cad.c ****     default:
 1285              		.loc 1 387 14 view .LVU290
 1286 004c 3B46     		mov	r3, r7
 1287 004e 3246     		mov	r2, r6
 1288 0050 2946     		mov	r1, r5
 1289 0052 2046     		mov	r0, r4
 1290 0054 C047     		blx	r8
 1291              	.LVL149:
 1292              	.L88:
 392:Core/Src/u8g2/Src/u8x8_cad.c **** 
 1293              		.loc 1 392 1 view .LVU291
 1294 0056 BDE8F081 		pop	{r4, r5, r6, r7, r8, pc}
 1295              	.LVL150:
 1296              	.L94:
 369:Core/Src/u8g2/Src/u8x8_cad.c ****   {
 1297              		.loc 1 369 3 view .LVU292
 1298 005a 0020     		movs	r0, #0
 1299              	.LVL151:
 369:Core/Src/u8g2/Src/u8x8_cad.c ****   {
 1300              		.loc 1 369 3 view .LVU293
 1301 005c FBE7     		b	.L88
 1302              		.cfi_endproc
 1303              	.LFE14:
 1305              		.section	.text.u8x8_cad_st7920_spi,"ax",%progbits
 1306              		.align	1
 1307              		.global	u8x8_cad_st7920_spi
 1308              		.syntax unified
 1309              		.thumb
 1310              		.thumb_func
 1312              	u8x8_cad_st7920_spi:
 1313              	.LVL152:
 1314              	.LFB15:
 397:Core/Src/u8g2/Src/u8x8_cad.c ****   uint8_t *data;
 1315              		.loc 1 397 1 is_stmt 1 view -0
 1316              		.cfi_startproc
 1317              		@ args = 0, pretend = 0, frame = 0
 1318              		@ frame_needed = 0, uses_anonymous_args = 0
ARM GAS  C:\Users\MOROSH~1\AppData\Local\Temp\cceDu29x.s 			page 37


 397:Core/Src/u8g2/Src/u8x8_cad.c ****   uint8_t *data;
 1319              		.loc 1 397 1 is_stmt 0 view .LVU295
 1320 0000 F8B5     		push	{r3, r4, r5, r6, r7, lr}
 1321              	.LCFI26:
 1322              		.cfi_def_cfa_offset 24
 1323              		.cfi_offset 3, -24
 1324              		.cfi_offset 4, -20
 1325              		.cfi_offset 5, -16
 1326              		.cfi_offset 6, -12
 1327              		.cfi_offset 7, -8
 1328              		.cfi_offset 14, -4
 1329 0002 0746     		mov	r7, r0
 1330 0004 1646     		mov	r6, r2
 1331 0006 1D46     		mov	r5, r3
 398:Core/Src/u8g2/Src/u8x8_cad.c ****   uint8_t b;
 1332              		.loc 1 398 3 is_stmt 1 view .LVU296
 399:Core/Src/u8g2/Src/u8x8_cad.c ****   uint8_t i;
 1333              		.loc 1 399 3 view .LVU297
 400:Core/Src/u8g2/Src/u8x8_cad.c ****   static uint8_t buf[16];
 1334              		.loc 1 400 3 view .LVU298
 401:Core/Src/u8g2/Src/u8x8_cad.c ****   uint8_t *ptr;
 1335              		.loc 1 401 3 view .LVU299
 402:Core/Src/u8g2/Src/u8x8_cad.c ****   
 1336              		.loc 1 402 3 view .LVU300
 404:Core/Src/u8g2/Src/u8x8_cad.c ****   {
 1337              		.loc 1 404 3 view .LVU301
 1338 0008 A1F11403 		sub	r3, r1, #20
 1339              	.LVL153:
 404:Core/Src/u8g2/Src/u8x8_cad.c ****   {
 1340              		.loc 1 404 3 is_stmt 0 view .LVU302
 1341 000c 052B     		cmp	r3, #5
 1342 000e 74D8     		bhi	.L107
 1343 0010 DFE803F0 		tbb	[pc, r3]
 1344              	.LVL154:
 1345              	.L99:
 1346 0014 6E       		.byte	(.L98-.L99)/2
 1347 0015 03       		.byte	(.L102-.L99)/2
 1348 0016 22       		.byte	(.L101-.L99)/2
 1349 0017 32       		.byte	(.L100-.L99)/2
 1350 0018 6E       		.byte	(.L98-.L99)/2
 1351 0019 6E       		.byte	(.L98-.L99)/2
 1352              		.p2align 1
 1353              	.L102:
 407:Core/Src/u8g2/Src/u8x8_cad.c ****       u8x8_gpio_Delay(u8x8, U8X8_MSG_DELAY_NANO, 1);
 1354              		.loc 1 407 7 is_stmt 1 view .LVU303
 1355 001a F821     		movs	r1, #248
 1356              	.LVL155:
 407:Core/Src/u8g2/Src/u8x8_cad.c ****       u8x8_gpio_Delay(u8x8, U8X8_MSG_DELAY_NANO, 1);
 1357              		.loc 1 407 7 is_stmt 0 view .LVU304
 1358 001c FFF7FEFF 		bl	u8x8_byte_SendByte
 1359              	.LVL156:
 408:Core/Src/u8g2/Src/u8x8_cad.c ****       u8x8_byte_SendByte(u8x8, arg_int & 0x0f0);
 1360              		.loc 1 408 7 is_stmt 1 view .LVU305
 1361 0020 0122     		movs	r2, #1
 1362 0022 2C21     		movs	r1, #44
 1363 0024 3846     		mov	r0, r7
 1364 0026 FFF7FEFF 		bl	u8x8_gpio_call
ARM GAS  C:\Users\MOROSH~1\AppData\Local\Temp\cceDu29x.s 			page 38


 1365              	.LVL157:
 409:Core/Src/u8g2/Src/u8x8_cad.c ****       u8x8_gpio_Delay(u8x8, U8X8_MSG_DELAY_NANO, 1);
 1366              		.loc 1 409 7 view .LVU306
 1367 002a 06F0F001 		and	r1, r6, #240
 1368 002e 3846     		mov	r0, r7
 1369 0030 FFF7FEFF 		bl	u8x8_byte_SendByte
 1370              	.LVL158:
 410:Core/Src/u8g2/Src/u8x8_cad.c ****       u8x8_byte_SendByte(u8x8, arg_int << 4);
 1371              		.loc 1 410 7 view .LVU307
 1372 0034 0122     		movs	r2, #1
 1373 0036 2C21     		movs	r1, #44
 1374 0038 3846     		mov	r0, r7
 1375 003a FFF7FEFF 		bl	u8x8_gpio_call
 1376              	.LVL159:
 411:Core/Src/u8g2/Src/u8x8_cad.c ****       u8x8_gpio_Delay(u8x8, U8X8_MSG_DELAY_NANO, 1);
 1377              		.loc 1 411 7 view .LVU308
 1378 003e 3101     		lsls	r1, r6, #4
 1379 0040 01F0F001 		and	r1, r1, #240
 1380 0044 3846     		mov	r0, r7
 1381 0046 FFF7FEFF 		bl	u8x8_byte_SendByte
 1382              	.LVL160:
 412:Core/Src/u8g2/Src/u8x8_cad.c ****       break;
 1383              		.loc 1 412 7 view .LVU309
 1384 004a 0122     		movs	r2, #1
 1385 004c 2C21     		movs	r1, #44
 1386 004e 3846     		mov	r0, r7
 1387 0050 FFF7FEFF 		bl	u8x8_gpio_call
 1388              	.LVL161:
 413:Core/Src/u8g2/Src/u8x8_cad.c ****     case U8X8_MSG_CAD_SEND_ARG:
 1389              		.loc 1 413 7 view .LVU310
 463:Core/Src/u8g2/Src/u8x8_cad.c **** }
 1390              		.loc 1 463 10 is_stmt 0 view .LVU311
 1391 0054 0120     		movs	r0, #1
 1392              	.LVL162:
 1393              	.L97:
 464:Core/Src/u8g2/Src/u8x8_cad.c **** 
 1394              		.loc 1 464 1 view .LVU312
 1395 0056 F8BD     		pop	{r3, r4, r5, r6, r7, pc}
 1396              	.LVL163:
 1397              	.L101:
 415:Core/Src/u8g2/Src/u8x8_cad.c ****       u8x8_byte_SendByte(u8x8, arg_int & 0x0f0);
 1398              		.loc 1 415 7 is_stmt 1 view .LVU313
 1399 0058 F821     		movs	r1, #248
 1400              	.LVL164:
 415:Core/Src/u8g2/Src/u8x8_cad.c ****       u8x8_byte_SendByte(u8x8, arg_int & 0x0f0);
 1401              		.loc 1 415 7 is_stmt 0 view .LVU314
 1402 005a FFF7FEFF 		bl	u8x8_byte_SendByte
 1403              	.LVL165:
 416:Core/Src/u8g2/Src/u8x8_cad.c ****       u8x8_byte_SendByte(u8x8, arg_int << 4);
 1404              		.loc 1 416 7 is_stmt 1 view .LVU315
 1405 005e 06F0F001 		and	r1, r6, #240
 1406 0062 3846     		mov	r0, r7
 1407 0064 FFF7FEFF 		bl	u8x8_byte_SendByte
 1408              	.LVL166:
 417:Core/Src/u8g2/Src/u8x8_cad.c ****       break;
 1409              		.loc 1 417 7 view .LVU316
 1410 0068 3101     		lsls	r1, r6, #4
ARM GAS  C:\Users\MOROSH~1\AppData\Local\Temp\cceDu29x.s 			page 39


 1411 006a 01F0F001 		and	r1, r1, #240
 1412 006e 3846     		mov	r0, r7
 1413 0070 FFF7FEFF 		bl	u8x8_byte_SendByte
 1414              	.LVL167:
 418:Core/Src/u8g2/Src/u8x8_cad.c ****     case U8X8_MSG_CAD_SEND_DATA:
 1415              		.loc 1 418 7 view .LVU317
 463:Core/Src/u8g2/Src/u8x8_cad.c **** }
 1416              		.loc 1 463 10 is_stmt 0 view .LVU318
 1417 0074 0120     		movs	r0, #1
 418:Core/Src/u8g2/Src/u8x8_cad.c ****     case U8X8_MSG_CAD_SEND_DATA:
 1418              		.loc 1 418 7 view .LVU319
 1419 0076 EEE7     		b	.L97
 1420              	.LVL168:
 1421              	.L100:
 421:Core/Src/u8g2/Src/u8x8_cad.c ****       u8x8_gpio_Delay(u8x8, U8X8_MSG_DELAY_NANO, 1);
 1422              		.loc 1 421 7 is_stmt 1 view .LVU320
 1423 0078 FA21     		movs	r1, #250
 1424              	.LVL169:
 421:Core/Src/u8g2/Src/u8x8_cad.c ****       u8x8_gpio_Delay(u8x8, U8X8_MSG_DELAY_NANO, 1);
 1425              		.loc 1 421 7 is_stmt 0 view .LVU321
 1426 007a FFF7FEFF 		bl	u8x8_byte_SendByte
 1427              	.LVL170:
 422:Core/Src/u8g2/Src/u8x8_cad.c **** 
 1428              		.loc 1 422 7 is_stmt 1 view .LVU322
 1429 007e 0122     		movs	r2, #1
 1430 0080 2C21     		movs	r1, #44
 1431 0082 3846     		mov	r0, r7
 1432 0084 FFF7FEFF 		bl	u8x8_gpio_call
 1433              	.LVL171:
 426:Core/Src/u8g2/Src/u8x8_cad.c ****     
 1434              		.loc 1 426 7 view .LVU323
 429:Core/Src/u8g2/Src/u8x8_cad.c ****       {
 1435              		.loc 1 429 7 view .LVU324
 429:Core/Src/u8g2/Src/u8x8_cad.c ****       {
 1436              		.loc 1 429 12 is_stmt 0 view .LVU325
 1437 0088 17E0     		b	.L103
 1438              	.LVL172:
 1439              	.L108:
 432:Core/Src/u8g2/Src/u8x8_cad.c **** 	do
 1440              		.loc 1 432 6 view .LVU326
 1441 008a 1D4C     		ldr	r4, .L110
 431:Core/Src/u8g2/Src/u8x8_cad.c **** 	ptr = buf;
 1442              		.loc 1 431 4 view .LVU327
 1443 008c 0821     		movs	r1, #8
 1444              	.LVL173:
 1445              	.L104:
 433:Core/Src/u8g2/Src/u8x8_cad.c **** 	{
 1446              		.loc 1 433 2 is_stmt 1 discriminator 1 view .LVU328
 435:Core/Src/u8g2/Src/u8x8_cad.c **** 	  *ptr++= b & 0x0f0;
 1447              		.loc 1 435 4 discriminator 1 view .LVU329
 435:Core/Src/u8g2/Src/u8x8_cad.c **** 	  *ptr++= b & 0x0f0;
 1448              		.loc 1 435 6 is_stmt 0 discriminator 1 view .LVU330
 1449 008e 95F800C0 		ldrb	ip, [r5]	@ zero_extendqisi2
 1450 0092 0135     		adds	r5, r5, #1
 1451              	.LVL174:
 436:Core/Src/u8g2/Src/u8x8_cad.c **** 	  b <<= 4;
 1452              		.loc 1 436 4 is_stmt 1 discriminator 1 view .LVU331
ARM GAS  C:\Users\MOROSH~1\AppData\Local\Temp\cceDu29x.s 			page 40


 436:Core/Src/u8g2/Src/u8x8_cad.c **** 	  b <<= 4;
 1453              		.loc 1 436 14 is_stmt 0 discriminator 1 view .LVU332
 1454 0094 0CF0F003 		and	r3, ip, #240
 436:Core/Src/u8g2/Src/u8x8_cad.c **** 	  b <<= 4;
 1455              		.loc 1 436 10 discriminator 1 view .LVU333
 1456 0098 2370     		strb	r3, [r4]
 437:Core/Src/u8g2/Src/u8x8_cad.c **** 	  *ptr++= b;
 1457              		.loc 1 437 4 is_stmt 1 discriminator 1 view .LVU334
 437:Core/Src/u8g2/Src/u8x8_cad.c **** 	  *ptr++= b;
 1458              		.loc 1 437 6 is_stmt 0 discriminator 1 view .LVU335
 1459 009a 4FEA0C1C 		lsl	ip, ip, #4
 1460              	.LVL175:
 438:Core/Src/u8g2/Src/u8x8_cad.c **** 	  i--;
 1461              		.loc 1 438 4 is_stmt 1 discriminator 1 view .LVU336
 438:Core/Src/u8g2/Src/u8x8_cad.c **** 	  i--;
 1462              		.loc 1 438 10 is_stmt 0 discriminator 1 view .LVU337
 1463 009e 84F801C0 		strb	ip, [r4, #1]
 1464 00a2 0234     		adds	r4, r4, #2
 1465              	.LVL176:
 439:Core/Src/u8g2/Src/u8x8_cad.c **** 	} while( i > 0 );
 1466              		.loc 1 439 4 is_stmt 1 discriminator 1 view .LVU338
 439:Core/Src/u8g2/Src/u8x8_cad.c **** 	} while( i > 0 );
 1467              		.loc 1 439 5 is_stmt 0 discriminator 1 view .LVU339
 1468 00a4 0139     		subs	r1, r1, #1
 1469              	.LVL177:
 440:Core/Src/u8g2/Src/u8x8_cad.c **** 	arg_int -= 8;
 1470              		.loc 1 440 9 is_stmt 1 discriminator 1 view .LVU340
 440:Core/Src/u8g2/Src/u8x8_cad.c **** 	arg_int -= 8;
 1471              		.loc 1 440 2 is_stmt 0 discriminator 1 view .LVU341
 1472 00a6 11F0FF01 		ands	r1, r1, #255
 1473              	.LVL178:
 440:Core/Src/u8g2/Src/u8x8_cad.c **** 	arg_int -= 8;
 1474              		.loc 1 440 2 discriminator 1 view .LVU342
 1475 00aa F0D1     		bne	.L104
 441:Core/Src/u8g2/Src/u8x8_cad.c **** 	u8x8_byte_SendBytes(u8x8, 16, buf); 
 1476              		.loc 1 441 2 is_stmt 1 view .LVU343
 441:Core/Src/u8g2/Src/u8x8_cad.c **** 	u8x8_byte_SendBytes(u8x8, 16, buf); 
 1477              		.loc 1 441 10 is_stmt 0 view .LVU344
 1478 00ac 083E     		subs	r6, r6, #8
 1479              	.LVL179:
 441:Core/Src/u8g2/Src/u8x8_cad.c **** 	u8x8_byte_SendBytes(u8x8, 16, buf); 
 1480              		.loc 1 441 10 view .LVU345
 1481 00ae F6B2     		uxtb	r6, r6
 1482              	.LVL180:
 442:Core/Src/u8g2/Src/u8x8_cad.c ****       }
 1483              		.loc 1 442 2 is_stmt 1 view .LVU346
 1484 00b0 134A     		ldr	r2, .L110
 1485 00b2 1021     		movs	r1, #16
 1486 00b4 3846     		mov	r0, r7
 1487 00b6 FFF7FEFF 		bl	u8x8_byte_SendBytes
 1488              	.LVL181:
 1489              	.L103:
 429:Core/Src/u8g2/Src/u8x8_cad.c ****       {
 1490              		.loc 1 429 12 view .LVU347
 1491 00ba 072E     		cmp	r6, #7
 1492 00bc E5D8     		bhi	.L108
 1493 00be 0EE0     		b	.L105
ARM GAS  C:\Users\MOROSH~1\AppData\Local\Temp\cceDu29x.s 			page 41


 1494              	.L106:
 448:Core/Src/u8g2/Src/u8x8_cad.c **** 	u8x8_byte_SendByte(u8x8, b & 0x0f0);
 1495              		.loc 1 448 2 view .LVU348
 448:Core/Src/u8g2/Src/u8x8_cad.c **** 	u8x8_byte_SendByte(u8x8, b & 0x0f0);
 1496              		.loc 1 448 4 is_stmt 0 view .LVU349
 1497 00c0 15F8014B 		ldrb	r4, [r5], #1	@ zero_extendqisi2
 1498              	.LVL182:
 449:Core/Src/u8g2/Src/u8x8_cad.c **** 	u8x8_byte_SendByte(u8x8, b << 4);
 1499              		.loc 1 449 2 is_stmt 1 view .LVU350
 1500 00c4 04F0F001 		and	r1, r4, #240
 1501 00c8 3846     		mov	r0, r7
 1502 00ca FFF7FEFF 		bl	u8x8_byte_SendByte
 1503              	.LVL183:
 450:Core/Src/u8g2/Src/u8x8_cad.c **** 	data++;
 1504              		.loc 1 450 2 view .LVU351
 1505 00ce 2101     		lsls	r1, r4, #4
 1506 00d0 01F0F001 		and	r1, r1, #240
 1507 00d4 3846     		mov	r0, r7
 1508 00d6 FFF7FEFF 		bl	u8x8_byte_SendByte
 1509              	.LVL184:
 451:Core/Src/u8g2/Src/u8x8_cad.c **** 	arg_int--;
 1510              		.loc 1 451 2 view .LVU352
 452:Core/Src/u8g2/Src/u8x8_cad.c ****       }
 1511              		.loc 1 452 2 view .LVU353
 452:Core/Src/u8g2/Src/u8x8_cad.c ****       }
 1512              		.loc 1 452 9 is_stmt 0 view .LVU354
 1513 00da 013E     		subs	r6, r6, #1
 1514              	.LVL185:
 452:Core/Src/u8g2/Src/u8x8_cad.c ****       }
 1515              		.loc 1 452 9 view .LVU355
 1516 00dc F6B2     		uxtb	r6, r6
 1517              	.LVL186:
 1518              	.L105:
 446:Core/Src/u8g2/Src/u8x8_cad.c ****       {
 1519              		.loc 1 446 12 is_stmt 1 view .LVU356
 1520 00de 002E     		cmp	r6, #0
 1521 00e0 EED1     		bne	.L106
 454:Core/Src/u8g2/Src/u8x8_cad.c ****       break;
 1522              		.loc 1 454 7 view .LVU357
 1523 00e2 0122     		movs	r2, #1
 1524 00e4 2C21     		movs	r1, #44
 1525 00e6 3846     		mov	r0, r7
 1526 00e8 FFF7FEFF 		bl	u8x8_gpio_call
 1527              	.LVL187:
 455:Core/Src/u8g2/Src/u8x8_cad.c ****     case U8X8_MSG_CAD_INIT:
 1528              		.loc 1 455 7 view .LVU358
 463:Core/Src/u8g2/Src/u8x8_cad.c **** }
 1529              		.loc 1 463 10 is_stmt 0 view .LVU359
 1530 00ec 0120     		movs	r0, #1
 455:Core/Src/u8g2/Src/u8x8_cad.c ****     case U8X8_MSG_CAD_INIT:
 1531              		.loc 1 455 7 view .LVU360
 1532 00ee B2E7     		b	.L97
 1533              	.LVL188:
 1534              	.L98:
 459:Core/Src/u8g2/Src/u8x8_cad.c ****     default:
 1535              		.loc 1 459 7 is_stmt 1 view .LVU361
 459:Core/Src/u8g2/Src/u8x8_cad.c ****     default:
ARM GAS  C:\Users\MOROSH~1\AppData\Local\Temp\cceDu29x.s 			page 42


 1536              		.loc 1 459 18 is_stmt 0 view .LVU362
 1537 00f0 0469     		ldr	r4, [r0, #16]
 459:Core/Src/u8g2/Src/u8x8_cad.c ****     default:
 1538              		.loc 1 459 14 view .LVU363
 1539 00f2 2B46     		mov	r3, r5
 1540 00f4 3246     		mov	r2, r6
 1541 00f6 A047     		blx	r4
 1542              	.LVL189:
 459:Core/Src/u8g2/Src/u8x8_cad.c ****     default:
 1543              		.loc 1 459 14 view .LVU364
 1544 00f8 ADE7     		b	.L97
 1545              	.LVL190:
 1546              	.L107:
 404:Core/Src/u8g2/Src/u8x8_cad.c ****   {
 1547              		.loc 1 404 3 view .LVU365
 1548 00fa 0020     		movs	r0, #0
 1549              	.LVL191:
 404:Core/Src/u8g2/Src/u8x8_cad.c ****   {
 1550              		.loc 1 404 3 view .LVU366
 1551 00fc ABE7     		b	.L97
 1552              	.L111:
 1553 00fe 00BF     		.align	2
 1554              	.L110:
 1555 0100 00000000 		.word	.LANCHOR0
 1556              		.cfi_endproc
 1557              	.LFE15:
 1559              		.section	.text.u8x8_cad_ssd13xx_i2c,"ax",%progbits
 1560              		.align	1
 1561              		.global	u8x8_cad_ssd13xx_i2c
 1562              		.syntax unified
 1563              		.thumb
 1564              		.thumb_func
 1566              	u8x8_cad_ssd13xx_i2c:
 1567              	.LVL192:
 1568              	.LFB17:
 481:Core/Src/u8g2/Src/u8x8_cad.c **** 
 482:Core/Src/u8g2/Src/u8x8_cad.c **** /* classic version: will put a start/stop condition around each command and arg */
 483:Core/Src/u8g2/Src/u8x8_cad.c **** uint8_t u8x8_cad_ssd13xx_i2c(u8x8_t *u8x8, uint8_t msg, uint8_t arg_int, void *arg_ptr)
 484:Core/Src/u8g2/Src/u8x8_cad.c **** {
 1569              		.loc 1 484 1 is_stmt 1 view -0
 1570              		.cfi_startproc
 1571              		@ args = 0, pretend = 0, frame = 0
 1572              		@ frame_needed = 0, uses_anonymous_args = 0
 1573              		.loc 1 484 1 is_stmt 0 view .LVU368
 1574 0000 F8B5     		push	{r3, r4, r5, r6, r7, lr}
 1575              	.LCFI27:
 1576              		.cfi_def_cfa_offset 24
 1577              		.cfi_offset 3, -24
 1578              		.cfi_offset 4, -20
 1579              		.cfi_offset 5, -16
 1580              		.cfi_offset 6, -12
 1581              		.cfi_offset 7, -8
 1582              		.cfi_offset 14, -4
 1583 0002 0546     		mov	r5, r0
 1584 0004 1446     		mov	r4, r2
 1585 0006 1E46     		mov	r6, r3
 485:Core/Src/u8g2/Src/u8x8_cad.c ****   uint8_t *p;
ARM GAS  C:\Users\MOROSH~1\AppData\Local\Temp\cceDu29x.s 			page 43


 1586              		.loc 1 485 3 is_stmt 1 view .LVU369
 486:Core/Src/u8g2/Src/u8x8_cad.c ****   switch(msg)
 1587              		.loc 1 486 3 view .LVU370
 1588 0008 A1F1140C 		sub	ip, r1, #20
 1589 000c BCF1050F 		cmp	ip, #5
 1590 0010 04D8     		bhi	.L113
 1591 0012 DFE80CF0 		tbb	[pc, ip]
 1592              	.LVL193:
 1593              	.L115:
 1594 0016 25       		.byte	(.L118-.L115)/2
 1595 0017 05       		.byte	(.L117-.L115)/2
 1596 0018 05       		.byte	(.L117-.L115)/2
 1597 0019 1C       		.byte	(.L116-.L115)/2
 1598 001a 33       		.byte	(.L121-.L115)/2
 1599 001b 33       		.byte	(.L121-.L115)/2
 1600              		.p2align 1
 1601              	.L113:
 1602              		.loc 1 486 3 is_stmt 0 view .LVU371
 1603 001c 0020     		movs	r0, #0
 1604              	.LVL194:
 1605              		.loc 1 486 3 view .LVU372
 1606 001e 2EE0     		b	.L114
 1607              	.LVL195:
 1608              	.L117:
 487:Core/Src/u8g2/Src/u8x8_cad.c ****   {
 488:Core/Src/u8g2/Src/u8x8_cad.c ****     case U8X8_MSG_CAD_SEND_CMD:
 489:Core/Src/u8g2/Src/u8x8_cad.c ****     case U8X8_MSG_CAD_SEND_ARG:
 490:Core/Src/u8g2/Src/u8x8_cad.c ****       /* 7 Nov 2016: Can this be improved?  */
 491:Core/Src/u8g2/Src/u8x8_cad.c ****       //u8x8_byte_SetDC(u8x8, 0);
 492:Core/Src/u8g2/Src/u8x8_cad.c ****       u8x8_byte_StartTransfer(u8x8);
 1609              		.loc 1 492 7 is_stmt 1 view .LVU373
 1610 0020 FFF7FEFF 		bl	u8x8_byte_StartTransfer
 1611              	.LVL196:
 493:Core/Src/u8g2/Src/u8x8_cad.c ****       //u8x8_byte_SendByte(u8x8, u8x8_GetI2CAddress(u8x8));
 494:Core/Src/u8g2/Src/u8x8_cad.c ****       u8x8_byte_SendByte(u8x8, 0x000);
 1612              		.loc 1 494 7 view .LVU374
 1613 0024 0021     		movs	r1, #0
 1614 0026 2846     		mov	r0, r5
 1615 0028 FFF7FEFF 		bl	u8x8_byte_SendByte
 1616              	.LVL197:
 495:Core/Src/u8g2/Src/u8x8_cad.c ****       u8x8_byte_SendByte(u8x8, arg_int);
 1617              		.loc 1 495 7 view .LVU375
 1618 002c 2146     		mov	r1, r4
 1619 002e 2846     		mov	r0, r5
 1620 0030 FFF7FEFF 		bl	u8x8_byte_SendByte
 1621              	.LVL198:
 496:Core/Src/u8g2/Src/u8x8_cad.c ****       u8x8_byte_EndTransfer(u8x8);      
 1622              		.loc 1 496 7 view .LVU376
 1623 0034 2846     		mov	r0, r5
 1624 0036 FFF7FEFF 		bl	u8x8_byte_EndTransfer
 1625              	.LVL199:
 497:Core/Src/u8g2/Src/u8x8_cad.c ****       break;
 1626              		.loc 1 497 7 view .LVU377
 498:Core/Src/u8g2/Src/u8x8_cad.c ****     case U8X8_MSG_CAD_SEND_DATA:
 499:Core/Src/u8g2/Src/u8x8_cad.c ****       //u8x8_byte_SetDC(u8x8, 1);
 500:Core/Src/u8g2/Src/u8x8_cad.c ****     
 501:Core/Src/u8g2/Src/u8x8_cad.c ****       /* the FeatherWing OLED with the 32u4 transfer of long byte */
ARM GAS  C:\Users\MOROSH~1\AppData\Local\Temp\cceDu29x.s 			page 44


 502:Core/Src/u8g2/Src/u8x8_cad.c ****       /* streams was not possible. This is broken down to */
 503:Core/Src/u8g2/Src/u8x8_cad.c ****       /* smaller streams, 32 seems to be the limit... */
 504:Core/Src/u8g2/Src/u8x8_cad.c ****       /* I guess this is related to the size of the Wire buffers in Arduino */
 505:Core/Src/u8g2/Src/u8x8_cad.c ****       /* Unfortunately, this can not be handled in the byte level drivers, */
 506:Core/Src/u8g2/Src/u8x8_cad.c ****       /* so this is done here. Even further, only 24 bytes will be sent, */
 507:Core/Src/u8g2/Src/u8x8_cad.c ****       /* because there will be another byte (DC) required during the transfer */
 508:Core/Src/u8g2/Src/u8x8_cad.c ****       p = arg_ptr;
 509:Core/Src/u8g2/Src/u8x8_cad.c ****        while( arg_int > 24 )
 510:Core/Src/u8g2/Src/u8x8_cad.c ****       {
 511:Core/Src/u8g2/Src/u8x8_cad.c **** 	u8x8_i2c_data_transfer(u8x8, 24, p);
 512:Core/Src/u8g2/Src/u8x8_cad.c **** 	arg_int-=24;
 513:Core/Src/u8g2/Src/u8x8_cad.c **** 	p+=24;
 514:Core/Src/u8g2/Src/u8x8_cad.c ****       }
 515:Core/Src/u8g2/Src/u8x8_cad.c ****       u8x8_i2c_data_transfer(u8x8, arg_int, p);
 516:Core/Src/u8g2/Src/u8x8_cad.c ****       break;
 517:Core/Src/u8g2/Src/u8x8_cad.c ****     case U8X8_MSG_CAD_INIT:
 518:Core/Src/u8g2/Src/u8x8_cad.c ****       /* apply default i2c adr if required so that the start transfer msg can use this */
 519:Core/Src/u8g2/Src/u8x8_cad.c ****       if ( u8x8->i2c_address == 255 )
 520:Core/Src/u8g2/Src/u8x8_cad.c **** 	u8x8->i2c_address = 0x078;
 521:Core/Src/u8g2/Src/u8x8_cad.c ****       return u8x8->byte_cb(u8x8, msg, arg_int, arg_ptr);
 522:Core/Src/u8g2/Src/u8x8_cad.c ****     case U8X8_MSG_CAD_START_TRANSFER:
 523:Core/Src/u8g2/Src/u8x8_cad.c ****     case U8X8_MSG_CAD_END_TRANSFER:
 524:Core/Src/u8g2/Src/u8x8_cad.c ****       /* cad transfer commands are ignored */
 525:Core/Src/u8g2/Src/u8x8_cad.c ****       break;
 526:Core/Src/u8g2/Src/u8x8_cad.c ****     default:
 527:Core/Src/u8g2/Src/u8x8_cad.c ****       return 0;
 528:Core/Src/u8g2/Src/u8x8_cad.c ****   }
 529:Core/Src/u8g2/Src/u8x8_cad.c ****   return 1;
 1627              		.loc 1 529 10 is_stmt 0 view .LVU378
 1628 003a 0120     		movs	r0, #1
 497:Core/Src/u8g2/Src/u8x8_cad.c ****       break;
 1629              		.loc 1 497 7 view .LVU379
 1630 003c 1FE0     		b	.L114
 1631              	.LVL200:
 1632              	.L119:
 511:Core/Src/u8g2/Src/u8x8_cad.c **** 	arg_int-=24;
 1633              		.loc 1 511 2 is_stmt 1 view .LVU380
 1634 003e 3246     		mov	r2, r6
 1635 0040 1821     		movs	r1, #24
 1636 0042 2846     		mov	r0, r5
 1637 0044 FFF7FEFF 		bl	u8x8_i2c_data_transfer
 1638              	.LVL201:
 512:Core/Src/u8g2/Src/u8x8_cad.c **** 	p+=24;
 1639              		.loc 1 512 2 view .LVU381
 512:Core/Src/u8g2/Src/u8x8_cad.c **** 	p+=24;
 1640              		.loc 1 512 9 is_stmt 0 view .LVU382
 1641 0048 183C     		subs	r4, r4, #24
 1642              	.LVL202:
 512:Core/Src/u8g2/Src/u8x8_cad.c **** 	p+=24;
 1643              		.loc 1 512 9 view .LVU383
 1644 004a E4B2     		uxtb	r4, r4
 1645              	.LVL203:
 513:Core/Src/u8g2/Src/u8x8_cad.c ****       }
 1646              		.loc 1 513 2 is_stmt 1 view .LVU384
 513:Core/Src/u8g2/Src/u8x8_cad.c ****       }
 1647              		.loc 1 513 3 is_stmt 0 view .LVU385
 1648 004c 1836     		adds	r6, r6, #24
ARM GAS  C:\Users\MOROSH~1\AppData\Local\Temp\cceDu29x.s 			page 45


 1649              	.LVL204:
 1650              	.L116:
 509:Core/Src/u8g2/Src/u8x8_cad.c ****       {
 1651              		.loc 1 509 13 is_stmt 1 view .LVU386
 1652 004e 182C     		cmp	r4, #24
 1653 0050 F5D8     		bhi	.L119
 515:Core/Src/u8g2/Src/u8x8_cad.c ****       break;
 1654              		.loc 1 515 7 view .LVU387
 1655 0052 3246     		mov	r2, r6
 1656 0054 2146     		mov	r1, r4
 1657 0056 2846     		mov	r0, r5
 1658 0058 FFF7FEFF 		bl	u8x8_i2c_data_transfer
 1659              	.LVL205:
 516:Core/Src/u8g2/Src/u8x8_cad.c ****     case U8X8_MSG_CAD_INIT:
 1660              		.loc 1 516 7 view .LVU388
 1661              		.loc 1 529 10 is_stmt 0 view .LVU389
 1662 005c 0120     		movs	r0, #1
 516:Core/Src/u8g2/Src/u8x8_cad.c ****     case U8X8_MSG_CAD_INIT:
 1663              		.loc 1 516 7 view .LVU390
 1664 005e 0EE0     		b	.L114
 1665              	.LVL206:
 1666              	.L118:
 519:Core/Src/u8g2/Src/u8x8_cad.c **** 	u8x8->i2c_address = 0x078;
 1667              		.loc 1 519 7 is_stmt 1 view .LVU391
 519:Core/Src/u8g2/Src/u8x8_cad.c **** 	u8x8->i2c_address = 0x078;
 1668              		.loc 1 519 16 is_stmt 0 view .LVU392
 1669 0060 90F82430 		ldrb	r3, [r0, #36]	@ zero_extendqisi2
 519:Core/Src/u8g2/Src/u8x8_cad.c **** 	u8x8->i2c_address = 0x078;
 1670              		.loc 1 519 10 view .LVU393
 1671 0064 FF2B     		cmp	r3, #255
 1672 0066 05D0     		beq	.L123
 1673              	.L120:
 521:Core/Src/u8g2/Src/u8x8_cad.c ****     case U8X8_MSG_CAD_START_TRANSFER:
 1674              		.loc 1 521 7 is_stmt 1 view .LVU394
 521:Core/Src/u8g2/Src/u8x8_cad.c ****     case U8X8_MSG_CAD_START_TRANSFER:
 1675              		.loc 1 521 18 is_stmt 0 view .LVU395
 1676 0068 2F69     		ldr	r7, [r5, #16]
 521:Core/Src/u8g2/Src/u8x8_cad.c ****     case U8X8_MSG_CAD_START_TRANSFER:
 1677              		.loc 1 521 14 view .LVU396
 1678 006a 3346     		mov	r3, r6
 1679 006c 2246     		mov	r2, r4
 1680              	.LVL207:
 521:Core/Src/u8g2/Src/u8x8_cad.c ****     case U8X8_MSG_CAD_START_TRANSFER:
 1681              		.loc 1 521 14 view .LVU397
 1682 006e 2846     		mov	r0, r5
 1683              	.LVL208:
 521:Core/Src/u8g2/Src/u8x8_cad.c ****     case U8X8_MSG_CAD_START_TRANSFER:
 1684              		.loc 1 521 14 view .LVU398
 1685 0070 B847     		blx	r7
 1686              	.LVL209:
 521:Core/Src/u8g2/Src/u8x8_cad.c ****     case U8X8_MSG_CAD_START_TRANSFER:
 1687              		.loc 1 521 14 view .LVU399
 1688 0072 04E0     		b	.L114
 1689              	.LVL210:
 1690              	.L123:
 520:Core/Src/u8g2/Src/u8x8_cad.c ****       return u8x8->byte_cb(u8x8, msg, arg_int, arg_ptr);
 1691              		.loc 1 520 2 is_stmt 1 view .LVU400
ARM GAS  C:\Users\MOROSH~1\AppData\Local\Temp\cceDu29x.s 			page 46


 520:Core/Src/u8g2/Src/u8x8_cad.c ****       return u8x8->byte_cb(u8x8, msg, arg_int, arg_ptr);
 1692              		.loc 1 520 20 is_stmt 0 view .LVU401
 1693 0074 7823     		movs	r3, #120
 1694 0076 80F82430 		strb	r3, [r0, #36]
 1695 007a F5E7     		b	.L120
 1696              	.L121:
 1697              		.loc 1 529 10 view .LVU402
 1698 007c 0120     		movs	r0, #1
 1699              	.LVL211:
 1700              	.L114:
 530:Core/Src/u8g2/Src/u8x8_cad.c **** }
 1701              		.loc 1 530 1 view .LVU403
 1702 007e F8BD     		pop	{r3, r4, r5, r6, r7, pc}
 1703              		.loc 1 530 1 view .LVU404
 1704              		.cfi_endproc
 1705              	.LFE17:
 1707              		.section	.text.u8x8_cad_ssd13xx_fast_i2c,"ax",%progbits
 1708              		.align	1
 1709              		.global	u8x8_cad_ssd13xx_fast_i2c
 1710              		.syntax unified
 1711              		.thumb
 1712              		.thumb_func
 1714              	u8x8_cad_ssd13xx_fast_i2c:
 1715              	.LVL212:
 1716              	.LFB18:
 531:Core/Src/u8g2/Src/u8x8_cad.c **** 
 532:Core/Src/u8g2/Src/u8x8_cad.c **** 
 533:Core/Src/u8g2/Src/u8x8_cad.c **** /* fast version with reduced data start/stops, issue 735 */
 534:Core/Src/u8g2/Src/u8x8_cad.c **** uint8_t u8x8_cad_ssd13xx_fast_i2c(u8x8_t *u8x8, uint8_t msg, uint8_t arg_int, void *arg_ptr)
 535:Core/Src/u8g2/Src/u8x8_cad.c **** {
 1717              		.loc 1 535 1 is_stmt 1 view -0
 1718              		.cfi_startproc
 1719              		@ args = 0, pretend = 0, frame = 0
 1720              		@ frame_needed = 0, uses_anonymous_args = 0
 1721              		.loc 1 535 1 is_stmt 0 view .LVU406
 1722 0000 F8B5     		push	{r3, r4, r5, r6, r7, lr}
 1723              	.LCFI28:
 1724              		.cfi_def_cfa_offset 24
 1725              		.cfi_offset 3, -24
 1726              		.cfi_offset 4, -20
 1727              		.cfi_offset 5, -16
 1728              		.cfi_offset 6, -12
 1729              		.cfi_offset 7, -8
 1730              		.cfi_offset 14, -4
 1731 0002 0546     		mov	r5, r0
 1732 0004 1446     		mov	r4, r2
 1733 0006 1E46     		mov	r6, r3
 536:Core/Src/u8g2/Src/u8x8_cad.c ****   static uint8_t in_transfer = 0;
 1734              		.loc 1 536 3 is_stmt 1 view .LVU407
 537:Core/Src/u8g2/Src/u8x8_cad.c ****   uint8_t *p;
 1735              		.loc 1 537 3 view .LVU408
 538:Core/Src/u8g2/Src/u8x8_cad.c ****   switch(msg)
 1736              		.loc 1 538 3 view .LVU409
 1737 0008 A1F1140C 		sub	ip, r1, #20
 1738 000c BCF1050F 		cmp	ip, #5
 1739 0010 56D8     		bhi	.L139
 1740 0012 DFE80CF0 		tbb	[pc, ip]
ARM GAS  C:\Users\MOROSH~1\AppData\Local\Temp\cceDu29x.s 			page 47


 1741              	.LVL213:
 1742              	.L127:
 1743 0016 37       		.byte	(.L132-.L127)/2
 1744 0017 03       		.byte	(.L131-.L127)/2
 1745 0018 18       		.byte	(.L130-.L127)/2
 1746 0019 1D       		.byte	(.L129-.L127)/2
 1747 001a 45       		.byte	(.L128-.L127)/2
 1748 001b 4A       		.byte	(.L126-.L127)/2
 1749              		.p2align 1
 1750              	.L131:
 539:Core/Src/u8g2/Src/u8x8_cad.c ****   {
 540:Core/Src/u8g2/Src/u8x8_cad.c ****     case U8X8_MSG_CAD_SEND_CMD:
 541:Core/Src/u8g2/Src/u8x8_cad.c ****       /* improved version, takeover from ld7032 */
 542:Core/Src/u8g2/Src/u8x8_cad.c ****       /* assumes, that the args of a command is not longer than 31 bytes */
 543:Core/Src/u8g2/Src/u8x8_cad.c ****       /* speed improvement is about 4% compared to the classic version */
 544:Core/Src/u8g2/Src/u8x8_cad.c ****       if ( in_transfer != 0 )
 1751              		.loc 1 544 7 view .LVU410
 1752              		.loc 1 544 24 is_stmt 0 view .LVU411
 1753 001c 294B     		ldr	r3, .L144
 1754 001e 1B78     		ldrb	r3, [r3]	@ zero_extendqisi2
 1755              		.loc 1 544 10 view .LVU412
 1756 0020 73B9     		cbnz	r3, .L141
 1757              	.LVL214:
 1758              	.L133:
 545:Core/Src/u8g2/Src/u8x8_cad.c **** 	 u8x8_byte_EndTransfer(u8x8); 
 546:Core/Src/u8g2/Src/u8x8_cad.c ****       
 547:Core/Src/u8g2/Src/u8x8_cad.c ****       u8x8_byte_StartTransfer(u8x8);
 1759              		.loc 1 547 7 is_stmt 1 view .LVU413
 1760 0022 2846     		mov	r0, r5
 1761 0024 FFF7FEFF 		bl	u8x8_byte_StartTransfer
 1762              	.LVL215:
 548:Core/Src/u8g2/Src/u8x8_cad.c ****       u8x8_byte_SendByte(u8x8, 0x000);	/* cmd byte for ssd13xx controller */
 1763              		.loc 1 548 7 view .LVU414
 1764 0028 0021     		movs	r1, #0
 1765 002a 2846     		mov	r0, r5
 1766 002c FFF7FEFF 		bl	u8x8_byte_SendByte
 1767              	.LVL216:
 549:Core/Src/u8g2/Src/u8x8_cad.c ****       u8x8_byte_SendByte(u8x8, arg_int);
 1768              		.loc 1 549 7 view .LVU415
 1769 0030 2146     		mov	r1, r4
 1770 0032 2846     		mov	r0, r5
 1771 0034 FFF7FEFF 		bl	u8x8_byte_SendByte
 1772              	.LVL217:
 550:Core/Src/u8g2/Src/u8x8_cad.c ****       in_transfer = 1;
 1773              		.loc 1 550 7 view .LVU416
 1774              		.loc 1 550 19 is_stmt 0 view .LVU417
 1775 0038 0120     		movs	r0, #1
 1776 003a 224B     		ldr	r3, .L144
 1777 003c 1870     		strb	r0, [r3]
 551:Core/Src/u8g2/Src/u8x8_cad.c ****       /* lightning version: can replace the improved version from above */
 552:Core/Src/u8g2/Src/u8x8_cad.c ****       /* the drawback of the lightning version is this: The complete init sequence */
 553:Core/Src/u8g2/Src/u8x8_cad.c ****       /* must fit into the 32 byte Arduino Wire buffer, which might not always be the case */
 554:Core/Src/u8g2/Src/u8x8_cad.c ****       /* speed improvement is about 6% compared to the classic version */
 555:Core/Src/u8g2/Src/u8x8_cad.c ****       // if ( in_transfer == 0 )
 556:Core/Src/u8g2/Src/u8x8_cad.c **** 	// {
 557:Core/Src/u8g2/Src/u8x8_cad.c **** 	//   u8x8_byte_StartTransfer(u8x8);
 558:Core/Src/u8g2/Src/u8x8_cad.c **** 	//   u8x8_byte_SendByte(u8x8, 0x000);	/* cmd byte for ssd13xx controller */
ARM GAS  C:\Users\MOROSH~1\AppData\Local\Temp\cceDu29x.s 			page 48


 559:Core/Src/u8g2/Src/u8x8_cad.c **** 	//   in_transfer = 1;
 560:Core/Src/u8g2/Src/u8x8_cad.c **** 	// }
 561:Core/Src/u8g2/Src/u8x8_cad.c **** 	//u8x8_byte_SendByte(u8x8, arg_int);
 562:Core/Src/u8g2/Src/u8x8_cad.c ****       break;
 1778              		.loc 1 562 7 is_stmt 1 view .LVU418
 1779              	.LVL218:
 1780              	.L125:
 563:Core/Src/u8g2/Src/u8x8_cad.c ****     case U8X8_MSG_CAD_SEND_ARG:
 564:Core/Src/u8g2/Src/u8x8_cad.c ****       u8x8_byte_SendByte(u8x8, arg_int);
 565:Core/Src/u8g2/Src/u8x8_cad.c ****       break;      
 566:Core/Src/u8g2/Src/u8x8_cad.c ****     case U8X8_MSG_CAD_SEND_DATA:
 567:Core/Src/u8g2/Src/u8x8_cad.c ****       if ( in_transfer != 0 )
 568:Core/Src/u8g2/Src/u8x8_cad.c **** 	u8x8_byte_EndTransfer(u8x8); 
 569:Core/Src/u8g2/Src/u8x8_cad.c ****       
 570:Core/Src/u8g2/Src/u8x8_cad.c ****     
 571:Core/Src/u8g2/Src/u8x8_cad.c ****       /* the FeatherWing OLED with the 32u4 transfer of long byte */
 572:Core/Src/u8g2/Src/u8x8_cad.c ****       /* streams was not possible. This is broken down to */
 573:Core/Src/u8g2/Src/u8x8_cad.c ****       /* smaller streams, 32 seems to be the limit... */
 574:Core/Src/u8g2/Src/u8x8_cad.c ****       /* I guess this is related to the size of the Wire buffers in Arduino */
 575:Core/Src/u8g2/Src/u8x8_cad.c ****       /* Unfortunately, this can not be handled in the byte level drivers, */
 576:Core/Src/u8g2/Src/u8x8_cad.c ****       /* so this is done here. Even further, only 24 bytes will be sent, */
 577:Core/Src/u8g2/Src/u8x8_cad.c ****       /* because there will be another byte (DC) required during the transfer */
 578:Core/Src/u8g2/Src/u8x8_cad.c ****       p = arg_ptr;
 579:Core/Src/u8g2/Src/u8x8_cad.c ****        while( arg_int > 24 )
 580:Core/Src/u8g2/Src/u8x8_cad.c ****       {
 581:Core/Src/u8g2/Src/u8x8_cad.c **** 	u8x8_i2c_data_transfer(u8x8, 24, p);
 582:Core/Src/u8g2/Src/u8x8_cad.c **** 	arg_int-=24;
 583:Core/Src/u8g2/Src/u8x8_cad.c **** 	p+=24;
 584:Core/Src/u8g2/Src/u8x8_cad.c ****       }
 585:Core/Src/u8g2/Src/u8x8_cad.c ****       u8x8_i2c_data_transfer(u8x8, arg_int, p);
 586:Core/Src/u8g2/Src/u8x8_cad.c ****       in_transfer = 0;
 587:Core/Src/u8g2/Src/u8x8_cad.c ****       break;
 588:Core/Src/u8g2/Src/u8x8_cad.c ****     case U8X8_MSG_CAD_INIT:
 589:Core/Src/u8g2/Src/u8x8_cad.c ****       /* apply default i2c adr if required so that the start transfer msg can use this */
 590:Core/Src/u8g2/Src/u8x8_cad.c ****       if ( u8x8->i2c_address == 255 )
 591:Core/Src/u8g2/Src/u8x8_cad.c **** 	u8x8->i2c_address = 0x078;
 592:Core/Src/u8g2/Src/u8x8_cad.c ****       return u8x8->byte_cb(u8x8, msg, arg_int, arg_ptr);
 593:Core/Src/u8g2/Src/u8x8_cad.c ****     case U8X8_MSG_CAD_START_TRANSFER:
 594:Core/Src/u8g2/Src/u8x8_cad.c ****       in_transfer = 0;
 595:Core/Src/u8g2/Src/u8x8_cad.c ****       break;
 596:Core/Src/u8g2/Src/u8x8_cad.c ****     case U8X8_MSG_CAD_END_TRANSFER:
 597:Core/Src/u8g2/Src/u8x8_cad.c ****       if ( in_transfer != 0 )
 598:Core/Src/u8g2/Src/u8x8_cad.c **** 	u8x8_byte_EndTransfer(u8x8); 
 599:Core/Src/u8g2/Src/u8x8_cad.c ****       in_transfer = 0;
 600:Core/Src/u8g2/Src/u8x8_cad.c ****       break;
 601:Core/Src/u8g2/Src/u8x8_cad.c ****     default:
 602:Core/Src/u8g2/Src/u8x8_cad.c ****       return 0;
 603:Core/Src/u8g2/Src/u8x8_cad.c ****   }
 604:Core/Src/u8g2/Src/u8x8_cad.c ****   return 1;
 605:Core/Src/u8g2/Src/u8x8_cad.c **** }
 1781              		.loc 1 605 1 is_stmt 0 view .LVU419
 1782 003e F8BD     		pop	{r3, r4, r5, r6, r7, pc}
 1783              	.LVL219:
 1784              	.L141:
 545:Core/Src/u8g2/Src/u8x8_cad.c ****       
 1785              		.loc 1 545 3 is_stmt 1 view .LVU420
 1786 0040 FFF7FEFF 		bl	u8x8_byte_EndTransfer
ARM GAS  C:\Users\MOROSH~1\AppData\Local\Temp\cceDu29x.s 			page 49


 1787              	.LVL220:
 545:Core/Src/u8g2/Src/u8x8_cad.c ****       
 1788              		.loc 1 545 3 is_stmt 0 view .LVU421
 1789 0044 EDE7     		b	.L133
 1790              	.LVL221:
 1791              	.L130:
 564:Core/Src/u8g2/Src/u8x8_cad.c ****       break;      
 1792              		.loc 1 564 7 is_stmt 1 view .LVU422
 1793 0046 1146     		mov	r1, r2
 1794              	.LVL222:
 564:Core/Src/u8g2/Src/u8x8_cad.c ****       break;      
 1795              		.loc 1 564 7 is_stmt 0 view .LVU423
 1796 0048 FFF7FEFF 		bl	u8x8_byte_SendByte
 1797              	.LVL223:
 565:Core/Src/u8g2/Src/u8x8_cad.c ****     case U8X8_MSG_CAD_SEND_DATA:
 1798              		.loc 1 565 7 is_stmt 1 view .LVU424
 604:Core/Src/u8g2/Src/u8x8_cad.c **** }
 1799              		.loc 1 604 10 is_stmt 0 view .LVU425
 1800 004c 0120     		movs	r0, #1
 565:Core/Src/u8g2/Src/u8x8_cad.c ****     case U8X8_MSG_CAD_SEND_DATA:
 1801              		.loc 1 565 7 view .LVU426
 1802 004e F6E7     		b	.L125
 1803              	.LVL224:
 1804              	.L129:
 567:Core/Src/u8g2/Src/u8x8_cad.c **** 	u8x8_byte_EndTransfer(u8x8); 
 1805              		.loc 1 567 7 is_stmt 1 view .LVU427
 567:Core/Src/u8g2/Src/u8x8_cad.c **** 	u8x8_byte_EndTransfer(u8x8); 
 1806              		.loc 1 567 24 is_stmt 0 view .LVU428
 1807 0050 1C4B     		ldr	r3, .L144
 1808 0052 1B78     		ldrb	r3, [r3]	@ zero_extendqisi2
 567:Core/Src/u8g2/Src/u8x8_cad.c **** 	u8x8_byte_EndTransfer(u8x8); 
 1809              		.loc 1 567 10 view .LVU429
 1810 0054 53B1     		cbz	r3, .L135
 568:Core/Src/u8g2/Src/u8x8_cad.c ****       
 1811              		.loc 1 568 2 is_stmt 1 view .LVU430
 1812 0056 FFF7FEFF 		bl	u8x8_byte_EndTransfer
 1813              	.LVL225:
 568:Core/Src/u8g2/Src/u8x8_cad.c ****       
 1814              		.loc 1 568 2 is_stmt 0 view .LVU431
 1815 005a 07E0     		b	.L135
 1816              	.LVL226:
 1817              	.L136:
 581:Core/Src/u8g2/Src/u8x8_cad.c **** 	arg_int-=24;
 1818              		.loc 1 581 2 is_stmt 1 view .LVU432
 1819 005c 3246     		mov	r2, r6
 1820 005e 1821     		movs	r1, #24
 1821 0060 2846     		mov	r0, r5
 1822 0062 FFF7FEFF 		bl	u8x8_i2c_data_transfer
 1823              	.LVL227:
 582:Core/Src/u8g2/Src/u8x8_cad.c **** 	p+=24;
 1824              		.loc 1 582 2 view .LVU433
 582:Core/Src/u8g2/Src/u8x8_cad.c **** 	p+=24;
 1825              		.loc 1 582 9 is_stmt 0 view .LVU434
 1826 0066 183C     		subs	r4, r4, #24
 1827              	.LVL228:
 582:Core/Src/u8g2/Src/u8x8_cad.c **** 	p+=24;
 1828              		.loc 1 582 9 view .LVU435
ARM GAS  C:\Users\MOROSH~1\AppData\Local\Temp\cceDu29x.s 			page 50


 1829 0068 E4B2     		uxtb	r4, r4
 1830              	.LVL229:
 583:Core/Src/u8g2/Src/u8x8_cad.c ****       }
 1831              		.loc 1 583 2 is_stmt 1 view .LVU436
 583:Core/Src/u8g2/Src/u8x8_cad.c ****       }
 1832              		.loc 1 583 3 is_stmt 0 view .LVU437
 1833 006a 1836     		adds	r6, r6, #24
 1834              	.LVL230:
 1835              	.L135:
 579:Core/Src/u8g2/Src/u8x8_cad.c ****       {
 1836              		.loc 1 579 13 is_stmt 1 view .LVU438
 1837 006c 182C     		cmp	r4, #24
 1838 006e F5D8     		bhi	.L136
 585:Core/Src/u8g2/Src/u8x8_cad.c ****       in_transfer = 0;
 1839              		.loc 1 585 7 view .LVU439
 1840 0070 3246     		mov	r2, r6
 1841 0072 2146     		mov	r1, r4
 1842 0074 2846     		mov	r0, r5
 1843 0076 FFF7FEFF 		bl	u8x8_i2c_data_transfer
 1844              	.LVL231:
 586:Core/Src/u8g2/Src/u8x8_cad.c ****       break;
 1845              		.loc 1 586 7 view .LVU440
 586:Core/Src/u8g2/Src/u8x8_cad.c ****       break;
 1846              		.loc 1 586 19 is_stmt 0 view .LVU441
 1847 007a 124B     		ldr	r3, .L144
 1848 007c 0022     		movs	r2, #0
 1849 007e 1A70     		strb	r2, [r3]
 587:Core/Src/u8g2/Src/u8x8_cad.c ****     case U8X8_MSG_CAD_INIT:
 1850              		.loc 1 587 7 is_stmt 1 view .LVU442
 604:Core/Src/u8g2/Src/u8x8_cad.c **** }
 1851              		.loc 1 604 10 is_stmt 0 view .LVU443
 1852 0080 0120     		movs	r0, #1
 587:Core/Src/u8g2/Src/u8x8_cad.c ****     case U8X8_MSG_CAD_INIT:
 1853              		.loc 1 587 7 view .LVU444
 1854 0082 DCE7     		b	.L125
 1855              	.LVL232:
 1856              	.L132:
 590:Core/Src/u8g2/Src/u8x8_cad.c **** 	u8x8->i2c_address = 0x078;
 1857              		.loc 1 590 7 is_stmt 1 view .LVU445
 590:Core/Src/u8g2/Src/u8x8_cad.c **** 	u8x8->i2c_address = 0x078;
 1858              		.loc 1 590 16 is_stmt 0 view .LVU446
 1859 0084 90F82430 		ldrb	r3, [r0, #36]	@ zero_extendqisi2
 590:Core/Src/u8g2/Src/u8x8_cad.c **** 	u8x8->i2c_address = 0x078;
 1860              		.loc 1 590 10 view .LVU447
 1861 0088 FF2B     		cmp	r3, #255
 1862 008a 05D0     		beq	.L142
 1863              	.L137:
 592:Core/Src/u8g2/Src/u8x8_cad.c ****     case U8X8_MSG_CAD_START_TRANSFER:
 1864              		.loc 1 592 7 is_stmt 1 view .LVU448
 592:Core/Src/u8g2/Src/u8x8_cad.c ****     case U8X8_MSG_CAD_START_TRANSFER:
 1865              		.loc 1 592 18 is_stmt 0 view .LVU449
 1866 008c 2F69     		ldr	r7, [r5, #16]
 592:Core/Src/u8g2/Src/u8x8_cad.c ****     case U8X8_MSG_CAD_START_TRANSFER:
 1867              		.loc 1 592 14 view .LVU450
 1868 008e 3346     		mov	r3, r6
 1869 0090 2246     		mov	r2, r4
 1870              	.LVL233:
ARM GAS  C:\Users\MOROSH~1\AppData\Local\Temp\cceDu29x.s 			page 51


 592:Core/Src/u8g2/Src/u8x8_cad.c ****     case U8X8_MSG_CAD_START_TRANSFER:
 1871              		.loc 1 592 14 view .LVU451
 1872 0092 2846     		mov	r0, r5
 1873              	.LVL234:
 592:Core/Src/u8g2/Src/u8x8_cad.c ****     case U8X8_MSG_CAD_START_TRANSFER:
 1874              		.loc 1 592 14 view .LVU452
 1875 0094 B847     		blx	r7
 1876              	.LVL235:
 592:Core/Src/u8g2/Src/u8x8_cad.c ****     case U8X8_MSG_CAD_START_TRANSFER:
 1877              		.loc 1 592 14 view .LVU453
 1878 0096 D2E7     		b	.L125
 1879              	.LVL236:
 1880              	.L142:
 591:Core/Src/u8g2/Src/u8x8_cad.c ****       return u8x8->byte_cb(u8x8, msg, arg_int, arg_ptr);
 1881              		.loc 1 591 2 is_stmt 1 view .LVU454
 591:Core/Src/u8g2/Src/u8x8_cad.c ****       return u8x8->byte_cb(u8x8, msg, arg_int, arg_ptr);
 1882              		.loc 1 591 20 is_stmt 0 view .LVU455
 1883 0098 7823     		movs	r3, #120
 1884 009a 80F82430 		strb	r3, [r0, #36]
 1885 009e F5E7     		b	.L137
 1886              	.L128:
 594:Core/Src/u8g2/Src/u8x8_cad.c ****       break;
 1887              		.loc 1 594 7 is_stmt 1 view .LVU456
 594:Core/Src/u8g2/Src/u8x8_cad.c ****       break;
 1888              		.loc 1 594 19 is_stmt 0 view .LVU457
 1889 00a0 084B     		ldr	r3, .L144
 1890 00a2 0022     		movs	r2, #0
 1891              	.LVL237:
 594:Core/Src/u8g2/Src/u8x8_cad.c ****       break;
 1892              		.loc 1 594 19 view .LVU458
 1893 00a4 1A70     		strb	r2, [r3]
 595:Core/Src/u8g2/Src/u8x8_cad.c ****     case U8X8_MSG_CAD_END_TRANSFER:
 1894              		.loc 1 595 7 is_stmt 1 view .LVU459
 604:Core/Src/u8g2/Src/u8x8_cad.c **** }
 1895              		.loc 1 604 10 is_stmt 0 view .LVU460
 1896 00a6 0120     		movs	r0, #1
 1897              	.LVL238:
 595:Core/Src/u8g2/Src/u8x8_cad.c ****     case U8X8_MSG_CAD_END_TRANSFER:
 1898              		.loc 1 595 7 view .LVU461
 1899 00a8 C9E7     		b	.L125
 1900              	.LVL239:
 1901              	.L126:
 597:Core/Src/u8g2/Src/u8x8_cad.c **** 	u8x8_byte_EndTransfer(u8x8); 
 1902              		.loc 1 597 7 is_stmt 1 view .LVU462
 597:Core/Src/u8g2/Src/u8x8_cad.c **** 	u8x8_byte_EndTransfer(u8x8); 
 1903              		.loc 1 597 24 is_stmt 0 view .LVU463
 1904 00aa 064B     		ldr	r3, .L144
 1905 00ac 1B78     		ldrb	r3, [r3]	@ zero_extendqisi2
 597:Core/Src/u8g2/Src/u8x8_cad.c **** 	u8x8_byte_EndTransfer(u8x8); 
 1906              		.loc 1 597 10 view .LVU464
 1907 00ae 23B9     		cbnz	r3, .L143
 1908              	.LVL240:
 1909              	.L138:
 599:Core/Src/u8g2/Src/u8x8_cad.c ****       break;
 1910              		.loc 1 599 7 is_stmt 1 view .LVU465
 599:Core/Src/u8g2/Src/u8x8_cad.c ****       break;
 1911              		.loc 1 599 19 is_stmt 0 view .LVU466
ARM GAS  C:\Users\MOROSH~1\AppData\Local\Temp\cceDu29x.s 			page 52


 1912 00b0 044B     		ldr	r3, .L144
 1913 00b2 0022     		movs	r2, #0
 1914 00b4 1A70     		strb	r2, [r3]
 600:Core/Src/u8g2/Src/u8x8_cad.c ****     default:
 1915              		.loc 1 600 7 is_stmt 1 view .LVU467
 604:Core/Src/u8g2/Src/u8x8_cad.c **** }
 1916              		.loc 1 604 10 is_stmt 0 view .LVU468
 1917 00b6 0120     		movs	r0, #1
 600:Core/Src/u8g2/Src/u8x8_cad.c ****     default:
 1918              		.loc 1 600 7 view .LVU469
 1919 00b8 C1E7     		b	.L125
 1920              	.LVL241:
 1921              	.L143:
 598:Core/Src/u8g2/Src/u8x8_cad.c ****       in_transfer = 0;
 1922              		.loc 1 598 2 is_stmt 1 view .LVU470
 1923 00ba FFF7FEFF 		bl	u8x8_byte_EndTransfer
 1924              	.LVL242:
 598:Core/Src/u8g2/Src/u8x8_cad.c ****       in_transfer = 0;
 1925              		.loc 1 598 2 is_stmt 0 view .LVU471
 1926 00be F7E7     		b	.L138
 1927              	.LVL243:
 1928              	.L139:
 538:Core/Src/u8g2/Src/u8x8_cad.c ****   {
 1929              		.loc 1 538 3 view .LVU472
 1930 00c0 0020     		movs	r0, #0
 1931              	.LVL244:
 538:Core/Src/u8g2/Src/u8x8_cad.c ****   {
 1932              		.loc 1 538 3 view .LVU473
 1933 00c2 BCE7     		b	.L125
 1934              	.L145:
 1935              		.align	2
 1936              	.L144:
 1937 00c4 00000000 		.word	.LANCHOR1
 1938              		.cfi_endproc
 1939              	.LFE18:
 1941              		.section	.text.u8x8_cad_st75256_i2c,"ax",%progbits
 1942              		.align	1
 1943              		.global	u8x8_cad_st75256_i2c
 1944              		.syntax unified
 1945              		.thumb
 1946              		.thumb_func
 1948              	u8x8_cad_st75256_i2c:
 1949              	.LVL245:
 1950              	.LFB19:
 606:Core/Src/u8g2/Src/u8x8_cad.c **** 
 607:Core/Src/u8g2/Src/u8x8_cad.c **** 
 608:Core/Src/u8g2/Src/u8x8_cad.c **** 
 609:Core/Src/u8g2/Src/u8x8_cad.c **** /* the st75256 i2c driver is a copy of the ssd13xx driver, but with arg=1 */
 610:Core/Src/u8g2/Src/u8x8_cad.c **** /* modified from cad001 (ssd13xx) to cad011 */
 611:Core/Src/u8g2/Src/u8x8_cad.c **** uint8_t u8x8_cad_st75256_i2c(u8x8_t *u8x8, uint8_t msg, uint8_t arg_int, void *arg_ptr)
 612:Core/Src/u8g2/Src/u8x8_cad.c **** {
 1951              		.loc 1 612 1 is_stmt 1 view -0
 1952              		.cfi_startproc
 1953              		@ args = 0, pretend = 0, frame = 0
 1954              		@ frame_needed = 0, uses_anonymous_args = 0
 1955              		.loc 1 612 1 is_stmt 0 view .LVU475
 1956 0000 F8B5     		push	{r3, r4, r5, r6, r7, lr}
ARM GAS  C:\Users\MOROSH~1\AppData\Local\Temp\cceDu29x.s 			page 53


 1957              	.LCFI29:
 1958              		.cfi_def_cfa_offset 24
 1959              		.cfi_offset 3, -24
 1960              		.cfi_offset 4, -20
 1961              		.cfi_offset 5, -16
 1962              		.cfi_offset 6, -12
 1963              		.cfi_offset 7, -8
 1964              		.cfi_offset 14, -4
 1965 0002 0546     		mov	r5, r0
 1966 0004 1446     		mov	r4, r2
 1967 0006 1E46     		mov	r6, r3
 613:Core/Src/u8g2/Src/u8x8_cad.c ****   uint8_t *p;
 1968              		.loc 1 613 3 is_stmt 1 view .LVU476
 614:Core/Src/u8g2/Src/u8x8_cad.c ****   switch(msg)
 1969              		.loc 1 614 3 view .LVU477
 1970 0008 A1F1140C 		sub	ip, r1, #20
 1971 000c BCF1050F 		cmp	ip, #5
 1972 0010 04D8     		bhi	.L147
 1973 0012 DFE80CF0 		tbb	[pc, ip]
 1974              	.LVL246:
 1975              	.L149:
 1976 0016 34       		.byte	(.L153-.L149)/2
 1977 0017 05       		.byte	(.L152-.L149)/2
 1978 0018 14       		.byte	(.L151-.L149)/2
 1979 0019 2B       		.byte	(.L150-.L149)/2
 1980 001a 42       		.byte	(.L156-.L149)/2
 1981 001b 42       		.byte	(.L156-.L149)/2
 1982              		.p2align 1
 1983              	.L147:
 1984              		.loc 1 614 3 is_stmt 0 view .LVU478
 1985 001c 0020     		movs	r0, #0
 1986              	.LVL247:
 1987              		.loc 1 614 3 view .LVU479
 1988 001e 3DE0     		b	.L148
 1989              	.LVL248:
 1990              	.L152:
 615:Core/Src/u8g2/Src/u8x8_cad.c ****   {
 616:Core/Src/u8g2/Src/u8x8_cad.c ****     case U8X8_MSG_CAD_SEND_CMD:
 617:Core/Src/u8g2/Src/u8x8_cad.c ****       u8x8_byte_StartTransfer(u8x8);
 1991              		.loc 1 617 7 is_stmt 1 view .LVU480
 1992 0020 FFF7FEFF 		bl	u8x8_byte_StartTransfer
 1993              	.LVL249:
 618:Core/Src/u8g2/Src/u8x8_cad.c ****       u8x8_byte_SendByte(u8x8, 0x000);
 1994              		.loc 1 618 7 view .LVU481
 1995 0024 0021     		movs	r1, #0
 1996 0026 2846     		mov	r0, r5
 1997 0028 FFF7FEFF 		bl	u8x8_byte_SendByte
 1998              	.LVL250:
 619:Core/Src/u8g2/Src/u8x8_cad.c ****       u8x8_byte_SendByte(u8x8, arg_int);
 1999              		.loc 1 619 7 view .LVU482
 2000 002c 2146     		mov	r1, r4
 2001 002e 2846     		mov	r0, r5
 2002 0030 FFF7FEFF 		bl	u8x8_byte_SendByte
 2003              	.LVL251:
 620:Core/Src/u8g2/Src/u8x8_cad.c ****       u8x8_byte_EndTransfer(u8x8);      
 2004              		.loc 1 620 7 view .LVU483
 2005 0034 2846     		mov	r0, r5
ARM GAS  C:\Users\MOROSH~1\AppData\Local\Temp\cceDu29x.s 			page 54


 2006 0036 FFF7FEFF 		bl	u8x8_byte_EndTransfer
 2007              	.LVL252:
 621:Core/Src/u8g2/Src/u8x8_cad.c ****       break;
 2008              		.loc 1 621 7 view .LVU484
 622:Core/Src/u8g2/Src/u8x8_cad.c ****     case U8X8_MSG_CAD_SEND_ARG:
 623:Core/Src/u8g2/Src/u8x8_cad.c ****       u8x8_byte_StartTransfer(u8x8);
 624:Core/Src/u8g2/Src/u8x8_cad.c ****       u8x8_byte_SendByte(u8x8, 0x040);
 625:Core/Src/u8g2/Src/u8x8_cad.c ****       u8x8_byte_SendByte(u8x8, arg_int);
 626:Core/Src/u8g2/Src/u8x8_cad.c ****       u8x8_byte_EndTransfer(u8x8);
 627:Core/Src/u8g2/Src/u8x8_cad.c ****       break;
 628:Core/Src/u8g2/Src/u8x8_cad.c ****     case U8X8_MSG_CAD_SEND_DATA:
 629:Core/Src/u8g2/Src/u8x8_cad.c ****       /* see ssd13xx driver */
 630:Core/Src/u8g2/Src/u8x8_cad.c ****       p = arg_ptr;
 631:Core/Src/u8g2/Src/u8x8_cad.c ****        while( arg_int > 24 )
 632:Core/Src/u8g2/Src/u8x8_cad.c ****       {
 633:Core/Src/u8g2/Src/u8x8_cad.c **** 	u8x8_i2c_data_transfer(u8x8, 24, p);
 634:Core/Src/u8g2/Src/u8x8_cad.c **** 	arg_int-=24;
 635:Core/Src/u8g2/Src/u8x8_cad.c **** 	p+=24;
 636:Core/Src/u8g2/Src/u8x8_cad.c ****       }
 637:Core/Src/u8g2/Src/u8x8_cad.c ****       u8x8_i2c_data_transfer(u8x8, arg_int, p);
 638:Core/Src/u8g2/Src/u8x8_cad.c ****       break;
 639:Core/Src/u8g2/Src/u8x8_cad.c ****     case U8X8_MSG_CAD_INIT:
 640:Core/Src/u8g2/Src/u8x8_cad.c ****       /* apply default i2c adr if required so that the start transfer msg can use this */
 641:Core/Src/u8g2/Src/u8x8_cad.c ****       if ( u8x8->i2c_address == 255 )
 642:Core/Src/u8g2/Src/u8x8_cad.c **** 	u8x8->i2c_address = 0x078;	/* ST75256, often this is 0x07e */
 643:Core/Src/u8g2/Src/u8x8_cad.c ****       return u8x8->byte_cb(u8x8, msg, arg_int, arg_ptr);
 644:Core/Src/u8g2/Src/u8x8_cad.c ****     case U8X8_MSG_CAD_START_TRANSFER:
 645:Core/Src/u8g2/Src/u8x8_cad.c ****     case U8X8_MSG_CAD_END_TRANSFER:
 646:Core/Src/u8g2/Src/u8x8_cad.c ****       /* cad transfer commands are ignored */
 647:Core/Src/u8g2/Src/u8x8_cad.c ****       break;
 648:Core/Src/u8g2/Src/u8x8_cad.c ****     default:
 649:Core/Src/u8g2/Src/u8x8_cad.c ****       return 0;
 650:Core/Src/u8g2/Src/u8x8_cad.c ****   }
 651:Core/Src/u8g2/Src/u8x8_cad.c ****   return 1;
 2009              		.loc 1 651 10 is_stmt 0 view .LVU485
 2010 003a 0120     		movs	r0, #1
 621:Core/Src/u8g2/Src/u8x8_cad.c ****       break;
 2011              		.loc 1 621 7 view .LVU486
 2012 003c 2EE0     		b	.L148
 2013              	.LVL253:
 2014              	.L151:
 623:Core/Src/u8g2/Src/u8x8_cad.c ****       u8x8_byte_SendByte(u8x8, 0x040);
 2015              		.loc 1 623 7 is_stmt 1 view .LVU487
 2016 003e FFF7FEFF 		bl	u8x8_byte_StartTransfer
 2017              	.LVL254:
 624:Core/Src/u8g2/Src/u8x8_cad.c ****       u8x8_byte_SendByte(u8x8, arg_int);
 2018              		.loc 1 624 7 view .LVU488
 2019 0042 4021     		movs	r1, #64
 2020 0044 2846     		mov	r0, r5
 2021 0046 FFF7FEFF 		bl	u8x8_byte_SendByte
 2022              	.LVL255:
 625:Core/Src/u8g2/Src/u8x8_cad.c ****       u8x8_byte_EndTransfer(u8x8);
 2023              		.loc 1 625 7 view .LVU489
 2024 004a 2146     		mov	r1, r4
 2025 004c 2846     		mov	r0, r5
 2026 004e FFF7FEFF 		bl	u8x8_byte_SendByte
 2027              	.LVL256:
ARM GAS  C:\Users\MOROSH~1\AppData\Local\Temp\cceDu29x.s 			page 55


 626:Core/Src/u8g2/Src/u8x8_cad.c ****       break;
 2028              		.loc 1 626 7 view .LVU490
 2029 0052 2846     		mov	r0, r5
 2030 0054 FFF7FEFF 		bl	u8x8_byte_EndTransfer
 2031              	.LVL257:
 627:Core/Src/u8g2/Src/u8x8_cad.c ****     case U8X8_MSG_CAD_SEND_DATA:
 2032              		.loc 1 627 7 view .LVU491
 2033              		.loc 1 651 10 is_stmt 0 view .LVU492
 2034 0058 0120     		movs	r0, #1
 627:Core/Src/u8g2/Src/u8x8_cad.c ****     case U8X8_MSG_CAD_SEND_DATA:
 2035              		.loc 1 627 7 view .LVU493
 2036 005a 1FE0     		b	.L148
 2037              	.LVL258:
 2038              	.L154:
 633:Core/Src/u8g2/Src/u8x8_cad.c **** 	arg_int-=24;
 2039              		.loc 1 633 2 is_stmt 1 view .LVU494
 2040 005c 3246     		mov	r2, r6
 2041 005e 1821     		movs	r1, #24
 2042 0060 2846     		mov	r0, r5
 2043 0062 FFF7FEFF 		bl	u8x8_i2c_data_transfer
 2044              	.LVL259:
 634:Core/Src/u8g2/Src/u8x8_cad.c **** 	p+=24;
 2045              		.loc 1 634 2 view .LVU495
 634:Core/Src/u8g2/Src/u8x8_cad.c **** 	p+=24;
 2046              		.loc 1 634 9 is_stmt 0 view .LVU496
 2047 0066 183C     		subs	r4, r4, #24
 2048              	.LVL260:
 634:Core/Src/u8g2/Src/u8x8_cad.c **** 	p+=24;
 2049              		.loc 1 634 9 view .LVU497
 2050 0068 E4B2     		uxtb	r4, r4
 2051              	.LVL261:
 635:Core/Src/u8g2/Src/u8x8_cad.c ****       }
 2052              		.loc 1 635 2 is_stmt 1 view .LVU498
 635:Core/Src/u8g2/Src/u8x8_cad.c ****       }
 2053              		.loc 1 635 3 is_stmt 0 view .LVU499
 2054 006a 1836     		adds	r6, r6, #24
 2055              	.LVL262:
 2056              	.L150:
 631:Core/Src/u8g2/Src/u8x8_cad.c ****       {
 2057              		.loc 1 631 13 is_stmt 1 view .LVU500
 2058 006c 182C     		cmp	r4, #24
 2059 006e F5D8     		bhi	.L154
 637:Core/Src/u8g2/Src/u8x8_cad.c ****       break;
 2060              		.loc 1 637 7 view .LVU501
 2061 0070 3246     		mov	r2, r6
 2062 0072 2146     		mov	r1, r4
 2063 0074 2846     		mov	r0, r5
 2064 0076 FFF7FEFF 		bl	u8x8_i2c_data_transfer
 2065              	.LVL263:
 638:Core/Src/u8g2/Src/u8x8_cad.c ****     case U8X8_MSG_CAD_INIT:
 2066              		.loc 1 638 7 view .LVU502
 2067              		.loc 1 651 10 is_stmt 0 view .LVU503
 2068 007a 0120     		movs	r0, #1
 638:Core/Src/u8g2/Src/u8x8_cad.c ****     case U8X8_MSG_CAD_INIT:
 2069              		.loc 1 638 7 view .LVU504
 2070 007c 0EE0     		b	.L148
 2071              	.LVL264:
ARM GAS  C:\Users\MOROSH~1\AppData\Local\Temp\cceDu29x.s 			page 56


 2072              	.L153:
 641:Core/Src/u8g2/Src/u8x8_cad.c **** 	u8x8->i2c_address = 0x078;	/* ST75256, often this is 0x07e */
 2073              		.loc 1 641 7 is_stmt 1 view .LVU505
 641:Core/Src/u8g2/Src/u8x8_cad.c **** 	u8x8->i2c_address = 0x078;	/* ST75256, often this is 0x07e */
 2074              		.loc 1 641 16 is_stmt 0 view .LVU506
 2075 007e 90F82430 		ldrb	r3, [r0, #36]	@ zero_extendqisi2
 641:Core/Src/u8g2/Src/u8x8_cad.c **** 	u8x8->i2c_address = 0x078;	/* ST75256, often this is 0x07e */
 2076              		.loc 1 641 10 view .LVU507
 2077 0082 FF2B     		cmp	r3, #255
 2078 0084 05D0     		beq	.L158
 2079              	.L155:
 643:Core/Src/u8g2/Src/u8x8_cad.c ****     case U8X8_MSG_CAD_START_TRANSFER:
 2080              		.loc 1 643 7 is_stmt 1 view .LVU508
 643:Core/Src/u8g2/Src/u8x8_cad.c ****     case U8X8_MSG_CAD_START_TRANSFER:
 2081              		.loc 1 643 18 is_stmt 0 view .LVU509
 2082 0086 2F69     		ldr	r7, [r5, #16]
 643:Core/Src/u8g2/Src/u8x8_cad.c ****     case U8X8_MSG_CAD_START_TRANSFER:
 2083              		.loc 1 643 14 view .LVU510
 2084 0088 3346     		mov	r3, r6
 2085 008a 2246     		mov	r2, r4
 2086              	.LVL265:
 643:Core/Src/u8g2/Src/u8x8_cad.c ****     case U8X8_MSG_CAD_START_TRANSFER:
 2087              		.loc 1 643 14 view .LVU511
 2088 008c 2846     		mov	r0, r5
 2089              	.LVL266:
 643:Core/Src/u8g2/Src/u8x8_cad.c ****     case U8X8_MSG_CAD_START_TRANSFER:
 2090              		.loc 1 643 14 view .LVU512
 2091 008e B847     		blx	r7
 2092              	.LVL267:
 643:Core/Src/u8g2/Src/u8x8_cad.c ****     case U8X8_MSG_CAD_START_TRANSFER:
 2093              		.loc 1 643 14 view .LVU513
 2094 0090 04E0     		b	.L148
 2095              	.LVL268:
 2096              	.L158:
 642:Core/Src/u8g2/Src/u8x8_cad.c ****       return u8x8->byte_cb(u8x8, msg, arg_int, arg_ptr);
 2097              		.loc 1 642 2 is_stmt 1 view .LVU514
 642:Core/Src/u8g2/Src/u8x8_cad.c ****       return u8x8->byte_cb(u8x8, msg, arg_int, arg_ptr);
 2098              		.loc 1 642 20 is_stmt 0 view .LVU515
 2099 0092 7823     		movs	r3, #120
 2100 0094 80F82430 		strb	r3, [r0, #36]
 2101 0098 F5E7     		b	.L155
 2102              	.L156:
 2103              		.loc 1 651 10 view .LVU516
 2104 009a 0120     		movs	r0, #1
 2105              	.LVL269:
 2106              	.L148:
 652:Core/Src/u8g2/Src/u8x8_cad.c **** }
 2107              		.loc 1 652 1 view .LVU517
 2108 009c F8BD     		pop	{r3, r4, r5, r6, r7, pc}
 2109              		.loc 1 652 1 view .LVU518
 2110              		.cfi_endproc
 2111              	.LFE19:
 2113              		.section	.text.u8x8_cad_ld7032_i2c,"ax",%progbits
 2114              		.align	1
 2115              		.global	u8x8_cad_ld7032_i2c
 2116              		.syntax unified
 2117              		.thumb
ARM GAS  C:\Users\MOROSH~1\AppData\Local\Temp\cceDu29x.s 			page 57


 2118              		.thumb_func
 2120              	u8x8_cad_ld7032_i2c:
 2121              	.LVL270:
 2122              	.LFB20:
 653:Core/Src/u8g2/Src/u8x8_cad.c **** 
 654:Core/Src/u8g2/Src/u8x8_cad.c **** /* cad i2c procedure for the ld7032 controller */
 655:Core/Src/u8g2/Src/u8x8_cad.c **** /* Issue https://github.com/olikraus/u8g2/issues/865 mentiones, that I2C does not work */
 656:Core/Src/u8g2/Src/u8x8_cad.c **** /* Workaround is to remove the while loop (or increase the value in the condition) */
 657:Core/Src/u8g2/Src/u8x8_cad.c **** uint8_t u8x8_cad_ld7032_i2c(u8x8_t *u8x8, uint8_t msg, uint8_t arg_int, void *arg_ptr)
 658:Core/Src/u8g2/Src/u8x8_cad.c **** {
 2123              		.loc 1 658 1 is_stmt 1 view -0
 2124              		.cfi_startproc
 2125              		@ args = 0, pretend = 0, frame = 0
 2126              		@ frame_needed = 0, uses_anonymous_args = 0
 2127              		.loc 1 658 1 is_stmt 0 view .LVU520
 2128 0000 F8B5     		push	{r3, r4, r5, r6, r7, lr}
 2129              	.LCFI30:
 2130              		.cfi_def_cfa_offset 24
 2131              		.cfi_offset 3, -24
 2132              		.cfi_offset 4, -20
 2133              		.cfi_offset 5, -16
 2134              		.cfi_offset 6, -12
 2135              		.cfi_offset 7, -8
 2136              		.cfi_offset 14, -4
 2137 0002 0446     		mov	r4, r0
 2138 0004 1546     		mov	r5, r2
 2139 0006 1E46     		mov	r6, r3
 659:Core/Src/u8g2/Src/u8x8_cad.c ****   static uint8_t in_transfer = 0;
 2140              		.loc 1 659 3 is_stmt 1 view .LVU521
 660:Core/Src/u8g2/Src/u8x8_cad.c ****   uint8_t *p;
 2141              		.loc 1 660 3 view .LVU522
 661:Core/Src/u8g2/Src/u8x8_cad.c ****   switch(msg)
 2142              		.loc 1 661 3 view .LVU523
 2143 0008 A1F11402 		sub	r2, r1, #20
 2144              	.LVL271:
 2145              		.loc 1 661 3 is_stmt 0 view .LVU524
 2146 000c 052A     		cmp	r2, #5
 2147 000e 53D8     		bhi	.L171
 2148 0010 DFE802F0 		tbb	[pc, r2]
 2149              	.LVL272:
 2150              	.L162:
 2151 0014 36       		.byte	(.L167-.L162)/2
 2152 0015 03       		.byte	(.L166-.L162)/2
 2153 0016 14       		.byte	(.L165-.L162)/2
 2154 0017 2C       		.byte	(.L164-.L162)/2
 2155 0018 44       		.byte	(.L163-.L162)/2
 2156 0019 49       		.byte	(.L161-.L162)/2
 2157              		.p2align 1
 2158              	.L166:
 662:Core/Src/u8g2/Src/u8x8_cad.c ****   {
 663:Core/Src/u8g2/Src/u8x8_cad.c ****     case U8X8_MSG_CAD_SEND_CMD:
 664:Core/Src/u8g2/Src/u8x8_cad.c ****       if ( in_transfer != 0 )
 2159              		.loc 1 664 7 is_stmt 1 view .LVU525
 2160              		.loc 1 664 24 is_stmt 0 view .LVU526
 2161 001a 284B     		ldr	r3, .L177
 2162 001c 1B78     		ldrb	r3, [r3]	@ zero_extendqisi2
 2163              		.loc 1 664 10 view .LVU527
ARM GAS  C:\Users\MOROSH~1\AppData\Local\Temp\cceDu29x.s 			page 58


 2164 001e 53B9     		cbnz	r3, .L174
 2165              	.LVL273:
 2166              	.L168:
 665:Core/Src/u8g2/Src/u8x8_cad.c **** 	u8x8_byte_EndTransfer(u8x8); 
 666:Core/Src/u8g2/Src/u8x8_cad.c ****       u8x8_byte_StartTransfer(u8x8);
 2167              		.loc 1 666 7 is_stmt 1 view .LVU528
 2168 0020 2046     		mov	r0, r4
 2169 0022 FFF7FEFF 		bl	u8x8_byte_StartTransfer
 2170              	.LVL274:
 667:Core/Src/u8g2/Src/u8x8_cad.c ****       u8x8_byte_SendByte(u8x8, arg_int);
 2171              		.loc 1 667 7 view .LVU529
 2172 0026 2946     		mov	r1, r5
 2173 0028 2046     		mov	r0, r4
 2174 002a FFF7FEFF 		bl	u8x8_byte_SendByte
 2175              	.LVL275:
 668:Core/Src/u8g2/Src/u8x8_cad.c ****       in_transfer = 1;
 2176              		.loc 1 668 7 view .LVU530
 2177              		.loc 1 668 19 is_stmt 0 view .LVU531
 2178 002e 0120     		movs	r0, #1
 2179 0030 224B     		ldr	r3, .L177
 2180 0032 1870     		strb	r0, [r3]
 669:Core/Src/u8g2/Src/u8x8_cad.c ****       break;
 2181              		.loc 1 669 7 is_stmt 1 view .LVU532
 2182              	.LVL276:
 2183              	.L160:
 670:Core/Src/u8g2/Src/u8x8_cad.c ****     case U8X8_MSG_CAD_SEND_ARG:
 671:Core/Src/u8g2/Src/u8x8_cad.c ****       u8x8_byte_SendByte(u8x8, arg_int);
 672:Core/Src/u8g2/Src/u8x8_cad.c ****       break;
 673:Core/Src/u8g2/Src/u8x8_cad.c ****     case U8X8_MSG_CAD_SEND_DATA:
 674:Core/Src/u8g2/Src/u8x8_cad.c ****       //u8x8_byte_SetDC(u8x8, 1);
 675:Core/Src/u8g2/Src/u8x8_cad.c ****     
 676:Core/Src/u8g2/Src/u8x8_cad.c ****       /* the FeatherWing OLED with the 32u4 transfer of long byte */
 677:Core/Src/u8g2/Src/u8x8_cad.c ****       /* streams was not possible. This is broken down to */
 678:Core/Src/u8g2/Src/u8x8_cad.c ****       /* smaller streams, 32 seems to be the limit... */
 679:Core/Src/u8g2/Src/u8x8_cad.c ****       /* I guess this is related to the size of the Wire buffers in Arduino */
 680:Core/Src/u8g2/Src/u8x8_cad.c ****       /* Unfortunately, this can not be handled in the byte level drivers, */
 681:Core/Src/u8g2/Src/u8x8_cad.c ****       /* so this is done here. Even further, only 24 bytes will be sent, */
 682:Core/Src/u8g2/Src/u8x8_cad.c ****       /* because there will be another byte (DC) required during the transfer */
 683:Core/Src/u8g2/Src/u8x8_cad.c ****       p = arg_ptr;
 684:Core/Src/u8g2/Src/u8x8_cad.c ****        while( arg_int > 24 )
 685:Core/Src/u8g2/Src/u8x8_cad.c ****       {
 686:Core/Src/u8g2/Src/u8x8_cad.c **** 	u8x8->byte_cb(u8x8, U8X8_MSG_CAD_SEND_DATA, 24, p);
 687:Core/Src/u8g2/Src/u8x8_cad.c **** 	arg_int-=24;
 688:Core/Src/u8g2/Src/u8x8_cad.c **** 	p+=24;
 689:Core/Src/u8g2/Src/u8x8_cad.c **** 	u8x8_byte_EndTransfer(u8x8); 
 690:Core/Src/u8g2/Src/u8x8_cad.c **** 	u8x8_byte_StartTransfer(u8x8);
 691:Core/Src/u8g2/Src/u8x8_cad.c **** 	u8x8_byte_SendByte(u8x8, 0x08);	/* data write for LD7032 */
 692:Core/Src/u8g2/Src/u8x8_cad.c ****       }
 693:Core/Src/u8g2/Src/u8x8_cad.c ****       u8x8->byte_cb(u8x8, U8X8_MSG_CAD_SEND_DATA, arg_int, p);
 694:Core/Src/u8g2/Src/u8x8_cad.c ****       break;
 695:Core/Src/u8g2/Src/u8x8_cad.c ****     case U8X8_MSG_CAD_INIT:
 696:Core/Src/u8g2/Src/u8x8_cad.c ****       /* apply default i2c adr if required so that the start transfer msg can use this */
 697:Core/Src/u8g2/Src/u8x8_cad.c ****       if ( u8x8->i2c_address == 255 )
 698:Core/Src/u8g2/Src/u8x8_cad.c **** 	u8x8->i2c_address = 0x060;
 699:Core/Src/u8g2/Src/u8x8_cad.c ****       return u8x8->byte_cb(u8x8, msg, arg_int, arg_ptr);
 700:Core/Src/u8g2/Src/u8x8_cad.c ****     case U8X8_MSG_CAD_START_TRANSFER:
 701:Core/Src/u8g2/Src/u8x8_cad.c ****       in_transfer = 0;
ARM GAS  C:\Users\MOROSH~1\AppData\Local\Temp\cceDu29x.s 			page 59


 702:Core/Src/u8g2/Src/u8x8_cad.c ****       break;
 703:Core/Src/u8g2/Src/u8x8_cad.c ****     case U8X8_MSG_CAD_END_TRANSFER:
 704:Core/Src/u8g2/Src/u8x8_cad.c ****       if ( in_transfer != 0 )
 705:Core/Src/u8g2/Src/u8x8_cad.c **** 	u8x8_byte_EndTransfer(u8x8); 
 706:Core/Src/u8g2/Src/u8x8_cad.c ****       break;
 707:Core/Src/u8g2/Src/u8x8_cad.c ****     default:
 708:Core/Src/u8g2/Src/u8x8_cad.c ****       return 0;
 709:Core/Src/u8g2/Src/u8x8_cad.c ****   }
 710:Core/Src/u8g2/Src/u8x8_cad.c ****   return 1;
 711:Core/Src/u8g2/Src/u8x8_cad.c **** }
 2184              		.loc 1 711 1 is_stmt 0 view .LVU533
 2185 0034 F8BD     		pop	{r3, r4, r5, r6, r7, pc}
 2186              	.LVL277:
 2187              	.L174:
 665:Core/Src/u8g2/Src/u8x8_cad.c ****       u8x8_byte_StartTransfer(u8x8);
 2188              		.loc 1 665 2 is_stmt 1 view .LVU534
 2189 0036 FFF7FEFF 		bl	u8x8_byte_EndTransfer
 2190              	.LVL278:
 665:Core/Src/u8g2/Src/u8x8_cad.c ****       u8x8_byte_StartTransfer(u8x8);
 2191              		.loc 1 665 2 is_stmt 0 view .LVU535
 2192 003a F1E7     		b	.L168
 2193              	.LVL279:
 2194              	.L165:
 671:Core/Src/u8g2/Src/u8x8_cad.c ****       break;
 2195              		.loc 1 671 7 is_stmt 1 view .LVU536
 2196 003c 2946     		mov	r1, r5
 2197              	.LVL280:
 671:Core/Src/u8g2/Src/u8x8_cad.c ****       break;
 2198              		.loc 1 671 7 is_stmt 0 view .LVU537
 2199 003e FFF7FEFF 		bl	u8x8_byte_SendByte
 2200              	.LVL281:
 672:Core/Src/u8g2/Src/u8x8_cad.c ****     case U8X8_MSG_CAD_SEND_DATA:
 2201              		.loc 1 672 7 is_stmt 1 view .LVU538
 710:Core/Src/u8g2/Src/u8x8_cad.c **** }
 2202              		.loc 1 710 10 is_stmt 0 view .LVU539
 2203 0042 0120     		movs	r0, #1
 672:Core/Src/u8g2/Src/u8x8_cad.c ****     case U8X8_MSG_CAD_SEND_DATA:
 2204              		.loc 1 672 7 view .LVU540
 2205 0044 F6E7     		b	.L160
 2206              	.LVL282:
 2207              	.L169:
 686:Core/Src/u8g2/Src/u8x8_cad.c **** 	arg_int-=24;
 2208              		.loc 1 686 2 is_stmt 1 view .LVU541
 2209 0046 3346     		mov	r3, r6
 2210 0048 1822     		movs	r2, #24
 2211 004a 1721     		movs	r1, #23
 2212 004c 2046     		mov	r0, r4
 2213 004e 2769     		ldr	r7, [r4, #16]
 2214 0050 B847     		blx	r7
 2215              	.LVL283:
 687:Core/Src/u8g2/Src/u8x8_cad.c **** 	p+=24;
 2216              		.loc 1 687 2 view .LVU542
 687:Core/Src/u8g2/Src/u8x8_cad.c **** 	p+=24;
 2217              		.loc 1 687 9 is_stmt 0 view .LVU543
 2218 0052 183D     		subs	r5, r5, #24
 2219              	.LVL284:
 687:Core/Src/u8g2/Src/u8x8_cad.c **** 	p+=24;
ARM GAS  C:\Users\MOROSH~1\AppData\Local\Temp\cceDu29x.s 			page 60


 2220              		.loc 1 687 9 view .LVU544
 2221 0054 EDB2     		uxtb	r5, r5
 2222              	.LVL285:
 688:Core/Src/u8g2/Src/u8x8_cad.c **** 	u8x8_byte_EndTransfer(u8x8); 
 2223              		.loc 1 688 2 is_stmt 1 view .LVU545
 688:Core/Src/u8g2/Src/u8x8_cad.c **** 	u8x8_byte_EndTransfer(u8x8); 
 2224              		.loc 1 688 3 is_stmt 0 view .LVU546
 2225 0056 1836     		adds	r6, r6, #24
 2226              	.LVL286:
 689:Core/Src/u8g2/Src/u8x8_cad.c **** 	u8x8_byte_StartTransfer(u8x8);
 2227              		.loc 1 689 2 is_stmt 1 view .LVU547
 2228 0058 2046     		mov	r0, r4
 2229 005a FFF7FEFF 		bl	u8x8_byte_EndTransfer
 2230              	.LVL287:
 690:Core/Src/u8g2/Src/u8x8_cad.c **** 	u8x8_byte_SendByte(u8x8, 0x08);	/* data write for LD7032 */
 2231              		.loc 1 690 2 view .LVU548
 2232 005e 2046     		mov	r0, r4
 2233 0060 FFF7FEFF 		bl	u8x8_byte_StartTransfer
 2234              	.LVL288:
 691:Core/Src/u8g2/Src/u8x8_cad.c ****       }
 2235              		.loc 1 691 2 view .LVU549
 2236 0064 0821     		movs	r1, #8
 2237 0066 2046     		mov	r0, r4
 2238 0068 FFF7FEFF 		bl	u8x8_byte_SendByte
 2239              	.LVL289:
 2240              	.L164:
 684:Core/Src/u8g2/Src/u8x8_cad.c ****       {
 2241              		.loc 1 684 13 view .LVU550
 2242 006c 182D     		cmp	r5, #24
 2243 006e EAD8     		bhi	.L169
 693:Core/Src/u8g2/Src/u8x8_cad.c ****       break;
 2244              		.loc 1 693 7 view .LVU551
 693:Core/Src/u8g2/Src/u8x8_cad.c ****       break;
 2245              		.loc 1 693 11 is_stmt 0 view .LVU552
 2246 0070 2769     		ldr	r7, [r4, #16]
 693:Core/Src/u8g2/Src/u8x8_cad.c ****       break;
 2247              		.loc 1 693 7 view .LVU553
 2248 0072 3346     		mov	r3, r6
 2249 0074 2A46     		mov	r2, r5
 2250 0076 1721     		movs	r1, #23
 2251 0078 2046     		mov	r0, r4
 2252 007a B847     		blx	r7
 2253              	.LVL290:
 694:Core/Src/u8g2/Src/u8x8_cad.c ****     case U8X8_MSG_CAD_INIT:
 2254              		.loc 1 694 7 is_stmt 1 view .LVU554
 710:Core/Src/u8g2/Src/u8x8_cad.c **** }
 2255              		.loc 1 710 10 is_stmt 0 view .LVU555
 2256 007c 0120     		movs	r0, #1
 694:Core/Src/u8g2/Src/u8x8_cad.c ****     case U8X8_MSG_CAD_INIT:
 2257              		.loc 1 694 7 view .LVU556
 2258 007e D9E7     		b	.L160
 2259              	.LVL291:
 2260              	.L167:
 697:Core/Src/u8g2/Src/u8x8_cad.c **** 	u8x8->i2c_address = 0x060;
 2261              		.loc 1 697 7 is_stmt 1 view .LVU557
 697:Core/Src/u8g2/Src/u8x8_cad.c **** 	u8x8->i2c_address = 0x060;
 2262              		.loc 1 697 16 is_stmt 0 view .LVU558
ARM GAS  C:\Users\MOROSH~1\AppData\Local\Temp\cceDu29x.s 			page 61


 2263 0080 90F82430 		ldrb	r3, [r0, #36]	@ zero_extendqisi2
 697:Core/Src/u8g2/Src/u8x8_cad.c **** 	u8x8->i2c_address = 0x060;
 2264              		.loc 1 697 10 view .LVU559
 2265 0084 FF2B     		cmp	r3, #255
 2266 0086 05D0     		beq	.L175
 2267              	.L170:
 699:Core/Src/u8g2/Src/u8x8_cad.c ****     case U8X8_MSG_CAD_START_TRANSFER:
 2268              		.loc 1 699 7 is_stmt 1 view .LVU560
 699:Core/Src/u8g2/Src/u8x8_cad.c ****     case U8X8_MSG_CAD_START_TRANSFER:
 2269              		.loc 1 699 18 is_stmt 0 view .LVU561
 2270 0088 2769     		ldr	r7, [r4, #16]
 699:Core/Src/u8g2/Src/u8x8_cad.c ****     case U8X8_MSG_CAD_START_TRANSFER:
 2271              		.loc 1 699 14 view .LVU562
 2272 008a 3346     		mov	r3, r6
 2273 008c 2A46     		mov	r2, r5
 2274 008e 2046     		mov	r0, r4
 2275              	.LVL292:
 699:Core/Src/u8g2/Src/u8x8_cad.c ****     case U8X8_MSG_CAD_START_TRANSFER:
 2276              		.loc 1 699 14 view .LVU563
 2277 0090 B847     		blx	r7
 2278              	.LVL293:
 699:Core/Src/u8g2/Src/u8x8_cad.c ****     case U8X8_MSG_CAD_START_TRANSFER:
 2279              		.loc 1 699 14 view .LVU564
 2280 0092 CFE7     		b	.L160
 2281              	.LVL294:
 2282              	.L175:
 698:Core/Src/u8g2/Src/u8x8_cad.c ****       return u8x8->byte_cb(u8x8, msg, arg_int, arg_ptr);
 2283              		.loc 1 698 2 is_stmt 1 view .LVU565
 698:Core/Src/u8g2/Src/u8x8_cad.c ****       return u8x8->byte_cb(u8x8, msg, arg_int, arg_ptr);
 2284              		.loc 1 698 20 is_stmt 0 view .LVU566
 2285 0094 6023     		movs	r3, #96
 2286 0096 80F82430 		strb	r3, [r0, #36]
 2287 009a F5E7     		b	.L170
 2288              	.L163:
 701:Core/Src/u8g2/Src/u8x8_cad.c ****       break;
 2289              		.loc 1 701 7 is_stmt 1 view .LVU567
 701:Core/Src/u8g2/Src/u8x8_cad.c ****       break;
 2290              		.loc 1 701 19 is_stmt 0 view .LVU568
 2291 009c 074B     		ldr	r3, .L177
 2292 009e 0022     		movs	r2, #0
 2293 00a0 1A70     		strb	r2, [r3]
 702:Core/Src/u8g2/Src/u8x8_cad.c ****     case U8X8_MSG_CAD_END_TRANSFER:
 2294              		.loc 1 702 7 is_stmt 1 view .LVU569
 710:Core/Src/u8g2/Src/u8x8_cad.c **** }
 2295              		.loc 1 710 10 is_stmt 0 view .LVU570
 2296 00a2 0120     		movs	r0, #1
 2297              	.LVL295:
 702:Core/Src/u8g2/Src/u8x8_cad.c ****     case U8X8_MSG_CAD_END_TRANSFER:
 2298              		.loc 1 702 7 view .LVU571
 2299 00a4 C6E7     		b	.L160
 2300              	.LVL296:
 2301              	.L161:
 704:Core/Src/u8g2/Src/u8x8_cad.c **** 	u8x8_byte_EndTransfer(u8x8); 
 2302              		.loc 1 704 7 is_stmt 1 view .LVU572
 704:Core/Src/u8g2/Src/u8x8_cad.c **** 	u8x8_byte_EndTransfer(u8x8); 
 2303              		.loc 1 704 24 is_stmt 0 view .LVU573
 2304 00a6 054B     		ldr	r3, .L177
ARM GAS  C:\Users\MOROSH~1\AppData\Local\Temp\cceDu29x.s 			page 62


 2305 00a8 1B78     		ldrb	r3, [r3]	@ zero_extendqisi2
 704:Core/Src/u8g2/Src/u8x8_cad.c **** 	u8x8_byte_EndTransfer(u8x8); 
 2306              		.loc 1 704 10 view .LVU574
 2307 00aa 0BB9     		cbnz	r3, .L176
 710:Core/Src/u8g2/Src/u8x8_cad.c **** }
 2308              		.loc 1 710 10 view .LVU575
 2309 00ac 0120     		movs	r0, #1
 2310              	.LVL297:
 710:Core/Src/u8g2/Src/u8x8_cad.c **** }
 2311              		.loc 1 710 10 view .LVU576
 2312 00ae C1E7     		b	.L160
 2313              	.LVL298:
 2314              	.L176:
 705:Core/Src/u8g2/Src/u8x8_cad.c ****       break;
 2315              		.loc 1 705 2 is_stmt 1 view .LVU577
 2316 00b0 FFF7FEFF 		bl	u8x8_byte_EndTransfer
 2317              	.LVL299:
 710:Core/Src/u8g2/Src/u8x8_cad.c **** }
 2318              		.loc 1 710 10 is_stmt 0 view .LVU578
 2319 00b4 0120     		movs	r0, #1
 2320 00b6 BDE7     		b	.L160
 2321              	.LVL300:
 2322              	.L171:
 661:Core/Src/u8g2/Src/u8x8_cad.c ****   {
 2323              		.loc 1 661 3 view .LVU579
 2324 00b8 0020     		movs	r0, #0
 2325              	.LVL301:
 661:Core/Src/u8g2/Src/u8x8_cad.c ****   {
 2326              		.loc 1 661 3 view .LVU580
 2327 00ba BBE7     		b	.L160
 2328              	.L178:
 2329              		.align	2
 2330              	.L177:
 2331 00bc 00000000 		.word	.LANCHOR2
 2332              		.cfi_endproc
 2333              	.LFE20:
 2335              		.section	.text.u8x8_cad_uc16xx_i2c,"ax",%progbits
 2336              		.align	1
 2337              		.global	u8x8_cad_uc16xx_i2c
 2338              		.syntax unified
 2339              		.thumb
 2340              		.thumb_func
 2342              	u8x8_cad_uc16xx_i2c:
 2343              	.LVL302:
 2344              	.LFB21:
 712:Core/Src/u8g2/Src/u8x8_cad.c **** 
 713:Core/Src/u8g2/Src/u8x8_cad.c **** /* cad procedure for the UC16xx family in I2C mode */
 714:Core/Src/u8g2/Src/u8x8_cad.c **** /* u8x8_byte_SetDC is not used */
 715:Core/Src/u8g2/Src/u8x8_cad.c **** /* DC bit is encoded into the adr byte, structure is CAD001 */
 716:Core/Src/u8g2/Src/u8x8_cad.c **** uint8_t u8x8_cad_uc16xx_i2c(u8x8_t *u8x8, uint8_t msg, uint8_t arg_int, void *arg_ptr)
 717:Core/Src/u8g2/Src/u8x8_cad.c **** {
 2345              		.loc 1 717 1 is_stmt 1 view -0
 2346              		.cfi_startproc
 2347              		@ args = 0, pretend = 0, frame = 0
 2348              		@ frame_needed = 0, uses_anonymous_args = 0
 2349              		.loc 1 717 1 is_stmt 0 view .LVU582
 2350 0000 F8B5     		push	{r3, r4, r5, r6, r7, lr}
ARM GAS  C:\Users\MOROSH~1\AppData\Local\Temp\cceDu29x.s 			page 63


 2351              	.LCFI31:
 2352              		.cfi_def_cfa_offset 24
 2353              		.cfi_offset 3, -24
 2354              		.cfi_offset 4, -20
 2355              		.cfi_offset 5, -16
 2356              		.cfi_offset 6, -12
 2357              		.cfi_offset 7, -8
 2358              		.cfi_offset 14, -4
 2359 0002 0546     		mov	r5, r0
 2360 0004 1446     		mov	r4, r2
 2361 0006 1E46     		mov	r6, r3
 718:Core/Src/u8g2/Src/u8x8_cad.c ****   static uint8_t in_transfer = 0;	
 2362              		.loc 1 718 3 is_stmt 1 view .LVU583
 719:Core/Src/u8g2/Src/u8x8_cad.c ****   static uint8_t is_data = 0;
 2363              		.loc 1 719 3 view .LVU584
 720:Core/Src/u8g2/Src/u8x8_cad.c ****   uint8_t *p;
 2364              		.loc 1 720 3 view .LVU585
 721:Core/Src/u8g2/Src/u8x8_cad.c ****   switch(msg)
 2365              		.loc 1 721 3 view .LVU586
 2366 0008 A1F11402 		sub	r2, r1, #20
 2367              	.LVL303:
 2368              		.loc 1 721 3 is_stmt 0 view .LVU587
 2369 000c 052A     		cmp	r2, #5
 2370 000e 6ED8     		bhi	.L194
 2371 0010 DFE802F0 		tbb	[pc, r2]
 2372              	.LVL304:
 2373              	.L182:
 2374 0014 4F       		.byte	(.L186-.L182)/2
 2375 0015 03       		.byte	(.L185-.L182)/2
 2376 0016 03       		.byte	(.L185-.L182)/2
 2377 0017 17       		.byte	(.L184-.L182)/2
 2378 0018 5D       		.byte	(.L183-.L182)/2
 2379 0019 62       		.byte	(.L181-.L182)/2
 2380              		.p2align 1
 2381              	.L185:
 722:Core/Src/u8g2/Src/u8x8_cad.c ****   {
 723:Core/Src/u8g2/Src/u8x8_cad.c ****     case U8X8_MSG_CAD_SEND_CMD:
 724:Core/Src/u8g2/Src/u8x8_cad.c ****     case U8X8_MSG_CAD_SEND_ARG:
 725:Core/Src/u8g2/Src/u8x8_cad.c ****       if ( in_transfer != 0 )
 2382              		.loc 1 725 7 is_stmt 1 view .LVU588
 2383              		.loc 1 725 24 is_stmt 0 view .LVU589
 2384 001a 364B     		ldr	r3, .L199
 2385 001c 1B78     		ldrb	r3, [r3]	@ zero_extendqisi2
 2386              		.loc 1 725 10 view .LVU590
 2387 001e 3BB1     		cbz	r3, .L196
 2388              	.LVL305:
 2389              	.L187:
 726:Core/Src/u8g2/Src/u8x8_cad.c ****       {
 727:Core/Src/u8g2/Src/u8x8_cad.c **** 	if ( is_data != 0 )
 728:Core/Src/u8g2/Src/u8x8_cad.c **** 	{
 729:Core/Src/u8g2/Src/u8x8_cad.c **** 	  /* transfer mode is active, but data transfer */
 730:Core/Src/u8g2/Src/u8x8_cad.c **** 	  u8x8_byte_EndTransfer(u8x8); 
 731:Core/Src/u8g2/Src/u8x8_cad.c **** 	  /* clear the lowest two bits of the adr */
 732:Core/Src/u8g2/Src/u8x8_cad.c **** 	  u8x8_SetI2CAddress( u8x8, u8x8_GetI2CAddress(u8x8)&0x0fc );
 733:Core/Src/u8g2/Src/u8x8_cad.c **** 	  u8x8_byte_StartTransfer(u8x8); 
 734:Core/Src/u8g2/Src/u8x8_cad.c **** 	}
 735:Core/Src/u8g2/Src/u8x8_cad.c ****       }
ARM GAS  C:\Users\MOROSH~1\AppData\Local\Temp\cceDu29x.s 			page 64


 736:Core/Src/u8g2/Src/u8x8_cad.c ****       else
 737:Core/Src/u8g2/Src/u8x8_cad.c ****       {
 738:Core/Src/u8g2/Src/u8x8_cad.c **** 	/* clear the lowest two bits of the adr */
 739:Core/Src/u8g2/Src/u8x8_cad.c **** 	u8x8_SetI2CAddress( u8x8, u8x8_GetI2CAddress(u8x8)&0x0fc );
 740:Core/Src/u8g2/Src/u8x8_cad.c **** 	u8x8_byte_StartTransfer(u8x8);
 741:Core/Src/u8g2/Src/u8x8_cad.c ****       }
 742:Core/Src/u8g2/Src/u8x8_cad.c ****       u8x8_byte_SendByte(u8x8, arg_int);
 2390              		.loc 1 742 7 is_stmt 1 view .LVU591
 2391 0020 2146     		mov	r1, r4
 2392 0022 2846     		mov	r0, r5
 2393 0024 FFF7FEFF 		bl	u8x8_byte_SendByte
 2394              	.LVL306:
 743:Core/Src/u8g2/Src/u8x8_cad.c ****       in_transfer = 1;
 2395              		.loc 1 743 7 view .LVU592
 2396              		.loc 1 743 19 is_stmt 0 view .LVU593
 2397 0028 0120     		movs	r0, #1
 2398 002a 324B     		ldr	r3, .L199
 2399 002c 1870     		strb	r0, [r3]
 744:Core/Src/u8g2/Src/u8x8_cad.c ****       // is_data = 0;  // 20 Jun 2021: I assume that this is missing here
 745:Core/Src/u8g2/Src/u8x8_cad.c ****       break;
 2400              		.loc 1 745 7 is_stmt 1 view .LVU594
 2401              	.LVL307:
 2402              	.L180:
 746:Core/Src/u8g2/Src/u8x8_cad.c ****     case U8X8_MSG_CAD_SEND_DATA:
 747:Core/Src/u8g2/Src/u8x8_cad.c ****       if ( in_transfer != 0 )
 748:Core/Src/u8g2/Src/u8x8_cad.c ****       {
 749:Core/Src/u8g2/Src/u8x8_cad.c **** 	if ( is_data == 0 )
 750:Core/Src/u8g2/Src/u8x8_cad.c **** 	{
 751:Core/Src/u8g2/Src/u8x8_cad.c **** 	  /* transfer mode is active, but data transfer */
 752:Core/Src/u8g2/Src/u8x8_cad.c **** 	  u8x8_byte_EndTransfer(u8x8); 
 753:Core/Src/u8g2/Src/u8x8_cad.c **** 	  /* clear the lowest two bits of the adr */
 754:Core/Src/u8g2/Src/u8x8_cad.c **** 	  u8x8_SetI2CAddress( u8x8, (u8x8_GetI2CAddress(u8x8)&0x0fc)|2 );
 755:Core/Src/u8g2/Src/u8x8_cad.c **** 	  u8x8_byte_StartTransfer(u8x8); 
 756:Core/Src/u8g2/Src/u8x8_cad.c **** 	}
 757:Core/Src/u8g2/Src/u8x8_cad.c ****       }
 758:Core/Src/u8g2/Src/u8x8_cad.c ****       else
 759:Core/Src/u8g2/Src/u8x8_cad.c ****       {
 760:Core/Src/u8g2/Src/u8x8_cad.c **** 	/* clear the lowest two bits of the adr */
 761:Core/Src/u8g2/Src/u8x8_cad.c **** 	u8x8_SetI2CAddress( u8x8, (u8x8_GetI2CAddress(u8x8)&0x0fc)|2 );
 762:Core/Src/u8g2/Src/u8x8_cad.c **** 	u8x8_byte_StartTransfer(u8x8);
 763:Core/Src/u8g2/Src/u8x8_cad.c ****       }
 764:Core/Src/u8g2/Src/u8x8_cad.c ****       in_transfer = 1;
 765:Core/Src/u8g2/Src/u8x8_cad.c ****       // is_data = 1;  // 20 Jun 2021: I assume that this is missing here
 766:Core/Src/u8g2/Src/u8x8_cad.c ****       
 767:Core/Src/u8g2/Src/u8x8_cad.c ****       p = arg_ptr;
 768:Core/Src/u8g2/Src/u8x8_cad.c ****       while( arg_int > 24 )
 769:Core/Src/u8g2/Src/u8x8_cad.c ****       {
 770:Core/Src/u8g2/Src/u8x8_cad.c **** 	u8x8->byte_cb(u8x8, U8X8_MSG_CAD_SEND_DATA, 24, p);
 771:Core/Src/u8g2/Src/u8x8_cad.c **** 	arg_int-=24;
 772:Core/Src/u8g2/Src/u8x8_cad.c **** 	p+=24;
 773:Core/Src/u8g2/Src/u8x8_cad.c **** 	u8x8_byte_EndTransfer(u8x8); 
 774:Core/Src/u8g2/Src/u8x8_cad.c **** 	u8x8_byte_StartTransfer(u8x8);
 775:Core/Src/u8g2/Src/u8x8_cad.c ****       }
 776:Core/Src/u8g2/Src/u8x8_cad.c ****       u8x8->byte_cb(u8x8, U8X8_MSG_CAD_SEND_DATA, arg_int, p);
 777:Core/Src/u8g2/Src/u8x8_cad.c ****       
 778:Core/Src/u8g2/Src/u8x8_cad.c ****       break;
 779:Core/Src/u8g2/Src/u8x8_cad.c ****     case U8X8_MSG_CAD_INIT:
ARM GAS  C:\Users\MOROSH~1\AppData\Local\Temp\cceDu29x.s 			page 65


 780:Core/Src/u8g2/Src/u8x8_cad.c ****       /* apply default i2c adr if required so that the start transfer msg can use this */
 781:Core/Src/u8g2/Src/u8x8_cad.c ****       if ( u8x8->i2c_address == 255 )
 782:Core/Src/u8g2/Src/u8x8_cad.c **** 	u8x8->i2c_address = 0x070;
 783:Core/Src/u8g2/Src/u8x8_cad.c ****       return u8x8->byte_cb(u8x8, msg, arg_int, arg_ptr);
 784:Core/Src/u8g2/Src/u8x8_cad.c ****     case U8X8_MSG_CAD_START_TRANSFER:
 785:Core/Src/u8g2/Src/u8x8_cad.c ****       in_transfer = 0;    
 786:Core/Src/u8g2/Src/u8x8_cad.c ****       /* actual start is delayed, because we do not whether this is data or cmd transfer */
 787:Core/Src/u8g2/Src/u8x8_cad.c ****       break;
 788:Core/Src/u8g2/Src/u8x8_cad.c ****     case U8X8_MSG_CAD_END_TRANSFER:
 789:Core/Src/u8g2/Src/u8x8_cad.c ****       if ( in_transfer != 0 )
 790:Core/Src/u8g2/Src/u8x8_cad.c **** 	u8x8_byte_EndTransfer(u8x8);
 791:Core/Src/u8g2/Src/u8x8_cad.c ****       in_transfer = 0;
 792:Core/Src/u8g2/Src/u8x8_cad.c ****       break;
 793:Core/Src/u8g2/Src/u8x8_cad.c ****     default:
 794:Core/Src/u8g2/Src/u8x8_cad.c ****       return 0;
 795:Core/Src/u8g2/Src/u8x8_cad.c ****   }
 796:Core/Src/u8g2/Src/u8x8_cad.c ****   return 1;
 797:Core/Src/u8g2/Src/u8x8_cad.c **** }
 2403              		.loc 1 797 1 is_stmt 0 view .LVU595
 2404 002e F8BD     		pop	{r3, r4, r5, r6, r7, pc}
 2405              	.LVL308:
 2406              	.L196:
 739:Core/Src/u8g2/Src/u8x8_cad.c **** 	u8x8_byte_StartTransfer(u8x8);
 2407              		.loc 1 739 2 is_stmt 1 view .LVU596
 2408 0030 90F82430 		ldrb	r3, [r0, #36]	@ zero_extendqisi2
 2409 0034 03F0FC03 		and	r3, r3, #252
 2410 0038 80F82430 		strb	r3, [r0, #36]
 740:Core/Src/u8g2/Src/u8x8_cad.c ****       }
 2411              		.loc 1 740 2 view .LVU597
 2412 003c FFF7FEFF 		bl	u8x8_byte_StartTransfer
 2413              	.LVL309:
 740:Core/Src/u8g2/Src/u8x8_cad.c ****       }
 2414              		.loc 1 740 2 is_stmt 0 view .LVU598
 2415 0040 EEE7     		b	.L187
 2416              	.LVL310:
 2417              	.L184:
 747:Core/Src/u8g2/Src/u8x8_cad.c ****       {
 2418              		.loc 1 747 7 is_stmt 1 view .LVU599
 747:Core/Src/u8g2/Src/u8x8_cad.c ****       {
 2419              		.loc 1 747 24 is_stmt 0 view .LVU600
 2420 0042 2C4B     		ldr	r3, .L199
 2421 0044 1B78     		ldrb	r3, [r3]	@ zero_extendqisi2
 747:Core/Src/u8g2/Src/u8x8_cad.c ****       {
 2422              		.loc 1 747 10 view .LVU601
 2423 0046 6BB1     		cbz	r3, .L188
 749:Core/Src/u8g2/Src/u8x8_cad.c **** 	{
 2424              		.loc 1 749 2 is_stmt 1 view .LVU602
 752:Core/Src/u8g2/Src/u8x8_cad.c **** 	  /* clear the lowest two bits of the adr */
 2425              		.loc 1 752 4 view .LVU603
 2426 0048 FFF7FEFF 		bl	u8x8_byte_EndTransfer
 2427              	.LVL311:
 754:Core/Src/u8g2/Src/u8x8_cad.c **** 	  u8x8_byte_StartTransfer(u8x8); 
 2428              		.loc 1 754 4 view .LVU604
 2429 004c 95F92430 		ldrsb	r3, [r5, #36]
 2430 0050 23F00303 		bic	r3, r3, #3
 2431 0054 43F00203 		orr	r3, r3, #2
 2432 0058 85F82430 		strb	r3, [r5, #36]
ARM GAS  C:\Users\MOROSH~1\AppData\Local\Temp\cceDu29x.s 			page 66


 755:Core/Src/u8g2/Src/u8x8_cad.c **** 	}
 2433              		.loc 1 755 4 view .LVU605
 2434 005c 2846     		mov	r0, r5
 2435 005e FFF7FEFF 		bl	u8x8_byte_StartTransfer
 2436              	.LVL312:
 2437 0062 09E0     		b	.L189
 2438              	.LVL313:
 2439              	.L188:
 761:Core/Src/u8g2/Src/u8x8_cad.c **** 	u8x8_byte_StartTransfer(u8x8);
 2440              		.loc 1 761 2 view .LVU606
 2441 0064 90F92430 		ldrsb	r3, [r0, #36]
 2442 0068 23F00303 		bic	r3, r3, #3
 2443 006c 43F00203 		orr	r3, r3, #2
 2444 0070 80F82430 		strb	r3, [r0, #36]
 762:Core/Src/u8g2/Src/u8x8_cad.c ****       }
 2445              		.loc 1 762 2 view .LVU607
 2446 0074 FFF7FEFF 		bl	u8x8_byte_StartTransfer
 2447              	.LVL314:
 2448              	.L189:
 764:Core/Src/u8g2/Src/u8x8_cad.c ****       // is_data = 1;  // 20 Jun 2021: I assume that this is missing here
 2449              		.loc 1 764 7 view .LVU608
 764:Core/Src/u8g2/Src/u8x8_cad.c ****       // is_data = 1;  // 20 Jun 2021: I assume that this is missing here
 2450              		.loc 1 764 19 is_stmt 0 view .LVU609
 2451 0078 1E4B     		ldr	r3, .L199
 2452 007a 0122     		movs	r2, #1
 2453 007c 1A70     		strb	r2, [r3]
 767:Core/Src/u8g2/Src/u8x8_cad.c ****       while( arg_int > 24 )
 2454              		.loc 1 767 7 is_stmt 1 view .LVU610
 2455              	.LVL315:
 768:Core/Src/u8g2/Src/u8x8_cad.c ****       {
 2456              		.loc 1 768 7 view .LVU611
 768:Core/Src/u8g2/Src/u8x8_cad.c ****       {
 2457              		.loc 1 768 12 is_stmt 0 view .LVU612
 2458 007e 0EE0     		b	.L190
 2459              	.LVL316:
 2460              	.L191:
 770:Core/Src/u8g2/Src/u8x8_cad.c **** 	arg_int-=24;
 2461              		.loc 1 770 2 is_stmt 1 view .LVU613
 2462 0080 3346     		mov	r3, r6
 2463 0082 1822     		movs	r2, #24
 2464 0084 1721     		movs	r1, #23
 2465 0086 2846     		mov	r0, r5
 2466 0088 2F69     		ldr	r7, [r5, #16]
 2467 008a B847     		blx	r7
 2468              	.LVL317:
 771:Core/Src/u8g2/Src/u8x8_cad.c **** 	p+=24;
 2469              		.loc 1 771 2 view .LVU614
 771:Core/Src/u8g2/Src/u8x8_cad.c **** 	p+=24;
 2470              		.loc 1 771 9 is_stmt 0 view .LVU615
 2471 008c 183C     		subs	r4, r4, #24
 2472              	.LVL318:
 771:Core/Src/u8g2/Src/u8x8_cad.c **** 	p+=24;
 2473              		.loc 1 771 9 view .LVU616
 2474 008e E4B2     		uxtb	r4, r4
 2475              	.LVL319:
 772:Core/Src/u8g2/Src/u8x8_cad.c **** 	u8x8_byte_EndTransfer(u8x8); 
 2476              		.loc 1 772 2 is_stmt 1 view .LVU617
ARM GAS  C:\Users\MOROSH~1\AppData\Local\Temp\cceDu29x.s 			page 67


 772:Core/Src/u8g2/Src/u8x8_cad.c **** 	u8x8_byte_EndTransfer(u8x8); 
 2477              		.loc 1 772 3 is_stmt 0 view .LVU618
 2478 0090 1836     		adds	r6, r6, #24
 2479              	.LVL320:
 773:Core/Src/u8g2/Src/u8x8_cad.c **** 	u8x8_byte_StartTransfer(u8x8);
 2480              		.loc 1 773 2 is_stmt 1 view .LVU619
 2481 0092 2846     		mov	r0, r5
 2482 0094 FFF7FEFF 		bl	u8x8_byte_EndTransfer
 2483              	.LVL321:
 774:Core/Src/u8g2/Src/u8x8_cad.c ****       }
 2484              		.loc 1 774 2 view .LVU620
 2485 0098 2846     		mov	r0, r5
 2486 009a FFF7FEFF 		bl	u8x8_byte_StartTransfer
 2487              	.LVL322:
 2488              	.L190:
 768:Core/Src/u8g2/Src/u8x8_cad.c ****       {
 2489              		.loc 1 768 12 view .LVU621
 2490 009e 182C     		cmp	r4, #24
 2491 00a0 EED8     		bhi	.L191
 776:Core/Src/u8g2/Src/u8x8_cad.c ****       
 2492              		.loc 1 776 7 view .LVU622
 776:Core/Src/u8g2/Src/u8x8_cad.c ****       
 2493              		.loc 1 776 11 is_stmt 0 view .LVU623
 2494 00a2 2F69     		ldr	r7, [r5, #16]
 776:Core/Src/u8g2/Src/u8x8_cad.c ****       
 2495              		.loc 1 776 7 view .LVU624
 2496 00a4 3346     		mov	r3, r6
 2497 00a6 2246     		mov	r2, r4
 2498 00a8 1721     		movs	r1, #23
 2499 00aa 2846     		mov	r0, r5
 2500 00ac B847     		blx	r7
 2501              	.LVL323:
 778:Core/Src/u8g2/Src/u8x8_cad.c ****     case U8X8_MSG_CAD_INIT:
 2502              		.loc 1 778 7 is_stmt 1 view .LVU625
 796:Core/Src/u8g2/Src/u8x8_cad.c **** }
 2503              		.loc 1 796 10 is_stmt 0 view .LVU626
 2504 00ae 0120     		movs	r0, #1
 778:Core/Src/u8g2/Src/u8x8_cad.c ****     case U8X8_MSG_CAD_INIT:
 2505              		.loc 1 778 7 view .LVU627
 2506 00b0 BDE7     		b	.L180
 2507              	.LVL324:
 2508              	.L186:
 781:Core/Src/u8g2/Src/u8x8_cad.c **** 	u8x8->i2c_address = 0x070;
 2509              		.loc 1 781 7 is_stmt 1 view .LVU628
 781:Core/Src/u8g2/Src/u8x8_cad.c **** 	u8x8->i2c_address = 0x070;
 2510              		.loc 1 781 16 is_stmt 0 view .LVU629
 2511 00b2 90F82430 		ldrb	r3, [r0, #36]	@ zero_extendqisi2
 781:Core/Src/u8g2/Src/u8x8_cad.c **** 	u8x8->i2c_address = 0x070;
 2512              		.loc 1 781 10 view .LVU630
 2513 00b6 FF2B     		cmp	r3, #255
 2514 00b8 05D0     		beq	.L197
 2515              	.L192:
 783:Core/Src/u8g2/Src/u8x8_cad.c ****     case U8X8_MSG_CAD_START_TRANSFER:
 2516              		.loc 1 783 7 is_stmt 1 view .LVU631
 783:Core/Src/u8g2/Src/u8x8_cad.c ****     case U8X8_MSG_CAD_START_TRANSFER:
 2517              		.loc 1 783 18 is_stmt 0 view .LVU632
 2518 00ba 2F69     		ldr	r7, [r5, #16]
ARM GAS  C:\Users\MOROSH~1\AppData\Local\Temp\cceDu29x.s 			page 68


 783:Core/Src/u8g2/Src/u8x8_cad.c ****     case U8X8_MSG_CAD_START_TRANSFER:
 2519              		.loc 1 783 14 view .LVU633
 2520 00bc 3346     		mov	r3, r6
 2521 00be 2246     		mov	r2, r4
 2522 00c0 2846     		mov	r0, r5
 2523              	.LVL325:
 783:Core/Src/u8g2/Src/u8x8_cad.c ****     case U8X8_MSG_CAD_START_TRANSFER:
 2524              		.loc 1 783 14 view .LVU634
 2525 00c2 B847     		blx	r7
 2526              	.LVL326:
 783:Core/Src/u8g2/Src/u8x8_cad.c ****     case U8X8_MSG_CAD_START_TRANSFER:
 2527              		.loc 1 783 14 view .LVU635
 2528 00c4 B3E7     		b	.L180
 2529              	.LVL327:
 2530              	.L197:
 782:Core/Src/u8g2/Src/u8x8_cad.c ****       return u8x8->byte_cb(u8x8, msg, arg_int, arg_ptr);
 2531              		.loc 1 782 2 is_stmt 1 view .LVU636
 782:Core/Src/u8g2/Src/u8x8_cad.c ****       return u8x8->byte_cb(u8x8, msg, arg_int, arg_ptr);
 2532              		.loc 1 782 20 is_stmt 0 view .LVU637
 2533 00c6 7023     		movs	r3, #112
 2534 00c8 80F82430 		strb	r3, [r0, #36]
 2535 00cc F5E7     		b	.L192
 2536              	.L183:
 785:Core/Src/u8g2/Src/u8x8_cad.c ****       /* actual start is delayed, because we do not whether this is data or cmd transfer */
 2537              		.loc 1 785 7 is_stmt 1 view .LVU638
 785:Core/Src/u8g2/Src/u8x8_cad.c ****       /* actual start is delayed, because we do not whether this is data or cmd transfer */
 2538              		.loc 1 785 19 is_stmt 0 view .LVU639
 2539 00ce 094B     		ldr	r3, .L199
 2540 00d0 0022     		movs	r2, #0
 2541 00d2 1A70     		strb	r2, [r3]
 787:Core/Src/u8g2/Src/u8x8_cad.c ****     case U8X8_MSG_CAD_END_TRANSFER:
 2542              		.loc 1 787 7 is_stmt 1 view .LVU640
 796:Core/Src/u8g2/Src/u8x8_cad.c **** }
 2543              		.loc 1 796 10 is_stmt 0 view .LVU641
 2544 00d4 0120     		movs	r0, #1
 2545              	.LVL328:
 787:Core/Src/u8g2/Src/u8x8_cad.c ****     case U8X8_MSG_CAD_END_TRANSFER:
 2546              		.loc 1 787 7 view .LVU642
 2547 00d6 AAE7     		b	.L180
 2548              	.LVL329:
 2549              	.L181:
 789:Core/Src/u8g2/Src/u8x8_cad.c **** 	u8x8_byte_EndTransfer(u8x8);
 2550              		.loc 1 789 7 is_stmt 1 view .LVU643
 789:Core/Src/u8g2/Src/u8x8_cad.c **** 	u8x8_byte_EndTransfer(u8x8);
 2551              		.loc 1 789 24 is_stmt 0 view .LVU644
 2552 00d8 064B     		ldr	r3, .L199
 2553 00da 1B78     		ldrb	r3, [r3]	@ zero_extendqisi2
 789:Core/Src/u8g2/Src/u8x8_cad.c **** 	u8x8_byte_EndTransfer(u8x8);
 2554              		.loc 1 789 10 view .LVU645
 2555 00dc 23B9     		cbnz	r3, .L198
 2556              	.LVL330:
 2557              	.L193:
 791:Core/Src/u8g2/Src/u8x8_cad.c ****       break;
 2558              		.loc 1 791 7 is_stmt 1 view .LVU646
 791:Core/Src/u8g2/Src/u8x8_cad.c ****       break;
 2559              		.loc 1 791 19 is_stmt 0 view .LVU647
 2560 00de 054B     		ldr	r3, .L199
ARM GAS  C:\Users\MOROSH~1\AppData\Local\Temp\cceDu29x.s 			page 69


 2561 00e0 0022     		movs	r2, #0
 2562 00e2 1A70     		strb	r2, [r3]
 792:Core/Src/u8g2/Src/u8x8_cad.c ****     default:
 2563              		.loc 1 792 7 is_stmt 1 view .LVU648
 796:Core/Src/u8g2/Src/u8x8_cad.c **** }
 2564              		.loc 1 796 10 is_stmt 0 view .LVU649
 2565 00e4 0120     		movs	r0, #1
 792:Core/Src/u8g2/Src/u8x8_cad.c ****     default:
 2566              		.loc 1 792 7 view .LVU650
 2567 00e6 A2E7     		b	.L180
 2568              	.LVL331:
 2569              	.L198:
 790:Core/Src/u8g2/Src/u8x8_cad.c ****       in_transfer = 0;
 2570              		.loc 1 790 2 is_stmt 1 view .LVU651
 2571 00e8 FFF7FEFF 		bl	u8x8_byte_EndTransfer
 2572              	.LVL332:
 790:Core/Src/u8g2/Src/u8x8_cad.c ****       in_transfer = 0;
 2573              		.loc 1 790 2 is_stmt 0 view .LVU652
 2574 00ec F7E7     		b	.L193
 2575              	.LVL333:
 2576              	.L194:
 721:Core/Src/u8g2/Src/u8x8_cad.c ****   {
 2577              		.loc 1 721 3 view .LVU653
 2578 00ee 0020     		movs	r0, #0
 2579              	.LVL334:
 721:Core/Src/u8g2/Src/u8x8_cad.c ****   {
 2580              		.loc 1 721 3 view .LVU654
 2581 00f0 9DE7     		b	.L180
 2582              	.L200:
 2583 00f2 00BF     		.align	2
 2584              	.L199:
 2585 00f4 00000000 		.word	.LANCHOR3
 2586              		.cfi_endproc
 2587              	.LFE21:
 2589              		.section	.text.u8x8_cad_uc1638_i2c,"ax",%progbits
 2590              		.align	1
 2591              		.global	u8x8_cad_uc1638_i2c
 2592              		.syntax unified
 2593              		.thumb
 2594              		.thumb_func
 2596              	u8x8_cad_uc1638_i2c:
 2597              	.LVL335:
 2598              	.LFB22:
 798:Core/Src/u8g2/Src/u8x8_cad.c **** 
 799:Core/Src/u8g2/Src/u8x8_cad.c **** 
 800:Core/Src/u8g2/Src/u8x8_cad.c **** /* cad procedure for the UC1638 in I2C mode */
 801:Core/Src/u8g2/Src/u8x8_cad.c **** /* same as  u8x8_cad_uc16xx_i2c but CAD structure is CAD011 */
 802:Core/Src/u8g2/Src/u8x8_cad.c **** uint8_t u8x8_cad_uc1638_i2c(u8x8_t *u8x8, uint8_t msg, uint8_t arg_int, void *arg_ptr)
 803:Core/Src/u8g2/Src/u8x8_cad.c **** {
 2599              		.loc 1 803 1 is_stmt 1 view -0
 2600              		.cfi_startproc
 2601              		@ args = 0, pretend = 0, frame = 0
 2602              		@ frame_needed = 0, uses_anonymous_args = 0
 2603              		.loc 1 803 1 is_stmt 0 view .LVU656
 2604 0000 F8B5     		push	{r3, r4, r5, r6, r7, lr}
 2605              	.LCFI32:
 2606              		.cfi_def_cfa_offset 24
ARM GAS  C:\Users\MOROSH~1\AppData\Local\Temp\cceDu29x.s 			page 70


 2607              		.cfi_offset 3, -24
 2608              		.cfi_offset 4, -20
 2609              		.cfi_offset 5, -16
 2610              		.cfi_offset 6, -12
 2611              		.cfi_offset 7, -8
 2612              		.cfi_offset 14, -4
 2613 0002 0446     		mov	r4, r0
 2614 0004 1546     		mov	r5, r2
 2615 0006 1E46     		mov	r6, r3
 804:Core/Src/u8g2/Src/u8x8_cad.c ****   static uint8_t in_transfer = 0;	
 2616              		.loc 1 804 3 is_stmt 1 view .LVU657
 805:Core/Src/u8g2/Src/u8x8_cad.c ****   static uint8_t is_data = 0;
 2617              		.loc 1 805 3 view .LVU658
 806:Core/Src/u8g2/Src/u8x8_cad.c ****   uint8_t *p;
 2618              		.loc 1 806 3 view .LVU659
 807:Core/Src/u8g2/Src/u8x8_cad.c ****   switch(msg)
 2619              		.loc 1 807 3 view .LVU660
 2620 0008 A1F11402 		sub	r2, r1, #20
 2621              	.LVL336:
 2622              		.loc 1 807 3 is_stmt 0 view .LVU661
 2623 000c 052A     		cmp	r2, #5
 2624 000e 00F2B080 		bhi	.L220
 2625 0012 DFE802F0 		tbb	[pc, r2]
 2626              	.LVL337:
 2627              	.L204:
 2628 0016 90       		.byte	(.L209-.L204)/2
 2629 0017 03       		.byte	(.L208-.L204)/2
 2630 0018 29       		.byte	(.L207-.L204)/2
 2631 0019 52       		.byte	(.L206-.L204)/2
 2632 001a 9E       		.byte	(.L205-.L204)/2
 2633 001b A3       		.byte	(.L203-.L204)/2
 2634              		.p2align 1
 2635              	.L208:
 808:Core/Src/u8g2/Src/u8x8_cad.c ****   {
 809:Core/Src/u8g2/Src/u8x8_cad.c ****     case U8X8_MSG_CAD_SEND_CMD:
 810:Core/Src/u8g2/Src/u8x8_cad.c ****       if ( in_transfer != 0 )
 2636              		.loc 1 810 7 is_stmt 1 view .LVU662
 2637              		.loc 1 810 24 is_stmt 0 view .LVU663
 2638 001c 564B     		ldr	r3, .L227
 2639 001e 1B78     		ldrb	r3, [r3]	@ zero_extendqisi2
 2640              		.loc 1 810 10 view .LVU664
 2641 0020 CBB1     		cbz	r3, .L210
 811:Core/Src/u8g2/Src/u8x8_cad.c ****       {
 812:Core/Src/u8g2/Src/u8x8_cad.c **** 	if ( is_data != 0 )
 2642              		.loc 1 812 2 is_stmt 1 view .LVU665
 2643              		.loc 1 812 15 is_stmt 0 view .LVU666
 2644 0022 564B     		ldr	r3, .L227+4
 2645 0024 1B78     		ldrb	r3, [r3]	@ zero_extendqisi2
 2646              		.loc 1 812 5 view .LVU667
 2647 0026 53B9     		cbnz	r3, .L222
 2648              	.LVL338:
 2649              	.L211:
 813:Core/Src/u8g2/Src/u8x8_cad.c **** 	{
 814:Core/Src/u8g2/Src/u8x8_cad.c **** 	  /* transfer mode is active, but data transfer */
 815:Core/Src/u8g2/Src/u8x8_cad.c **** 	  u8x8_byte_EndTransfer(u8x8); 
 816:Core/Src/u8g2/Src/u8x8_cad.c **** 	  /* clear the lowest two bits of the adr */
 817:Core/Src/u8g2/Src/u8x8_cad.c **** 	  u8x8_SetI2CAddress( u8x8, u8x8_GetI2CAddress(u8x8)&0x0fc );
ARM GAS  C:\Users\MOROSH~1\AppData\Local\Temp\cceDu29x.s 			page 71


 818:Core/Src/u8g2/Src/u8x8_cad.c **** 	  u8x8_byte_StartTransfer(u8x8); 
 819:Core/Src/u8g2/Src/u8x8_cad.c **** 	}
 820:Core/Src/u8g2/Src/u8x8_cad.c ****       }
 821:Core/Src/u8g2/Src/u8x8_cad.c ****       else
 822:Core/Src/u8g2/Src/u8x8_cad.c ****       {
 823:Core/Src/u8g2/Src/u8x8_cad.c **** 	/* clear the lowest two bits of the adr */
 824:Core/Src/u8g2/Src/u8x8_cad.c **** 	u8x8_SetI2CAddress( u8x8, u8x8_GetI2CAddress(u8x8)&0x0fc );
 825:Core/Src/u8g2/Src/u8x8_cad.c **** 	u8x8_byte_StartTransfer(u8x8);
 826:Core/Src/u8g2/Src/u8x8_cad.c ****       }
 827:Core/Src/u8g2/Src/u8x8_cad.c ****       u8x8_byte_SendByte(u8x8, arg_int);
 2650              		.loc 1 827 7 is_stmt 1 view .LVU668
 2651 0028 2946     		mov	r1, r5
 2652 002a 2046     		mov	r0, r4
 2653 002c FFF7FEFF 		bl	u8x8_byte_SendByte
 2654              	.LVL339:
 828:Core/Src/u8g2/Src/u8x8_cad.c ****       in_transfer = 1;
 2655              		.loc 1 828 7 view .LVU669
 2656              		.loc 1 828 19 is_stmt 0 view .LVU670
 2657 0030 0120     		movs	r0, #1
 2658 0032 514B     		ldr	r3, .L227
 2659 0034 1870     		strb	r0, [r3]
 829:Core/Src/u8g2/Src/u8x8_cad.c ****       is_data = 0;
 2660              		.loc 1 829 7 is_stmt 1 view .LVU671
 2661              		.loc 1 829 15 is_stmt 0 view .LVU672
 2662 0036 514B     		ldr	r3, .L227+4
 2663 0038 0022     		movs	r2, #0
 2664 003a 1A70     		strb	r2, [r3]
 830:Core/Src/u8g2/Src/u8x8_cad.c ****       break;
 2665              		.loc 1 830 7 is_stmt 1 view .LVU673
 2666              	.LVL340:
 2667              	.L202:
 831:Core/Src/u8g2/Src/u8x8_cad.c ****     case U8X8_MSG_CAD_SEND_ARG:
 832:Core/Src/u8g2/Src/u8x8_cad.c ****       if ( in_transfer != 0 )
 833:Core/Src/u8g2/Src/u8x8_cad.c ****       {
 834:Core/Src/u8g2/Src/u8x8_cad.c **** 	if ( is_data == 0 )
 835:Core/Src/u8g2/Src/u8x8_cad.c **** 	{
 836:Core/Src/u8g2/Src/u8x8_cad.c **** 	  /* transfer mode is active, but data transfer */
 837:Core/Src/u8g2/Src/u8x8_cad.c **** 	  u8x8_byte_EndTransfer(u8x8); 
 838:Core/Src/u8g2/Src/u8x8_cad.c **** 	  /* clear the lowest two bits of the adr */
 839:Core/Src/u8g2/Src/u8x8_cad.c **** 	  u8x8_SetI2CAddress( u8x8, (u8x8_GetI2CAddress(u8x8)&0x0fc)|2 );
 840:Core/Src/u8g2/Src/u8x8_cad.c **** 	  u8x8_byte_StartTransfer(u8x8); 
 841:Core/Src/u8g2/Src/u8x8_cad.c **** 	}
 842:Core/Src/u8g2/Src/u8x8_cad.c ****       }
 843:Core/Src/u8g2/Src/u8x8_cad.c ****       else
 844:Core/Src/u8g2/Src/u8x8_cad.c ****       {
 845:Core/Src/u8g2/Src/u8x8_cad.c **** 	/* clear the lowest two bits of the adr */
 846:Core/Src/u8g2/Src/u8x8_cad.c **** 	u8x8_SetI2CAddress( u8x8, (u8x8_GetI2CAddress(u8x8)&0x0fc)|2 );
 847:Core/Src/u8g2/Src/u8x8_cad.c **** 	u8x8_byte_StartTransfer(u8x8);
 848:Core/Src/u8g2/Src/u8x8_cad.c ****       }
 849:Core/Src/u8g2/Src/u8x8_cad.c ****       u8x8_byte_SendByte(u8x8, arg_int);
 850:Core/Src/u8g2/Src/u8x8_cad.c ****       in_transfer = 1;
 851:Core/Src/u8g2/Src/u8x8_cad.c ****       is_data = 1;
 852:Core/Src/u8g2/Src/u8x8_cad.c ****       break;
 853:Core/Src/u8g2/Src/u8x8_cad.c ****     case U8X8_MSG_CAD_SEND_DATA:
 854:Core/Src/u8g2/Src/u8x8_cad.c ****       if ( in_transfer != 0 )
 855:Core/Src/u8g2/Src/u8x8_cad.c ****       {
 856:Core/Src/u8g2/Src/u8x8_cad.c **** 	if ( is_data == 0 )
ARM GAS  C:\Users\MOROSH~1\AppData\Local\Temp\cceDu29x.s 			page 72


 857:Core/Src/u8g2/Src/u8x8_cad.c **** 	{
 858:Core/Src/u8g2/Src/u8x8_cad.c **** 	  /* transfer mode is active, but data transfer */
 859:Core/Src/u8g2/Src/u8x8_cad.c **** 	  u8x8_byte_EndTransfer(u8x8); 
 860:Core/Src/u8g2/Src/u8x8_cad.c **** 	  /* clear the lowest two bits of the adr */
 861:Core/Src/u8g2/Src/u8x8_cad.c **** 	  u8x8_SetI2CAddress( u8x8, (u8x8_GetI2CAddress(u8x8)&0x0fc)|2 );
 862:Core/Src/u8g2/Src/u8x8_cad.c **** 	  u8x8_byte_StartTransfer(u8x8); 
 863:Core/Src/u8g2/Src/u8x8_cad.c **** 	}
 864:Core/Src/u8g2/Src/u8x8_cad.c ****       }
 865:Core/Src/u8g2/Src/u8x8_cad.c ****       else
 866:Core/Src/u8g2/Src/u8x8_cad.c ****       {
 867:Core/Src/u8g2/Src/u8x8_cad.c **** 	/* clear the lowest two bits of the adr */
 868:Core/Src/u8g2/Src/u8x8_cad.c **** 	u8x8_SetI2CAddress( u8x8, (u8x8_GetI2CAddress(u8x8)&0x0fc)|2 );
 869:Core/Src/u8g2/Src/u8x8_cad.c **** 	u8x8_byte_StartTransfer(u8x8);
 870:Core/Src/u8g2/Src/u8x8_cad.c ****       }
 871:Core/Src/u8g2/Src/u8x8_cad.c ****       in_transfer = 1;
 872:Core/Src/u8g2/Src/u8x8_cad.c ****       is_data = 1;
 873:Core/Src/u8g2/Src/u8x8_cad.c ****       
 874:Core/Src/u8g2/Src/u8x8_cad.c ****       p = arg_ptr;
 875:Core/Src/u8g2/Src/u8x8_cad.c ****       while( arg_int > 24 )
 876:Core/Src/u8g2/Src/u8x8_cad.c ****       {
 877:Core/Src/u8g2/Src/u8x8_cad.c **** 	u8x8->byte_cb(u8x8, U8X8_MSG_CAD_SEND_DATA, 24, p);
 878:Core/Src/u8g2/Src/u8x8_cad.c **** 	arg_int-=24;
 879:Core/Src/u8g2/Src/u8x8_cad.c **** 	p+=24;
 880:Core/Src/u8g2/Src/u8x8_cad.c **** 	u8x8_byte_EndTransfer(u8x8); 
 881:Core/Src/u8g2/Src/u8x8_cad.c **** 	u8x8_byte_StartTransfer(u8x8);
 882:Core/Src/u8g2/Src/u8x8_cad.c ****       }
 883:Core/Src/u8g2/Src/u8x8_cad.c ****       u8x8->byte_cb(u8x8, U8X8_MSG_CAD_SEND_DATA, arg_int, p);
 884:Core/Src/u8g2/Src/u8x8_cad.c ****       
 885:Core/Src/u8g2/Src/u8x8_cad.c ****       break;
 886:Core/Src/u8g2/Src/u8x8_cad.c ****     case U8X8_MSG_CAD_INIT:
 887:Core/Src/u8g2/Src/u8x8_cad.c ****       /* apply default i2c adr if required so that the start transfer msg can use this */
 888:Core/Src/u8g2/Src/u8x8_cad.c ****       if ( u8x8->i2c_address == 255 )
 889:Core/Src/u8g2/Src/u8x8_cad.c **** 	u8x8->i2c_address = 0x078;  /* see also https://github.com/olikraus/u8g2/issues/371 for a discussi
 890:Core/Src/u8g2/Src/u8x8_cad.c ****       return u8x8->byte_cb(u8x8, msg, arg_int, arg_ptr);
 891:Core/Src/u8g2/Src/u8x8_cad.c ****     case U8X8_MSG_CAD_START_TRANSFER:
 892:Core/Src/u8g2/Src/u8x8_cad.c ****       in_transfer = 0;    
 893:Core/Src/u8g2/Src/u8x8_cad.c ****       /* actual start is delayed, because we do not whether this is data or cmd transfer */
 894:Core/Src/u8g2/Src/u8x8_cad.c ****       break;
 895:Core/Src/u8g2/Src/u8x8_cad.c ****     case U8X8_MSG_CAD_END_TRANSFER:
 896:Core/Src/u8g2/Src/u8x8_cad.c ****       if ( in_transfer != 0 )
 897:Core/Src/u8g2/Src/u8x8_cad.c **** 	u8x8_byte_EndTransfer(u8x8);
 898:Core/Src/u8g2/Src/u8x8_cad.c ****       in_transfer = 0;
 899:Core/Src/u8g2/Src/u8x8_cad.c ****       break;
 900:Core/Src/u8g2/Src/u8x8_cad.c ****     default:
 901:Core/Src/u8g2/Src/u8x8_cad.c ****       return 0;
 902:Core/Src/u8g2/Src/u8x8_cad.c ****   }
 903:Core/Src/u8g2/Src/u8x8_cad.c ****   return 1;
 904:Core/Src/u8g2/Src/u8x8_cad.c **** }
 2668              		.loc 1 904 1 is_stmt 0 view .LVU674
 2669 003c F8BD     		pop	{r3, r4, r5, r6, r7, pc}
 2670              	.LVL341:
 2671              	.L222:
 815:Core/Src/u8g2/Src/u8x8_cad.c **** 	  /* clear the lowest two bits of the adr */
 2672              		.loc 1 815 4 is_stmt 1 view .LVU675
 2673 003e FFF7FEFF 		bl	u8x8_byte_EndTransfer
 2674              	.LVL342:
 817:Core/Src/u8g2/Src/u8x8_cad.c **** 	  u8x8_byte_StartTransfer(u8x8); 
ARM GAS  C:\Users\MOROSH~1\AppData\Local\Temp\cceDu29x.s 			page 73


 2675              		.loc 1 817 4 view .LVU676
 2676 0042 94F82430 		ldrb	r3, [r4, #36]	@ zero_extendqisi2
 2677 0046 03F0FC03 		and	r3, r3, #252
 2678 004a 84F82430 		strb	r3, [r4, #36]
 818:Core/Src/u8g2/Src/u8x8_cad.c **** 	}
 2679              		.loc 1 818 4 view .LVU677
 2680 004e 2046     		mov	r0, r4
 2681 0050 FFF7FEFF 		bl	u8x8_byte_StartTransfer
 2682              	.LVL343:
 2683 0054 E8E7     		b	.L211
 2684              	.LVL344:
 2685              	.L210:
 824:Core/Src/u8g2/Src/u8x8_cad.c **** 	u8x8_byte_StartTransfer(u8x8);
 2686              		.loc 1 824 2 view .LVU678
 2687 0056 90F82430 		ldrb	r3, [r0, #36]	@ zero_extendqisi2
 2688 005a 03F0FC03 		and	r3, r3, #252
 2689 005e 80F82430 		strb	r3, [r0, #36]
 825:Core/Src/u8g2/Src/u8x8_cad.c ****       }
 2690              		.loc 1 825 2 view .LVU679
 2691 0062 FFF7FEFF 		bl	u8x8_byte_StartTransfer
 2692              	.LVL345:
 825:Core/Src/u8g2/Src/u8x8_cad.c ****       }
 2693              		.loc 1 825 2 is_stmt 0 view .LVU680
 2694 0066 DFE7     		b	.L211
 2695              	.LVL346:
 2696              	.L207:
 832:Core/Src/u8g2/Src/u8x8_cad.c ****       {
 2697              		.loc 1 832 7 is_stmt 1 view .LVU681
 832:Core/Src/u8g2/Src/u8x8_cad.c ****       {
 2698              		.loc 1 832 24 is_stmt 0 view .LVU682
 2699 0068 434B     		ldr	r3, .L227
 2700 006a 1B78     		ldrb	r3, [r3]	@ zero_extendqisi2
 832:Core/Src/u8g2/Src/u8x8_cad.c ****       {
 2701              		.loc 1 832 10 view .LVU683
 2702 006c D3B1     		cbz	r3, .L212
 834:Core/Src/u8g2/Src/u8x8_cad.c **** 	{
 2703              		.loc 1 834 2 is_stmt 1 view .LVU684
 834:Core/Src/u8g2/Src/u8x8_cad.c **** 	{
 2704              		.loc 1 834 15 is_stmt 0 view .LVU685
 2705 006e 434B     		ldr	r3, .L227+4
 2706 0070 1B78     		ldrb	r3, [r3]	@ zero_extendqisi2
 834:Core/Src/u8g2/Src/u8x8_cad.c **** 	{
 2707              		.loc 1 834 5 view .LVU686
 2708 0072 4BB1     		cbz	r3, .L223
 2709              	.LVL347:
 2710              	.L213:
 849:Core/Src/u8g2/Src/u8x8_cad.c ****       in_transfer = 1;
 2711              		.loc 1 849 7 is_stmt 1 view .LVU687
 2712 0074 2946     		mov	r1, r5
 2713 0076 2046     		mov	r0, r4
 2714 0078 FFF7FEFF 		bl	u8x8_byte_SendByte
 2715              	.LVL348:
 850:Core/Src/u8g2/Src/u8x8_cad.c ****       is_data = 1;
 2716              		.loc 1 850 7 view .LVU688
 850:Core/Src/u8g2/Src/u8x8_cad.c ****       is_data = 1;
 2717              		.loc 1 850 19 is_stmt 0 view .LVU689
 2718 007c 0120     		movs	r0, #1
ARM GAS  C:\Users\MOROSH~1\AppData\Local\Temp\cceDu29x.s 			page 74


 2719 007e 3E4B     		ldr	r3, .L227
 2720 0080 1870     		strb	r0, [r3]
 851:Core/Src/u8g2/Src/u8x8_cad.c ****       break;
 2721              		.loc 1 851 7 is_stmt 1 view .LVU690
 851:Core/Src/u8g2/Src/u8x8_cad.c ****       break;
 2722              		.loc 1 851 15 is_stmt 0 view .LVU691
 2723 0082 3E4B     		ldr	r3, .L227+4
 2724 0084 1870     		strb	r0, [r3]
 852:Core/Src/u8g2/Src/u8x8_cad.c ****     case U8X8_MSG_CAD_SEND_DATA:
 2725              		.loc 1 852 7 is_stmt 1 view .LVU692
 2726 0086 D9E7     		b	.L202
 2727              	.LVL349:
 2728              	.L223:
 837:Core/Src/u8g2/Src/u8x8_cad.c **** 	  /* clear the lowest two bits of the adr */
 2729              		.loc 1 837 4 view .LVU693
 2730 0088 FFF7FEFF 		bl	u8x8_byte_EndTransfer
 2731              	.LVL350:
 839:Core/Src/u8g2/Src/u8x8_cad.c **** 	  u8x8_byte_StartTransfer(u8x8); 
 2732              		.loc 1 839 4 view .LVU694
 2733 008c 94F92430 		ldrsb	r3, [r4, #36]
 2734 0090 23F00303 		bic	r3, r3, #3
 2735 0094 43F00203 		orr	r3, r3, #2
 2736 0098 84F82430 		strb	r3, [r4, #36]
 840:Core/Src/u8g2/Src/u8x8_cad.c **** 	}
 2737              		.loc 1 840 4 view .LVU695
 2738 009c 2046     		mov	r0, r4
 2739 009e FFF7FEFF 		bl	u8x8_byte_StartTransfer
 2740              	.LVL351:
 2741 00a2 E7E7     		b	.L213
 2742              	.LVL352:
 2743              	.L212:
 846:Core/Src/u8g2/Src/u8x8_cad.c **** 	u8x8_byte_StartTransfer(u8x8);
 2744              		.loc 1 846 2 view .LVU696
 2745 00a4 90F92430 		ldrsb	r3, [r0, #36]
 2746 00a8 23F00303 		bic	r3, r3, #3
 2747 00ac 43F00203 		orr	r3, r3, #2
 2748 00b0 80F82430 		strb	r3, [r0, #36]
 847:Core/Src/u8g2/Src/u8x8_cad.c ****       }
 2749              		.loc 1 847 2 view .LVU697
 2750 00b4 FFF7FEFF 		bl	u8x8_byte_StartTransfer
 2751              	.LVL353:
 847:Core/Src/u8g2/Src/u8x8_cad.c ****       }
 2752              		.loc 1 847 2 is_stmt 0 view .LVU698
 2753 00b8 DCE7     		b	.L213
 2754              	.LVL354:
 2755              	.L206:
 854:Core/Src/u8g2/Src/u8x8_cad.c ****       {
 2756              		.loc 1 854 7 is_stmt 1 view .LVU699
 854:Core/Src/u8g2/Src/u8x8_cad.c ****       {
 2757              		.loc 1 854 24 is_stmt 0 view .LVU700
 2758 00ba 2F4B     		ldr	r3, .L227
 2759 00bc 1B78     		ldrb	r3, [r3]	@ zero_extendqisi2
 854:Core/Src/u8g2/Src/u8x8_cad.c ****       {
 2760              		.loc 1 854 10 view .LVU701
 2761 00be B3B1     		cbz	r3, .L214
 856:Core/Src/u8g2/Src/u8x8_cad.c **** 	{
 2762              		.loc 1 856 2 is_stmt 1 view .LVU702
ARM GAS  C:\Users\MOROSH~1\AppData\Local\Temp\cceDu29x.s 			page 75


 856:Core/Src/u8g2/Src/u8x8_cad.c **** 	{
 2763              		.loc 1 856 15 is_stmt 0 view .LVU703
 2764 00c0 2E4B     		ldr	r3, .L227+4
 2765 00c2 1B78     		ldrb	r3, [r3]	@ zero_extendqisi2
 856:Core/Src/u8g2/Src/u8x8_cad.c **** 	{
 2766              		.loc 1 856 5 view .LVU704
 2767 00c4 2BB1     		cbz	r3, .L224
 2768              	.LVL355:
 2769              	.L215:
 871:Core/Src/u8g2/Src/u8x8_cad.c ****       is_data = 1;
 2770              		.loc 1 871 7 is_stmt 1 view .LVU705
 871:Core/Src/u8g2/Src/u8x8_cad.c ****       is_data = 1;
 2771              		.loc 1 871 19 is_stmt 0 view .LVU706
 2772 00c6 0123     		movs	r3, #1
 2773 00c8 2B4A     		ldr	r2, .L227
 2774 00ca 1370     		strb	r3, [r2]
 872:Core/Src/u8g2/Src/u8x8_cad.c ****       
 2775              		.loc 1 872 7 is_stmt 1 view .LVU707
 872:Core/Src/u8g2/Src/u8x8_cad.c ****       
 2776              		.loc 1 872 15 is_stmt 0 view .LVU708
 2777 00cc 2B4A     		ldr	r2, .L227+4
 2778 00ce 1370     		strb	r3, [r2]
 874:Core/Src/u8g2/Src/u8x8_cad.c ****       while( arg_int > 24 )
 2779              		.loc 1 874 7 is_stmt 1 view .LVU709
 2780              	.LVL356:
 875:Core/Src/u8g2/Src/u8x8_cad.c ****       {
 2781              		.loc 1 875 7 view .LVU710
 875:Core/Src/u8g2/Src/u8x8_cad.c ****       {
 2782              		.loc 1 875 12 is_stmt 0 view .LVU711
 2783 00d0 27E0     		b	.L216
 2784              	.LVL357:
 2785              	.L224:
 859:Core/Src/u8g2/Src/u8x8_cad.c **** 	  /* clear the lowest two bits of the adr */
 2786              		.loc 1 859 4 is_stmt 1 view .LVU712
 2787 00d2 FFF7FEFF 		bl	u8x8_byte_EndTransfer
 2788              	.LVL358:
 861:Core/Src/u8g2/Src/u8x8_cad.c **** 	  u8x8_byte_StartTransfer(u8x8); 
 2789              		.loc 1 861 4 view .LVU713
 2790 00d6 94F92430 		ldrsb	r3, [r4, #36]
 2791 00da 23F00303 		bic	r3, r3, #3
 2792 00de 43F00203 		orr	r3, r3, #2
 2793 00e2 84F82430 		strb	r3, [r4, #36]
 862:Core/Src/u8g2/Src/u8x8_cad.c **** 	}
 2794              		.loc 1 862 4 view .LVU714
 2795 00e6 2046     		mov	r0, r4
 2796 00e8 FFF7FEFF 		bl	u8x8_byte_StartTransfer
 2797              	.LVL359:
 2798 00ec EBE7     		b	.L215
 2799              	.LVL360:
 2800              	.L214:
 868:Core/Src/u8g2/Src/u8x8_cad.c **** 	u8x8_byte_StartTransfer(u8x8);
 2801              		.loc 1 868 2 view .LVU715
 2802 00ee 90F92430 		ldrsb	r3, [r0, #36]
 2803 00f2 23F00303 		bic	r3, r3, #3
 2804 00f6 43F00203 		orr	r3, r3, #2
 2805 00fa 80F82430 		strb	r3, [r0, #36]
 869:Core/Src/u8g2/Src/u8x8_cad.c ****       }
ARM GAS  C:\Users\MOROSH~1\AppData\Local\Temp\cceDu29x.s 			page 76


 2806              		.loc 1 869 2 view .LVU716
 2807 00fe FFF7FEFF 		bl	u8x8_byte_StartTransfer
 2808              	.LVL361:
 869:Core/Src/u8g2/Src/u8x8_cad.c ****       }
 2809              		.loc 1 869 2 is_stmt 0 view .LVU717
 2810 0102 E0E7     		b	.L215
 2811              	.LVL362:
 2812              	.L217:
 877:Core/Src/u8g2/Src/u8x8_cad.c **** 	arg_int-=24;
 2813              		.loc 1 877 2 is_stmt 1 view .LVU718
 2814 0104 3346     		mov	r3, r6
 2815 0106 1822     		movs	r2, #24
 2816 0108 1721     		movs	r1, #23
 2817 010a 2046     		mov	r0, r4
 2818 010c 2769     		ldr	r7, [r4, #16]
 2819 010e B847     		blx	r7
 2820              	.LVL363:
 878:Core/Src/u8g2/Src/u8x8_cad.c **** 	p+=24;
 2821              		.loc 1 878 2 view .LVU719
 878:Core/Src/u8g2/Src/u8x8_cad.c **** 	p+=24;
 2822              		.loc 1 878 9 is_stmt 0 view .LVU720
 2823 0110 183D     		subs	r5, r5, #24
 2824              	.LVL364:
 878:Core/Src/u8g2/Src/u8x8_cad.c **** 	p+=24;
 2825              		.loc 1 878 9 view .LVU721
 2826 0112 EDB2     		uxtb	r5, r5
 2827              	.LVL365:
 879:Core/Src/u8g2/Src/u8x8_cad.c **** 	u8x8_byte_EndTransfer(u8x8); 
 2828              		.loc 1 879 2 is_stmt 1 view .LVU722
 879:Core/Src/u8g2/Src/u8x8_cad.c **** 	u8x8_byte_EndTransfer(u8x8); 
 2829              		.loc 1 879 3 is_stmt 0 view .LVU723
 2830 0114 1836     		adds	r6, r6, #24
 2831              	.LVL366:
 880:Core/Src/u8g2/Src/u8x8_cad.c **** 	u8x8_byte_StartTransfer(u8x8);
 2832              		.loc 1 880 2 is_stmt 1 view .LVU724
 2833 0116 2046     		mov	r0, r4
 2834 0118 FFF7FEFF 		bl	u8x8_byte_EndTransfer
 2835              	.LVL367:
 881:Core/Src/u8g2/Src/u8x8_cad.c ****       }
 2836              		.loc 1 881 2 view .LVU725
 2837 011c 2046     		mov	r0, r4
 2838 011e FFF7FEFF 		bl	u8x8_byte_StartTransfer
 2839              	.LVL368:
 2840              	.L216:
 875:Core/Src/u8g2/Src/u8x8_cad.c ****       {
 2841              		.loc 1 875 12 view .LVU726
 2842 0122 182D     		cmp	r5, #24
 2843 0124 EED8     		bhi	.L217
 883:Core/Src/u8g2/Src/u8x8_cad.c ****       
 2844              		.loc 1 883 7 view .LVU727
 883:Core/Src/u8g2/Src/u8x8_cad.c ****       
 2845              		.loc 1 883 11 is_stmt 0 view .LVU728
 2846 0126 2769     		ldr	r7, [r4, #16]
 883:Core/Src/u8g2/Src/u8x8_cad.c ****       
 2847              		.loc 1 883 7 view .LVU729
 2848 0128 3346     		mov	r3, r6
 2849 012a 2A46     		mov	r2, r5
ARM GAS  C:\Users\MOROSH~1\AppData\Local\Temp\cceDu29x.s 			page 77


 2850 012c 1721     		movs	r1, #23
 2851 012e 2046     		mov	r0, r4
 2852 0130 B847     		blx	r7
 2853              	.LVL369:
 885:Core/Src/u8g2/Src/u8x8_cad.c ****     case U8X8_MSG_CAD_INIT:
 2854              		.loc 1 885 7 is_stmt 1 view .LVU730
 903:Core/Src/u8g2/Src/u8x8_cad.c **** }
 2855              		.loc 1 903 10 is_stmt 0 view .LVU731
 2856 0132 0120     		movs	r0, #1
 885:Core/Src/u8g2/Src/u8x8_cad.c ****     case U8X8_MSG_CAD_INIT:
 2857              		.loc 1 885 7 view .LVU732
 2858 0134 82E7     		b	.L202
 2859              	.LVL370:
 2860              	.L209:
 888:Core/Src/u8g2/Src/u8x8_cad.c **** 	u8x8->i2c_address = 0x078;  /* see also https://github.com/olikraus/u8g2/issues/371 for a discussi
 2861              		.loc 1 888 7 is_stmt 1 view .LVU733
 888:Core/Src/u8g2/Src/u8x8_cad.c **** 	u8x8->i2c_address = 0x078;  /* see also https://github.com/olikraus/u8g2/issues/371 for a discussi
 2862              		.loc 1 888 16 is_stmt 0 view .LVU734
 2863 0136 90F82430 		ldrb	r3, [r0, #36]	@ zero_extendqisi2
 888:Core/Src/u8g2/Src/u8x8_cad.c **** 	u8x8->i2c_address = 0x078;  /* see also https://github.com/olikraus/u8g2/issues/371 for a discussi
 2864              		.loc 1 888 10 view .LVU735
 2865 013a FF2B     		cmp	r3, #255
 2866 013c 05D0     		beq	.L225
 2867              	.L218:
 890:Core/Src/u8g2/Src/u8x8_cad.c ****     case U8X8_MSG_CAD_START_TRANSFER:
 2868              		.loc 1 890 7 is_stmt 1 view .LVU736
 890:Core/Src/u8g2/Src/u8x8_cad.c ****     case U8X8_MSG_CAD_START_TRANSFER:
 2869              		.loc 1 890 18 is_stmt 0 view .LVU737
 2870 013e 2769     		ldr	r7, [r4, #16]
 890:Core/Src/u8g2/Src/u8x8_cad.c ****     case U8X8_MSG_CAD_START_TRANSFER:
 2871              		.loc 1 890 14 view .LVU738
 2872 0140 3346     		mov	r3, r6
 2873 0142 2A46     		mov	r2, r5
 2874 0144 2046     		mov	r0, r4
 2875              	.LVL371:
 890:Core/Src/u8g2/Src/u8x8_cad.c ****     case U8X8_MSG_CAD_START_TRANSFER:
 2876              		.loc 1 890 14 view .LVU739
 2877 0146 B847     		blx	r7
 2878              	.LVL372:
 890:Core/Src/u8g2/Src/u8x8_cad.c ****     case U8X8_MSG_CAD_START_TRANSFER:
 2879              		.loc 1 890 14 view .LVU740
 2880 0148 78E7     		b	.L202
 2881              	.LVL373:
 2882              	.L225:
 889:Core/Src/u8g2/Src/u8x8_cad.c ****       return u8x8->byte_cb(u8x8, msg, arg_int, arg_ptr);
 2883              		.loc 1 889 2 is_stmt 1 view .LVU741
 889:Core/Src/u8g2/Src/u8x8_cad.c ****       return u8x8->byte_cb(u8x8, msg, arg_int, arg_ptr);
 2884              		.loc 1 889 20 is_stmt 0 view .LVU742
 2885 014a 7823     		movs	r3, #120
 2886 014c 80F82430 		strb	r3, [r0, #36]
 2887 0150 F5E7     		b	.L218
 2888              	.L205:
 892:Core/Src/u8g2/Src/u8x8_cad.c ****       /* actual start is delayed, because we do not whether this is data or cmd transfer */
 2889              		.loc 1 892 7 is_stmt 1 view .LVU743
 892:Core/Src/u8g2/Src/u8x8_cad.c ****       /* actual start is delayed, because we do not whether this is data or cmd transfer */
 2890              		.loc 1 892 19 is_stmt 0 view .LVU744
 2891 0152 094B     		ldr	r3, .L227
ARM GAS  C:\Users\MOROSH~1\AppData\Local\Temp\cceDu29x.s 			page 78


 2892 0154 0022     		movs	r2, #0
 2893 0156 1A70     		strb	r2, [r3]
 894:Core/Src/u8g2/Src/u8x8_cad.c ****     case U8X8_MSG_CAD_END_TRANSFER:
 2894              		.loc 1 894 7 is_stmt 1 view .LVU745
 903:Core/Src/u8g2/Src/u8x8_cad.c **** }
 2895              		.loc 1 903 10 is_stmt 0 view .LVU746
 2896 0158 0120     		movs	r0, #1
 2897              	.LVL374:
 894:Core/Src/u8g2/Src/u8x8_cad.c ****     case U8X8_MSG_CAD_END_TRANSFER:
 2898              		.loc 1 894 7 view .LVU747
 2899 015a 6FE7     		b	.L202
 2900              	.LVL375:
 2901              	.L203:
 896:Core/Src/u8g2/Src/u8x8_cad.c **** 	u8x8_byte_EndTransfer(u8x8);
 2902              		.loc 1 896 7 is_stmt 1 view .LVU748
 896:Core/Src/u8g2/Src/u8x8_cad.c **** 	u8x8_byte_EndTransfer(u8x8);
 2903              		.loc 1 896 24 is_stmt 0 view .LVU749
 2904 015c 064B     		ldr	r3, .L227
 2905 015e 1B78     		ldrb	r3, [r3]	@ zero_extendqisi2
 896:Core/Src/u8g2/Src/u8x8_cad.c **** 	u8x8_byte_EndTransfer(u8x8);
 2906              		.loc 1 896 10 view .LVU750
 2907 0160 23B9     		cbnz	r3, .L226
 2908              	.LVL376:
 2909              	.L219:
 898:Core/Src/u8g2/Src/u8x8_cad.c ****       break;
 2910              		.loc 1 898 7 is_stmt 1 view .LVU751
 898:Core/Src/u8g2/Src/u8x8_cad.c ****       break;
 2911              		.loc 1 898 19 is_stmt 0 view .LVU752
 2912 0162 054B     		ldr	r3, .L227
 2913 0164 0022     		movs	r2, #0
 2914 0166 1A70     		strb	r2, [r3]
 899:Core/Src/u8g2/Src/u8x8_cad.c ****     default:
 2915              		.loc 1 899 7 is_stmt 1 view .LVU753
 903:Core/Src/u8g2/Src/u8x8_cad.c **** }
 2916              		.loc 1 903 10 is_stmt 0 view .LVU754
 2917 0168 0120     		movs	r0, #1
 899:Core/Src/u8g2/Src/u8x8_cad.c ****     default:
 2918              		.loc 1 899 7 view .LVU755
 2919 016a 67E7     		b	.L202
 2920              	.LVL377:
 2921              	.L226:
 897:Core/Src/u8g2/Src/u8x8_cad.c ****       in_transfer = 0;
 2922              		.loc 1 897 2 is_stmt 1 view .LVU756
 2923 016c FFF7FEFF 		bl	u8x8_byte_EndTransfer
 2924              	.LVL378:
 897:Core/Src/u8g2/Src/u8x8_cad.c ****       in_transfer = 0;
 2925              		.loc 1 897 2 is_stmt 0 view .LVU757
 2926 0170 F7E7     		b	.L219
 2927              	.LVL379:
 2928              	.L220:
 807:Core/Src/u8g2/Src/u8x8_cad.c ****   {
 2929              		.loc 1 807 3 view .LVU758
 2930 0172 0020     		movs	r0, #0
 2931              	.LVL380:
 807:Core/Src/u8g2/Src/u8x8_cad.c ****   {
 2932              		.loc 1 807 3 view .LVU759
 2933 0174 62E7     		b	.L202
ARM GAS  C:\Users\MOROSH~1\AppData\Local\Temp\cceDu29x.s 			page 79


 2934              	.L228:
 2935 0176 00BF     		.align	2
 2936              	.L227:
 2937 0178 00000000 		.word	.LANCHOR4
 2938 017c 00000000 		.word	.LANCHOR5
 2939              		.cfi_endproc
 2940              	.LFE22:
 2942              		.section	.bss.buf.6,"aw",%nobits
 2943              		.align	2
 2944              		.set	.LANCHOR0,. + 0
 2947              	buf.6:
 2948 0000 00000000 		.space	16
 2948      00000000 
 2948      00000000 
 2948      00000000 
 2949              		.section	.bss.in_transfer.1,"aw",%nobits
 2950              		.set	.LANCHOR4,. + 0
 2953              	in_transfer.1:
 2954 0000 00       		.space	1
 2955              		.section	.bss.in_transfer.3,"aw",%nobits
 2956              		.set	.LANCHOR3,. + 0
 2959              	in_transfer.3:
 2960 0000 00       		.space	1
 2961              		.section	.bss.in_transfer.4,"aw",%nobits
 2962              		.set	.LANCHOR2,. + 0
 2965              	in_transfer.4:
 2966 0000 00       		.space	1
 2967              		.section	.bss.in_transfer.5,"aw",%nobits
 2968              		.set	.LANCHOR1,. + 0
 2971              	in_transfer.5:
 2972 0000 00       		.space	1
 2973              		.section	.bss.is_data.0,"aw",%nobits
 2974              		.set	.LANCHOR5,. + 0
 2977              	is_data.0:
 2978 0000 00       		.space	1
 2979              		.text
 2980              	.Letext0:
 2981              		.file 2 "c:\\program files (x86)\\gnu arm embedded toolchain\\10 2021.10\\arm-none-eabi\\include\\
 2982              		.file 3 "c:\\program files (x86)\\gnu arm embedded toolchain\\10 2021.10\\arm-none-eabi\\include\\
 2983              		.file 4 "c:\\program files (x86)\\gnu arm embedded toolchain\\10 2021.10\\lib\\gcc\\arm-none-eabi\
 2984              		.file 5 "Core/Src/u8g2/Inc/u8x8.h"
 2985              		.file 6 "<built-in>"
ARM GAS  C:\Users\MOROSH~1\AppData\Local\Temp\cceDu29x.s 			page 80

