ARM GAS  C:\Users\MOROSH~1\AppData\Local\Temp\ccGXscXP.s 			page 1


   1              		.cpu cortex-m4
   2              		.arch armv7e-m
   3              		.fpu fpv4-sp-d16
   4              		.eabi_attribute 27, 1
   5              		.eabi_attribute 28, 1
   6              		.eabi_attribute 20, 1
   7              		.eabi_attribute 21, 1
   8              		.eabi_attribute 23, 3
   9              		.eabi_attribute 24, 1
  10              		.eabi_attribute 25, 1
  11              		.eabi_attribute 26, 1
  12              		.eabi_attribute 30, 1
  13              		.eabi_attribute 34, 1
  14              		.eabi_attribute 18, 4
  15              		.file	"u8x8_capture.c"
  16              		.text
  17              	.Ltext0:
  18              		.cfi_sections	.debug_frame
  19              		.section	.text.u8x8_capture_get_pixel_1,"ax",%progbits
  20              		.align	1
  21              		.global	u8x8_capture_get_pixel_1
  22              		.syntax unified
  23              		.thumb
  24              		.thumb_func
  26              	u8x8_capture_get_pixel_1:
  27              	.LVL0:
  28              	.LFB0:
  29              		.file 1 "Core/Src/u8g2/Src/u8x8_capture.c"
   1:Core/Src/u8g2/Src/u8x8_capture.c **** /*
   2:Core/Src/u8g2/Src/u8x8_capture.c **** 
   3:Core/Src/u8g2/Src/u8x8_capture.c ****   u8x8_capture.c
   4:Core/Src/u8g2/Src/u8x8_capture.c ****   
   5:Core/Src/u8g2/Src/u8x8_capture.c ****   Screen capture funcion
   6:Core/Src/u8g2/Src/u8x8_capture.c ****   
   7:Core/Src/u8g2/Src/u8x8_capture.c ****   Universal 8bit Graphics Library (https://github.com/olikraus/u8g2/)
   8:Core/Src/u8g2/Src/u8x8_capture.c **** 
   9:Core/Src/u8g2/Src/u8x8_capture.c ****   Copyright (c) 2016, olikraus@gmail.com
  10:Core/Src/u8g2/Src/u8x8_capture.c ****   All rights reserved.
  11:Core/Src/u8g2/Src/u8x8_capture.c **** 
  12:Core/Src/u8g2/Src/u8x8_capture.c ****   Redistribution and use in source and binary forms, with or without modification, 
  13:Core/Src/u8g2/Src/u8x8_capture.c ****   are permitted provided that the following conditions are met:
  14:Core/Src/u8g2/Src/u8x8_capture.c **** 
  15:Core/Src/u8g2/Src/u8x8_capture.c ****   * Redistributions of source code must retain the above copyright notice, this list 
  16:Core/Src/u8g2/Src/u8x8_capture.c ****     of conditions and the following disclaimer.
  17:Core/Src/u8g2/Src/u8x8_capture.c ****     
  18:Core/Src/u8g2/Src/u8x8_capture.c ****   * Redistributions in binary form must reproduce the above copyright notice, this 
  19:Core/Src/u8g2/Src/u8x8_capture.c ****     list of conditions and the following disclaimer in the documentation and/or other 
  20:Core/Src/u8g2/Src/u8x8_capture.c ****     materials provided with the distribution.
  21:Core/Src/u8g2/Src/u8x8_capture.c **** 
  22:Core/Src/u8g2/Src/u8x8_capture.c ****   THIS SOFTWARE IS PROVIDED BY THE COPYRIGHT HOLDERS AND 
  23:Core/Src/u8g2/Src/u8x8_capture.c ****   CONTRIBUTORS "AS IS" AND ANY EXPRESS OR IMPLIED WARRANTIES, 
  24:Core/Src/u8g2/Src/u8x8_capture.c ****   INCLUDING, BUT NOT LIMITED TO, THE IMPLIED WARRANTIES OF 
  25:Core/Src/u8g2/Src/u8x8_capture.c ****   MERCHANTABILITY AND FITNESS FOR A PARTICULAR PURPOSE ARE 
  26:Core/Src/u8g2/Src/u8x8_capture.c ****   DISCLAIMED. IN NO EVENT SHALL THE COPYRIGHT HOLDER OR 
  27:Core/Src/u8g2/Src/u8x8_capture.c ****   CONTRIBUTORS BE LIABLE FOR ANY DIRECT, INDIRECT, INCIDENTAL, 
  28:Core/Src/u8g2/Src/u8x8_capture.c ****   SPECIAL, EXEMPLARY, OR CONSEQUENTIAL DAMAGES (INCLUDING, BUT 
  29:Core/Src/u8g2/Src/u8x8_capture.c ****   NOT LIMITED TO, PROCUREMENT OF SUBSTITUTE GOODS OR SERVICES; 
ARM GAS  C:\Users\MOROSH~1\AppData\Local\Temp\ccGXscXP.s 			page 2


  30:Core/Src/u8g2/Src/u8x8_capture.c ****   LOSS OF USE, DATA, OR PROFITS; OR BUSINESS INTERRUPTION) HOWEVER 
  31:Core/Src/u8g2/Src/u8x8_capture.c ****   CAUSED AND ON ANY THEORY OF LIABILITY, WHETHER IN CONTRACT, 
  32:Core/Src/u8g2/Src/u8x8_capture.c ****   STRICT LIABILITY, OR TORT (INCLUDING NEGLIGENCE OR OTHERWISE) 
  33:Core/Src/u8g2/Src/u8x8_capture.c ****   ARISING IN ANY WAY OUT OF THE USE OF THIS SOFTWARE, EVEN IF 
  34:Core/Src/u8g2/Src/u8x8_capture.c ****   ADVISED OF THE POSSIBILITY OF SUCH DAMAGE.  
  35:Core/Src/u8g2/Src/u8x8_capture.c **** 
  36:Core/Src/u8g2/Src/u8x8_capture.c **** 
  37:Core/Src/u8g2/Src/u8x8_capture.c **** */
  38:Core/Src/u8g2/Src/u8x8_capture.c **** 
  39:Core/Src/u8g2/Src/u8x8_capture.c **** #include "u8x8.h"
  40:Core/Src/u8g2/Src/u8x8_capture.c **** 
  41:Core/Src/u8g2/Src/u8x8_capture.c **** /*========================================================*/
  42:Core/Src/u8g2/Src/u8x8_capture.c **** 
  43:Core/Src/u8g2/Src/u8x8_capture.c **** 
  44:Core/Src/u8g2/Src/u8x8_capture.c **** /* vertical top lsb memory architecture */
  45:Core/Src/u8g2/Src/u8x8_capture.c **** uint8_t u8x8_capture_get_pixel_1(uint16_t x, uint16_t y, uint8_t *dest_ptr, uint8_t tile_width)
  46:Core/Src/u8g2/Src/u8x8_capture.c **** {
  30              		.loc 1 46 1 view -0
  31              		.cfi_startproc
  32              		@ args = 0, pretend = 0, frame = 0
  33              		@ frame_needed = 0, uses_anonymous_args = 0
  34              		@ link register save eliminated.
  47:Core/Src/u8g2/Src/u8x8_capture.c ****   //uint8_t *dest_ptr = capture->buffer;
  48:Core/Src/u8g2/Src/u8x8_capture.c ****   //if ( dest_ptr == NULL )
  49:Core/Src/u8g2/Src/u8x8_capture.c ****     //return 0;
  50:Core/Src/u8g2/Src/u8x8_capture.c ****   //dest_ptr += (y/8)*capture->tile_width*8;
  51:Core/Src/u8g2/Src/u8x8_capture.c ****   dest_ptr += (y/8)*tile_width*8;
  35              		.loc 1 51 3 view .LVU1
  36              		.loc 1 51 17 is_stmt 0 view .LVU2
  37 0000 4FEAD10C 		lsr	ip, r1, #3
  38              		.loc 1 51 20 view .LVU3
  39 0004 0CFB03F3 		mul	r3, ip, r3
  40              	.LVL1:
  52:Core/Src/u8g2/Src/u8x8_capture.c ****   y &= 7;
  41              		.loc 1 52 3 is_stmt 1 view .LVU4
  42              		.loc 1 52 5 is_stmt 0 view .LVU5
  43 0008 01F00701 		and	r1, r1, #7
  44              	.LVL2:
  53:Core/Src/u8g2/Src/u8x8_capture.c ****   dest_ptr += x;
  45              		.loc 1 53 3 is_stmt 1 view .LVU6
  46              		.loc 1 53 12 is_stmt 0 view .LVU7
  47 000c 00EBC300 		add	r0, r0, r3, lsl #3
  48              	.LVL3:
  54:Core/Src/u8g2/Src/u8x8_capture.c ****   if ( (*dest_ptr & (1<<y)) == 0 )
  49              		.loc 1 54 3 is_stmt 1 view .LVU8
  50              		.loc 1 54 9 is_stmt 0 view .LVU9
  51 0010 135C     		ldrb	r3, [r2, r0]	@ zero_extendqisi2
  52              		.loc 1 54 29 view .LVU10
  53 0012 43FA01F1 		asr	r1, r3, r1
  54              	.LVL4:
  55              		.loc 1 54 6 view .LVU11
  56 0016 11F0010F 		tst	r1, #1
  57 001a 01D0     		beq	.L3
  55:Core/Src/u8g2/Src/u8x8_capture.c ****     return 0;
  56:Core/Src/u8g2/Src/u8x8_capture.c ****   return 1;
  58              		.loc 1 56 10 view .LVU12
  59 001c 0120     		movs	r0, #1
ARM GAS  C:\Users\MOROSH~1\AppData\Local\Temp\ccGXscXP.s 			page 3


  60              	.LVL5:
  61              		.loc 1 56 10 view .LVU13
  62 001e 7047     		bx	lr
  63              	.LVL6:
  64              	.L3:
  55:Core/Src/u8g2/Src/u8x8_capture.c ****     return 0;
  65              		.loc 1 55 12 view .LVU14
  66 0020 0020     		movs	r0, #0
  67              	.LVL7:
  57:Core/Src/u8g2/Src/u8x8_capture.c **** }
  68              		.loc 1 57 1 view .LVU15
  69 0022 7047     		bx	lr
  70              		.cfi_endproc
  71              	.LFE0:
  73              		.section	.text.u8x8_capture_get_pixel_2,"ax",%progbits
  74              		.align	1
  75              		.global	u8x8_capture_get_pixel_2
  76              		.syntax unified
  77              		.thumb
  78              		.thumb_func
  80              	u8x8_capture_get_pixel_2:
  81              	.LVL8:
  82              	.LFB1:
  58:Core/Src/u8g2/Src/u8x8_capture.c **** 
  59:Core/Src/u8g2/Src/u8x8_capture.c **** /* horizontal right lsb memory architecture */
  60:Core/Src/u8g2/Src/u8x8_capture.c **** /* SH1122, LD7032, ST7920, ST7986, LC7981, T6963, SED1330, RA8835, MAX7219, LS0 */ 
  61:Core/Src/u8g2/Src/u8x8_capture.c **** uint8_t u8x8_capture_get_pixel_2(uint16_t x, uint16_t y, uint8_t *dest_ptr, uint8_t tile_width)
  62:Core/Src/u8g2/Src/u8x8_capture.c **** {
  83              		.loc 1 62 1 is_stmt 1 view -0
  84              		.cfi_startproc
  85              		@ args = 0, pretend = 0, frame = 0
  86              		@ frame_needed = 0, uses_anonymous_args = 0
  87              		@ link register save eliminated.
  63:Core/Src/u8g2/Src/u8x8_capture.c ****   //uint8_t *dest_ptr = capture->buffer;
  64:Core/Src/u8g2/Src/u8x8_capture.c ****   //if ( dest_ptr == NULL )
  65:Core/Src/u8g2/Src/u8x8_capture.c ****   //  return 0;
  66:Core/Src/u8g2/Src/u8x8_capture.c ****   //dest_ptr += y*capture->tile_width;
  67:Core/Src/u8g2/Src/u8x8_capture.c ****   y *= tile_width;
  88              		.loc 1 67 3 view .LVU17
  89              		.loc 1 67 5 is_stmt 0 view .LVU18
  90 0000 13FB01F3 		smulbb	r3, r3, r1
  91              	.LVL9:
  68:Core/Src/u8g2/Src/u8x8_capture.c ****   dest_ptr += y;
  92              		.loc 1 68 3 is_stmt 1 view .LVU19
  69:Core/Src/u8g2/Src/u8x8_capture.c ****   dest_ptr += x>>3;
  93              		.loc 1 69 3 view .LVU20
  94              		.loc 1 69 16 is_stmt 0 view .LVU21
  95 0004 C108     		lsrs	r1, r0, #3
  96              		.loc 1 69 12 view .LVU22
  97 0006 11FA83F3 		uxtah	r3, r1, r3
  98              	.LVL10:
  70:Core/Src/u8g2/Src/u8x8_capture.c ****   if ( (*dest_ptr & (128>>(x&7))) == 0 )
  99              		.loc 1 70 3 is_stmt 1 view .LVU23
 100              		.loc 1 70 9 is_stmt 0 view .LVU24
 101 000a D25C     		ldrb	r2, [r2, r3]	@ zero_extendqisi2
 102              	.LVL11:
 103              		.loc 1 70 29 view .LVU25
ARM GAS  C:\Users\MOROSH~1\AppData\Local\Temp\ccGXscXP.s 			page 4


 104 000c 00F00700 		and	r0, r0, #7
 105              	.LVL12:
 106              		.loc 1 70 25 view .LVU26
 107 0010 8023     		movs	r3, #128
 108              	.LVL13:
 109              		.loc 1 70 25 view .LVU27
 110 0012 43FA00F0 		asr	r0, r3, r0
 111              		.loc 1 70 6 view .LVU28
 112 0016 0242     		tst	r2, r0
 113 0018 01D0     		beq	.L6
  71:Core/Src/u8g2/Src/u8x8_capture.c ****     return 0;
  72:Core/Src/u8g2/Src/u8x8_capture.c ****   return 1;
 114              		.loc 1 72 10 view .LVU29
 115 001a 0120     		movs	r0, #1
 116 001c 7047     		bx	lr
 117              	.L6:
  71:Core/Src/u8g2/Src/u8x8_capture.c ****     return 0;
 118              		.loc 1 71 12 view .LVU30
 119 001e 0020     		movs	r0, #0
  73:Core/Src/u8g2/Src/u8x8_capture.c **** }
 120              		.loc 1 73 1 view .LVU31
 121 0020 7047     		bx	lr
 122              		.cfi_endproc
 123              	.LFE1:
 125              		.section	.rodata.u8x8_capture_write_pbm_pre.str1.4,"aMS",%progbits,1
 126              		.align	2
 127              	.LC0:
 128 0000 50310A00 		.ascii	"P1\012\000"
 129              		.align	2
 130              	.LC1:
 131 0004 0A00     		.ascii	"\012\000"
 132              		.section	.text.u8x8_capture_write_pbm_pre,"ax",%progbits
 133              		.align	1
 134              		.global	u8x8_capture_write_pbm_pre
 135              		.syntax unified
 136              		.thumb
 137              		.thumb_func
 139              	u8x8_capture_write_pbm_pre:
 140              	.LVL14:
 141              	.LFB2:
  74:Core/Src/u8g2/Src/u8x8_capture.c **** 
  75:Core/Src/u8g2/Src/u8x8_capture.c **** void u8x8_capture_write_pbm_pre(uint8_t tile_width, uint8_t tile_height, void (*out)(const char *s)
  76:Core/Src/u8g2/Src/u8x8_capture.c **** {
 142              		.loc 1 76 1 is_stmt 1 view -0
 143              		.cfi_startproc
 144              		@ args = 0, pretend = 0, frame = 0
 145              		@ frame_needed = 0, uses_anonymous_args = 0
 146              		.loc 1 76 1 is_stmt 0 view .LVU33
 147 0000 70B5     		push	{r4, r5, r6, lr}
 148              	.LCFI0:
 149              		.cfi_def_cfa_offset 16
 150              		.cfi_offset 4, -16
 151              		.cfi_offset 5, -12
 152              		.cfi_offset 6, -8
 153              		.cfi_offset 14, -4
 154 0002 0646     		mov	r6, r0
 155 0004 0D46     		mov	r5, r1
ARM GAS  C:\Users\MOROSH~1\AppData\Local\Temp\ccGXscXP.s 			page 5


 156 0006 1446     		mov	r4, r2
  77:Core/Src/u8g2/Src/u8x8_capture.c ****   out("P1\n");
 157              		.loc 1 77 3 is_stmt 1 view .LVU34
 158 0008 0748     		ldr	r0, .L9
 159              	.LVL15:
 160              		.loc 1 77 3 is_stmt 0 view .LVU35
 161 000a 9047     		blx	r2
 162              	.LVL16:
  78:Core/Src/u8g2/Src/u8x8_capture.c ****   out(u8x8_utoa((uint16_t)tile_width*8));
 163              		.loc 1 78 3 is_stmt 1 view .LVU36
 164 000c F000     		lsls	r0, r6, #3
 165 000e FFF7FEFF 		bl	u8x8_utoa
 166              	.LVL17:
 167 0012 A047     		blx	r4
 168              	.LVL18:
  79:Core/Src/u8g2/Src/u8x8_capture.c ****   out("\n");
 169              		.loc 1 79 3 view .LVU37
 170 0014 054E     		ldr	r6, .L9+4
 171 0016 3046     		mov	r0, r6
 172 0018 A047     		blx	r4
 173              	.LVL19:
  80:Core/Src/u8g2/Src/u8x8_capture.c ****   out(u8x8_utoa((uint16_t)tile_height*8));
 174              		.loc 1 80 3 view .LVU38
 175 001a E800     		lsls	r0, r5, #3
 176 001c FFF7FEFF 		bl	u8x8_utoa
 177              	.LVL20:
 178 0020 A047     		blx	r4
 179              	.LVL21:
  81:Core/Src/u8g2/Src/u8x8_capture.c ****   out("\n");
 180              		.loc 1 81 3 view .LVU39
 181 0022 3046     		mov	r0, r6
 182 0024 A047     		blx	r4
 183              	.LVL22:
  82:Core/Src/u8g2/Src/u8x8_capture.c **** }
 184              		.loc 1 82 1 is_stmt 0 view .LVU40
 185 0026 70BD     		pop	{r4, r5, r6, pc}
 186              	.LVL23:
 187              	.L10:
 188              		.loc 1 82 1 view .LVU41
 189              		.align	2
 190              	.L9:
 191 0028 00000000 		.word	.LC0
 192 002c 04000000 		.word	.LC1
 193              		.cfi_endproc
 194              	.LFE2:
 196              		.section	.rodata.u8x8_capture_write_pbm_buffer.str1.4,"aMS",%progbits,1
 197              		.align	2
 198              	.LC2:
 199 0000 3100     		.ascii	"1\000"
 200 0002 0000     		.align	2
 201              	.LC3:
 202 0004 3000     		.ascii	"0\000"
 203              		.section	.text.u8x8_capture_write_pbm_buffer,"ax",%progbits
 204              		.align	1
 205              		.global	u8x8_capture_write_pbm_buffer
 206              		.syntax unified
 207              		.thumb
ARM GAS  C:\Users\MOROSH~1\AppData\Local\Temp\ccGXscXP.s 			page 6


 208              		.thumb_func
 210              	u8x8_capture_write_pbm_buffer:
 211              	.LVL24:
 212              	.LFB3:
  83:Core/Src/u8g2/Src/u8x8_capture.c **** 
  84:Core/Src/u8g2/Src/u8x8_capture.c **** 
  85:Core/Src/u8g2/Src/u8x8_capture.c **** void u8x8_capture_write_pbm_buffer(uint8_t *buffer, uint8_t tile_width, uint8_t tile_height, uint8_
  86:Core/Src/u8g2/Src/u8x8_capture.c **** {
 213              		.loc 1 86 1 is_stmt 1 view -0
 214              		.cfi_startproc
 215              		@ args = 4, pretend = 0, frame = 0
 216              		@ frame_needed = 0, uses_anonymous_args = 0
 217              		.loc 1 86 1 is_stmt 0 view .LVU43
 218 0000 2DE9F84F 		push	{r3, r4, r5, r6, r7, r8, r9, r10, fp, lr}
 219              	.LCFI1:
 220              		.cfi_def_cfa_offset 40
 221              		.cfi_offset 3, -40
 222              		.cfi_offset 4, -36
 223              		.cfi_offset 5, -32
 224              		.cfi_offset 6, -28
 225              		.cfi_offset 7, -24
 226              		.cfi_offset 8, -20
 227              		.cfi_offset 9, -16
 228              		.cfi_offset 10, -12
 229              		.cfi_offset 11, -8
 230              		.cfi_offset 14, -4
 231 0004 8246     		mov	r10, r0
 232 0006 8846     		mov	r8, r1
 233 0008 9946     		mov	r9, r3
 234 000a 0A9F     		ldr	r7, [sp, #40]
  87:Core/Src/u8g2/Src/u8x8_capture.c ****   uint16_t x, y;
 235              		.loc 1 87 3 is_stmt 1 view .LVU44
  88:Core/Src/u8g2/Src/u8x8_capture.c ****   uint16_t w, h;
 236              		.loc 1 88 3 view .LVU45
  89:Core/Src/u8g2/Src/u8x8_capture.c **** 
  90:Core/Src/u8g2/Src/u8x8_capture.c ****   w = tile_width;
 237              		.loc 1 90 3 view .LVU46
 238              	.LVL25:
  91:Core/Src/u8g2/Src/u8x8_capture.c ****   w *= 8;
 239              		.loc 1 91 3 view .LVU47
 240              		.loc 1 91 5 is_stmt 0 view .LVU48
 241 000c CE00     		lsls	r6, r1, #3
 242              	.LVL26:
  92:Core/Src/u8g2/Src/u8x8_capture.c ****   h = tile_height;
 243              		.loc 1 92 3 is_stmt 1 view .LVU49
  93:Core/Src/u8g2/Src/u8x8_capture.c ****   h *= 8;
 244              		.loc 1 93 3 view .LVU50
 245              		.loc 1 93 5 is_stmt 0 view .LVU51
 246 000e 4FEAC20B 		lsl	fp, r2, #3
 247              	.LVL27:
  94:Core/Src/u8g2/Src/u8x8_capture.c ****     
  95:Core/Src/u8g2/Src/u8x8_capture.c ****   for( y = 0; y < h; y++)
 248              		.loc 1 95 3 is_stmt 1 view .LVU52
 249              		.loc 1 95 10 is_stmt 0 view .LVU53
 250 0012 0025     		movs	r5, #0
 251              		.loc 1 95 3 view .LVU54
 252 0014 13E0     		b	.L12
ARM GAS  C:\Users\MOROSH~1\AppData\Local\Temp\ccGXscXP.s 			page 7


 253              	.LVL28:
 254              	.L13:
  96:Core/Src/u8g2/Src/u8x8_capture.c ****   {
  97:Core/Src/u8g2/Src/u8x8_capture.c ****     for( x = 0; x < w; x++)
  98:Core/Src/u8g2/Src/u8x8_capture.c ****     {
  99:Core/Src/u8g2/Src/u8x8_capture.c ****       if ( get_pixel(x, y, buffer, tile_width) )
 100:Core/Src/u8g2/Src/u8x8_capture.c **** 	out("1");
 101:Core/Src/u8g2/Src/u8x8_capture.c ****       else
 102:Core/Src/u8g2/Src/u8x8_capture.c **** 	out("0"); 	  
 255              		.loc 1 102 2 is_stmt 1 view .LVU55
 256 0016 0D48     		ldr	r0, .L21
 257 0018 B847     		blx	r7
 258              	.LVL29:
 259              	.L14:
  97:Core/Src/u8g2/Src/u8x8_capture.c ****     {
 260              		.loc 1 97 24 discriminator 2 view .LVU56
  97:Core/Src/u8g2/Src/u8x8_capture.c ****     {
 261              		.loc 1 97 25 is_stmt 0 discriminator 2 view .LVU57
 262 001a 0134     		adds	r4, r4, #1
 263              	.LVL30:
  97:Core/Src/u8g2/Src/u8x8_capture.c ****     {
 264              		.loc 1 97 25 discriminator 2 view .LVU58
 265 001c A4B2     		uxth	r4, r4
 266              	.LVL31:
 267              	.L16:
  97:Core/Src/u8g2/Src/u8x8_capture.c ****     {
 268              		.loc 1 97 17 is_stmt 1 discriminator 1 view .LVU59
  97:Core/Src/u8g2/Src/u8x8_capture.c ****     {
 269              		.loc 1 97 5 is_stmt 0 discriminator 1 view .LVU60
 270 001e B442     		cmp	r4, r6
 271 0020 09D2     		bcs	.L19
  99:Core/Src/u8g2/Src/u8x8_capture.c **** 	out("1");
 272              		.loc 1 99 7 is_stmt 1 view .LVU61
  99:Core/Src/u8g2/Src/u8x8_capture.c **** 	out("1");
 273              		.loc 1 99 12 is_stmt 0 view .LVU62
 274 0022 4346     		mov	r3, r8
 275 0024 5246     		mov	r2, r10
 276 0026 2946     		mov	r1, r5
 277 0028 2046     		mov	r0, r4
 278 002a C847     		blx	r9
 279              	.LVL32:
  99:Core/Src/u8g2/Src/u8x8_capture.c **** 	out("1");
 280              		.loc 1 99 10 view .LVU63
 281 002c 0028     		cmp	r0, #0
 282 002e F2D0     		beq	.L13
 100:Core/Src/u8g2/Src/u8x8_capture.c ****       else
 283              		.loc 1 100 2 is_stmt 1 view .LVU64
 284 0030 0748     		ldr	r0, .L21+4
 285 0032 B847     		blx	r7
 286              	.LVL33:
 287 0034 F1E7     		b	.L14
 288              	.L19:
 103:Core/Src/u8g2/Src/u8x8_capture.c ****     }
 104:Core/Src/u8g2/Src/u8x8_capture.c ****     out("\n");
 289              		.loc 1 104 5 discriminator 2 view .LVU65
 290 0036 0748     		ldr	r0, .L21+8
 291 0038 B847     		blx	r7
ARM GAS  C:\Users\MOROSH~1\AppData\Local\Temp\ccGXscXP.s 			page 8


 292              	.LVL34:
  95:Core/Src/u8g2/Src/u8x8_capture.c ****   {
 293              		.loc 1 95 22 discriminator 2 view .LVU66
  95:Core/Src/u8g2/Src/u8x8_capture.c ****   {
 294              		.loc 1 95 23 is_stmt 0 discriminator 2 view .LVU67
 295 003a 0135     		adds	r5, r5, #1
 296              	.LVL35:
  95:Core/Src/u8g2/Src/u8x8_capture.c ****   {
 297              		.loc 1 95 23 discriminator 2 view .LVU68
 298 003c ADB2     		uxth	r5, r5
 299              	.LVL36:
 300              	.L12:
  95:Core/Src/u8g2/Src/u8x8_capture.c ****   {
 301              		.loc 1 95 15 is_stmt 1 discriminator 1 view .LVU69
  95:Core/Src/u8g2/Src/u8x8_capture.c ****   {
 302              		.loc 1 95 3 is_stmt 0 discriminator 1 view .LVU70
 303 003e 5D45     		cmp	r5, fp
 304 0040 01D2     		bcs	.L20
  97:Core/Src/u8g2/Src/u8x8_capture.c ****     {
 305              		.loc 1 97 12 view .LVU71
 306 0042 0024     		movs	r4, #0
 307 0044 EBE7     		b	.L16
 308              	.L20:
 105:Core/Src/u8g2/Src/u8x8_capture.c ****   }
 106:Core/Src/u8g2/Src/u8x8_capture.c **** }
 309              		.loc 1 106 1 view .LVU72
 310 0046 BDE8F88F 		pop	{r3, r4, r5, r6, r7, r8, r9, r10, fp, pc}
 311              	.LVL37:
 312              	.L22:
 313              		.loc 1 106 1 view .LVU73
 314 004a 00BF     		.align	2
 315              	.L21:
 316 004c 04000000 		.word	.LC3
 317 0050 00000000 		.word	.LC2
 318 0054 04000000 		.word	.LC1
 319              		.cfi_endproc
 320              	.LFE3:
 322              		.section	.rodata.u8x8_capture_write_xbm_pre.str1.4,"aMS",%progbits,1
 323              		.align	2
 324              	.LC4:
 325 0000 23646566 		.ascii	"#define xbm_width \000"
 325      696E6520 
 325      78626D5F 
 325      77696474 
 325      682000
 326 0013 00       		.align	2
 327              	.LC5:
 328 0014 23646566 		.ascii	"#define xbm_height \000"
 328      696E6520 
 328      78626D5F 
 328      68656967 
 328      68742000 
 329              		.align	2
 330              	.LC6:
 331 0028 73746174 		.ascii	"static unsigned char xbm_bits[] = {\012\000"
 331      69632075 
 331      6E736967 
ARM GAS  C:\Users\MOROSH~1\AppData\Local\Temp\ccGXscXP.s 			page 9


 331      6E656420 
 331      63686172 
 332              		.section	.text.u8x8_capture_write_xbm_pre,"ax",%progbits
 333              		.align	1
 334              		.global	u8x8_capture_write_xbm_pre
 335              		.syntax unified
 336              		.thumb
 337              		.thumb_func
 339              	u8x8_capture_write_xbm_pre:
 340              	.LVL38:
 341              	.LFB4:
 107:Core/Src/u8g2/Src/u8x8_capture.c **** 
 108:Core/Src/u8g2/Src/u8x8_capture.c **** 
 109:Core/Src/u8g2/Src/u8x8_capture.c **** 
 110:Core/Src/u8g2/Src/u8x8_capture.c **** 
 111:Core/Src/u8g2/Src/u8x8_capture.c **** void u8x8_capture_write_xbm_pre(uint8_t tile_width, uint8_t tile_height, void (*out)(const char *s)
 112:Core/Src/u8g2/Src/u8x8_capture.c **** {
 342              		.loc 1 112 1 is_stmt 1 view -0
 343              		.cfi_startproc
 344              		@ args = 0, pretend = 0, frame = 0
 345              		@ frame_needed = 0, uses_anonymous_args = 0
 346              		.loc 1 112 1 is_stmt 0 view .LVU75
 347 0000 70B5     		push	{r4, r5, r6, lr}
 348              	.LCFI2:
 349              		.cfi_def_cfa_offset 16
 350              		.cfi_offset 4, -16
 351              		.cfi_offset 5, -12
 352              		.cfi_offset 6, -8
 353              		.cfi_offset 14, -4
 354 0002 0646     		mov	r6, r0
 355 0004 0D46     		mov	r5, r1
 356 0006 1446     		mov	r4, r2
 113:Core/Src/u8g2/Src/u8x8_capture.c ****   out("#define xbm_width ");
 357              		.loc 1 113 3 is_stmt 1 view .LVU76
 358 0008 0948     		ldr	r0, .L25
 359              	.LVL39:
 360              		.loc 1 113 3 is_stmt 0 view .LVU77
 361 000a 9047     		blx	r2
 362              	.LVL40:
 114:Core/Src/u8g2/Src/u8x8_capture.c ****   out(u8x8_utoa((uint16_t)tile_width*8));
 363              		.loc 1 114 3 is_stmt 1 view .LVU78
 364 000c F000     		lsls	r0, r6, #3
 365 000e FFF7FEFF 		bl	u8x8_utoa
 366              	.LVL41:
 367 0012 A047     		blx	r4
 368              	.LVL42:
 115:Core/Src/u8g2/Src/u8x8_capture.c ****   out("\n");
 369              		.loc 1 115 3 view .LVU79
 370 0014 074E     		ldr	r6, .L25+4
 371 0016 3046     		mov	r0, r6
 372 0018 A047     		blx	r4
 373              	.LVL43:
 116:Core/Src/u8g2/Src/u8x8_capture.c ****   out("#define xbm_height ");
 374              		.loc 1 116 3 view .LVU80
 375 001a 0748     		ldr	r0, .L25+8
 376 001c A047     		blx	r4
 377              	.LVL44:
ARM GAS  C:\Users\MOROSH~1\AppData\Local\Temp\ccGXscXP.s 			page 10


 117:Core/Src/u8g2/Src/u8x8_capture.c ****   out(u8x8_utoa((uint16_t)tile_height*8));
 378              		.loc 1 117 3 view .LVU81
 379 001e E800     		lsls	r0, r5, #3
 380 0020 FFF7FEFF 		bl	u8x8_utoa
 381              	.LVL45:
 382 0024 A047     		blx	r4
 383              	.LVL46:
 118:Core/Src/u8g2/Src/u8x8_capture.c ****   out("\n");  
 384              		.loc 1 118 3 view .LVU82
 385 0026 3046     		mov	r0, r6
 386 0028 A047     		blx	r4
 387              	.LVL47:
 119:Core/Src/u8g2/Src/u8x8_capture.c ****   out("static unsigned char xbm_bits[] = {\n");  
 388              		.loc 1 119 3 view .LVU83
 389 002a 0448     		ldr	r0, .L25+12
 390 002c A047     		blx	r4
 391              	.LVL48:
 120:Core/Src/u8g2/Src/u8x8_capture.c **** }
 392              		.loc 1 120 1 is_stmt 0 view .LVU84
 393 002e 70BD     		pop	{r4, r5, r6, pc}
 394              	.LVL49:
 395              	.L26:
 396              		.loc 1 120 1 view .LVU85
 397              		.align	2
 398              	.L25:
 399 0030 00000000 		.word	.LC4
 400 0034 04000000 		.word	.LC1
 401 0038 14000000 		.word	.LC5
 402 003c 28000000 		.word	.LC6
 403              		.cfi_endproc
 404              	.LFE4:
 406              		.section	.rodata.u8x8_capture_write_xbm_buffer.str1.4,"aMS",%progbits,1
 407              		.align	2
 408              	.LC7:
 409 0000 307800   		.ascii	"0x\000"
 410 0003 00       		.align	2
 411              	.LC8:
 412 0004 2C00     		.ascii	",\000"
 413 0006 0000     		.align	2
 414              	.LC9:
 415 0008 7D3B0A00 		.ascii	"};\012\000"
 416              		.section	.text.u8x8_capture_write_xbm_buffer,"ax",%progbits
 417              		.align	1
 418              		.global	u8x8_capture_write_xbm_buffer
 419              		.syntax unified
 420              		.thumb
 421              		.thumb_func
 423              	u8x8_capture_write_xbm_buffer:
 424              	.LVL50:
 425              	.LFB5:
 121:Core/Src/u8g2/Src/u8x8_capture.c **** 
 122:Core/Src/u8g2/Src/u8x8_capture.c **** void u8x8_capture_write_xbm_buffer(uint8_t *buffer, uint8_t tile_width, uint8_t tile_height, uint8_
 123:Core/Src/u8g2/Src/u8x8_capture.c **** {
 426              		.loc 1 123 1 is_stmt 1 view -0
 427              		.cfi_startproc
 428              		@ args = 4, pretend = 0, frame = 16
 429              		@ frame_needed = 0, uses_anonymous_args = 0
ARM GAS  C:\Users\MOROSH~1\AppData\Local\Temp\ccGXscXP.s 			page 11


 430              		.loc 1 123 1 is_stmt 0 view .LVU87
 431 0000 2DE9F04F 		push	{r4, r5, r6, r7, r8, r9, r10, fp, lr}
 432              	.LCFI3:
 433              		.cfi_def_cfa_offset 36
 434              		.cfi_offset 4, -36
 435              		.cfi_offset 5, -32
 436              		.cfi_offset 6, -28
 437              		.cfi_offset 7, -24
 438              		.cfi_offset 8, -20
 439              		.cfi_offset 9, -16
 440              		.cfi_offset 10, -12
 441              		.cfi_offset 11, -8
 442              		.cfi_offset 14, -4
 443 0004 85B0     		sub	sp, sp, #20
 444              	.LCFI4:
 445              		.cfi_def_cfa_offset 56
 446 0006 8246     		mov	r10, r0
 447 0008 8846     		mov	r8, r1
 448 000a 9946     		mov	r9, r3
 449 000c DDF838B0 		ldr	fp, [sp, #56]
 124:Core/Src/u8g2/Src/u8x8_capture.c ****   uint16_t x, y;
 450              		.loc 1 124 3 is_stmt 1 view .LVU88
 125:Core/Src/u8g2/Src/u8x8_capture.c ****   uint16_t w, h;
 451              		.loc 1 125 3 view .LVU89
 126:Core/Src/u8g2/Src/u8x8_capture.c ****   uint8_t v, b;
 452              		.loc 1 126 3 view .LVU90
 127:Core/Src/u8g2/Src/u8x8_capture.c ****   char s[2];
 453              		.loc 1 127 3 view .LVU91
 128:Core/Src/u8g2/Src/u8x8_capture.c ****   s[1] = '\0';
 454              		.loc 1 128 3 view .LVU92
 455              		.loc 1 128 8 is_stmt 0 view .LVU93
 456 0010 0027     		movs	r7, #0
 457 0012 8DF80D70 		strb	r7, [sp, #13]
 129:Core/Src/u8g2/Src/u8x8_capture.c **** 
 130:Core/Src/u8g2/Src/u8x8_capture.c ****   w = tile_width;
 458              		.loc 1 130 3 is_stmt 1 view .LVU94
 459              	.LVL51:
 131:Core/Src/u8g2/Src/u8x8_capture.c ****   w *= 8;
 460              		.loc 1 131 3 view .LVU95
 461              		.loc 1 131 5 is_stmt 0 view .LVU96
 462 0016 CB00     		lsls	r3, r1, #3
 463              	.LVL52:
 464              		.loc 1 131 5 view .LVU97
 465 0018 0093     		str	r3, [sp]
 466              	.LVL53:
 132:Core/Src/u8g2/Src/u8x8_capture.c ****   h = tile_height;
 467              		.loc 1 132 3 is_stmt 1 view .LVU98
 133:Core/Src/u8g2/Src/u8x8_capture.c ****   h *= 8;
 468              		.loc 1 133 3 view .LVU99
 469              		.loc 1 133 5 is_stmt 0 view .LVU100
 470 001a D300     		lsls	r3, r2, #3
 471 001c 0193     		str	r3, [sp, #4]
 472              	.LVL54:
 134:Core/Src/u8g2/Src/u8x8_capture.c **** 
 135:Core/Src/u8g2/Src/u8x8_capture.c ****   y = 0;
 473              		.loc 1 135 3 is_stmt 1 view .LVU101
 474              		.loc 1 135 3 is_stmt 0 view .LVU102
ARM GAS  C:\Users\MOROSH~1\AppData\Local\Temp\ccGXscXP.s 			page 12


 475 001e 44E0     		b	.L38
 476              	.LVL55:
 477              	.L29:
 136:Core/Src/u8g2/Src/u8x8_capture.c ****   for(;;)
 137:Core/Src/u8g2/Src/u8x8_capture.c ****   {
 138:Core/Src/u8g2/Src/u8x8_capture.c ****     x = 0;
 139:Core/Src/u8g2/Src/u8x8_capture.c ****     for(;;)
 140:Core/Src/u8g2/Src/u8x8_capture.c ****     {
 141:Core/Src/u8g2/Src/u8x8_capture.c ****       v = 0;
 142:Core/Src/u8g2/Src/u8x8_capture.c ****       for( b = 0; b < 8; b++ )
 478              		.loc 1 142 26 is_stmt 1 discriminator 2 view .LVU103
 479              		.loc 1 142 27 is_stmt 0 discriminator 2 view .LVU104
 480 0020 0134     		adds	r4, r4, #1
 481              	.LVL56:
 482              		.loc 1 142 27 discriminator 2 view .LVU105
 483 0022 E4B2     		uxtb	r4, r4
 484              	.LVL57:
 485              	.L28:
 486              		.loc 1 142 19 is_stmt 1 discriminator 1 view .LVU106
 487              		.loc 1 142 7 is_stmt 0 discriminator 1 view .LVU107
 488 0024 072C     		cmp	r4, #7
 489 0026 0ED8     		bhi	.L40
 143:Core/Src/u8g2/Src/u8x8_capture.c ****       {
 144:Core/Src/u8g2/Src/u8x8_capture.c **** 	v <<= 1;
 490              		.loc 1 144 2 is_stmt 1 view .LVU108
 491              		.loc 1 144 4 is_stmt 0 view .LVU109
 492 0028 6D00     		lsls	r5, r5, #1
 493              	.LVL58:
 494              		.loc 1 144 4 view .LVU110
 495 002a EDB2     		uxtb	r5, r5
 496              	.LVL59:
 145:Core/Src/u8g2/Src/u8x8_capture.c **** 	if ( get_pixel(x+7-b, y, buffer, tile_width) )
 497              		.loc 1 145 2 is_stmt 1 view .LVU111
 498              		.loc 1 145 20 is_stmt 0 view .LVU112
 499 002c 301B     		subs	r0, r6, r4
 500 002e 80B2     		uxth	r0, r0
 501              		.loc 1 145 7 view .LVU113
 502 0030 0730     		adds	r0, r0, #7
 503 0032 4346     		mov	r3, r8
 504 0034 5246     		mov	r2, r10
 505 0036 3946     		mov	r1, r7
 506 0038 80B2     		uxth	r0, r0
 507 003a C847     		blx	r9
 508              	.LVL60:
 509              		.loc 1 145 5 view .LVU114
 510 003c 0028     		cmp	r0, #0
 511 003e EFD0     		beq	.L29
 146:Core/Src/u8g2/Src/u8x8_capture.c **** 	  v |= 1;
 512              		.loc 1 146 4 is_stmt 1 view .LVU115
 513              		.loc 1 146 6 is_stmt 0 view .LVU116
 514 0040 45F00105 		orr	r5, r5, #1
 515              	.LVL61:
 516              		.loc 1 146 6 view .LVU117
 517 0044 ECE7     		b	.L29
 518              	.L40:
 147:Core/Src/u8g2/Src/u8x8_capture.c ****       }
 148:Core/Src/u8g2/Src/u8x8_capture.c ****       out("0x");
ARM GAS  C:\Users\MOROSH~1\AppData\Local\Temp\ccGXscXP.s 			page 13


 519              		.loc 1 148 7 is_stmt 1 view .LVU118
 520 0046 1C48     		ldr	r0, .L41
 521 0048 D847     		blx	fp
 522              	.LVL62:
 149:Core/Src/u8g2/Src/u8x8_capture.c ****       s[0] = (v>>4);
 523              		.loc 1 149 7 view .LVU119
 524              		.loc 1 149 12 is_stmt 0 view .LVU120
 525 004a 2B09     		lsrs	r3, r5, #4
 526 004c 8DF80C30 		strb	r3, [sp, #12]
 150:Core/Src/u8g2/Src/u8x8_capture.c ****       if ( s[0] <= 9 )
 527              		.loc 1 150 7 is_stmt 1 view .LVU121
 528              		.loc 1 150 10 is_stmt 0 view .LVU122
 529 0050 092B     		cmp	r3, #9
 530 0052 19D8     		bhi	.L31
 151:Core/Src/u8g2/Src/u8x8_capture.c **** 	s[0] += '0';
 531              		.loc 1 151 2 is_stmt 1 view .LVU123
 532              		.loc 1 151 7 is_stmt 0 view .LVU124
 533 0054 3033     		adds	r3, r3, #48
 534 0056 8DF80C30 		strb	r3, [sp, #12]
 535              	.L32:
 152:Core/Src/u8g2/Src/u8x8_capture.c ****       else
 153:Core/Src/u8g2/Src/u8x8_capture.c **** 	s[0] += 'a'-10;
 154:Core/Src/u8g2/Src/u8x8_capture.c ****       out(s);
 536              		.loc 1 154 7 is_stmt 1 view .LVU125
 537 005a 03A8     		add	r0, sp, #12
 538 005c D847     		blx	fp
 539              	.LVL63:
 155:Core/Src/u8g2/Src/u8x8_capture.c ****       s[0] = (v&15);
 540              		.loc 1 155 7 view .LVU126
 541              		.loc 1 155 16 is_stmt 0 view .LVU127
 542 005e 05F00F05 		and	r5, r5, #15
 543              	.LVL64:
 544              		.loc 1 155 12 view .LVU128
 545 0062 8DF80C50 		strb	r5, [sp, #12]
 156:Core/Src/u8g2/Src/u8x8_capture.c ****       if ( s[0] <= 9 )
 546              		.loc 1 156 7 is_stmt 1 view .LVU129
 547              		.loc 1 156 10 is_stmt 0 view .LVU130
 548 0066 092D     		cmp	r5, #9
 549 0068 12D8     		bhi	.L33
 157:Core/Src/u8g2/Src/u8x8_capture.c **** 	s[0] += '0';
 550              		.loc 1 157 2 is_stmt 1 view .LVU131
 551              		.loc 1 157 7 is_stmt 0 view .LVU132
 552 006a 3035     		adds	r5, r5, #48
 553 006c 8DF80C50 		strb	r5, [sp, #12]
 554              	.L34:
 158:Core/Src/u8g2/Src/u8x8_capture.c ****       else
 159:Core/Src/u8g2/Src/u8x8_capture.c **** 	s[0] += 'a'-10;
 160:Core/Src/u8g2/Src/u8x8_capture.c ****       out(s);
 555              		.loc 1 160 7 is_stmt 1 view .LVU133
 556 0070 03A8     		add	r0, sp, #12
 557 0072 D847     		blx	fp
 558              	.LVL65:
 161:Core/Src/u8g2/Src/u8x8_capture.c ****       x += 8;
 559              		.loc 1 161 7 view .LVU134
 560              		.loc 1 161 9 is_stmt 0 view .LVU135
 561 0074 0836     		adds	r6, r6, #8
 562              	.LVL66:
ARM GAS  C:\Users\MOROSH~1\AppData\Local\Temp\ccGXscXP.s 			page 14


 563              		.loc 1 161 9 view .LVU136
 564 0076 B6B2     		uxth	r6, r6
 565              	.LVL67:
 162:Core/Src/u8g2/Src/u8x8_capture.c ****       if ( x >= w )
 566              		.loc 1 162 7 is_stmt 1 view .LVU137
 567              		.loc 1 162 10 is_stmt 0 view .LVU138
 568 0078 009B     		ldr	r3, [sp]
 569 007a B342     		cmp	r3, r6
 570 007c 0CD9     		bls	.L35
 163:Core/Src/u8g2/Src/u8x8_capture.c **** 	break;
 164:Core/Src/u8g2/Src/u8x8_capture.c ****       out(",");
 571              		.loc 1 164 7 is_stmt 1 view .LVU139
 572 007e 0F48     		ldr	r0, .L41+4
 573 0080 D847     		blx	fp
 574              	.LVL68:
 139:Core/Src/u8g2/Src/u8x8_capture.c ****     {
 575              		.loc 1 139 10 view .LVU140
 576              	.L36:
 139:Core/Src/u8g2/Src/u8x8_capture.c ****     {
 577              		.loc 1 139 5 view .LVU141
 141:Core/Src/u8g2/Src/u8x8_capture.c ****       for( b = 0; b < 8; b++ )
 578              		.loc 1 141 7 view .LVU142
 142:Core/Src/u8g2/Src/u8x8_capture.c ****       {
 579              		.loc 1 142 7 view .LVU143
 142:Core/Src/u8g2/Src/u8x8_capture.c ****       {
 580              		.loc 1 142 14 is_stmt 0 view .LVU144
 581 0082 0024     		movs	r4, #0
 141:Core/Src/u8g2/Src/u8x8_capture.c ****       for( b = 0; b < 8; b++ )
 582              		.loc 1 141 9 view .LVU145
 583 0084 2546     		mov	r5, r4
 142:Core/Src/u8g2/Src/u8x8_capture.c ****       {
 584              		.loc 1 142 7 view .LVU146
 585 0086 CDE7     		b	.L28
 586              	.LVL69:
 587              	.L31:
 153:Core/Src/u8g2/Src/u8x8_capture.c ****       out(s);
 588              		.loc 1 153 2 is_stmt 1 view .LVU147
 153:Core/Src/u8g2/Src/u8x8_capture.c ****       out(s);
 589              		.loc 1 153 7 is_stmt 0 view .LVU148
 590 0088 5733     		adds	r3, r3, #87
 591 008a 8DF80C30 		strb	r3, [sp, #12]
 592 008e E4E7     		b	.L32
 593              	.LVL70:
 594              	.L33:
 159:Core/Src/u8g2/Src/u8x8_capture.c ****       out(s);
 595              		.loc 1 159 2 is_stmt 1 view .LVU149
 159:Core/Src/u8g2/Src/u8x8_capture.c ****       out(s);
 596              		.loc 1 159 7 is_stmt 0 view .LVU150
 597 0090 5735     		adds	r5, r5, #87
 598 0092 8DF80C50 		strb	r5, [sp, #12]
 599 0096 EBE7     		b	.L34
 600              	.L35:
 165:Core/Src/u8g2/Src/u8x8_capture.c ****     }
 166:Core/Src/u8g2/Src/u8x8_capture.c ****     y++;
 601              		.loc 1 166 5 is_stmt 1 view .LVU151
 602              		.loc 1 166 6 is_stmt 0 view .LVU152
 603 0098 0137     		adds	r7, r7, #1
ARM GAS  C:\Users\MOROSH~1\AppData\Local\Temp\ccGXscXP.s 			page 15


 604              	.LVL71:
 605              		.loc 1 166 6 view .LVU153
 606 009a BFB2     		uxth	r7, r7
 607              	.LVL72:
 167:Core/Src/u8g2/Src/u8x8_capture.c ****     if ( y >= h )
 608              		.loc 1 167 5 is_stmt 1 view .LVU154
 609              		.loc 1 167 8 is_stmt 0 view .LVU155
 610 009c 019B     		ldr	r3, [sp, #4]
 611 009e BB42     		cmp	r3, r7
 612 00a0 05D9     		bls	.L37
 168:Core/Src/u8g2/Src/u8x8_capture.c ****       break;
 169:Core/Src/u8g2/Src/u8x8_capture.c ****     out(",");
 613              		.loc 1 169 5 is_stmt 1 view .LVU156
 614 00a2 0648     		ldr	r0, .L41+4
 615 00a4 D847     		blx	fp
 616              	.LVL73:
 170:Core/Src/u8g2/Src/u8x8_capture.c ****     out("\n");
 617              		.loc 1 170 5 view .LVU157
 618 00a6 0648     		ldr	r0, .L41+8
 619 00a8 D847     		blx	fp
 620              	.LVL74:
 136:Core/Src/u8g2/Src/u8x8_capture.c ****   {
 621              		.loc 1 136 8 view .LVU158
 622              	.L38:
 136:Core/Src/u8g2/Src/u8x8_capture.c ****   {
 623              		.loc 1 136 3 view .LVU159
 138:Core/Src/u8g2/Src/u8x8_capture.c ****     for(;;)
 624              		.loc 1 138 5 view .LVU160
 138:Core/Src/u8g2/Src/u8x8_capture.c ****     for(;;)
 625              		.loc 1 138 7 is_stmt 0 view .LVU161
 626 00aa 0026     		movs	r6, #0
 627 00ac E9E7     		b	.L36
 628              	.LVL75:
 629              	.L37:
 171:Core/Src/u8g2/Src/u8x8_capture.c ****   }
 172:Core/Src/u8g2/Src/u8x8_capture.c ****   out("};\n");
 630              		.loc 1 172 3 is_stmt 1 view .LVU162
 631 00ae 0548     		ldr	r0, .L41+12
 632 00b0 D847     		blx	fp
 633              	.LVL76:
 173:Core/Src/u8g2/Src/u8x8_capture.c ****   
 174:Core/Src/u8g2/Src/u8x8_capture.c **** }
 634              		.loc 1 174 1 is_stmt 0 view .LVU163
 635 00b2 05B0     		add	sp, sp, #20
 636              	.LCFI5:
 637              		.cfi_def_cfa_offset 36
 638              	.LVL77:
 639              		.loc 1 174 1 view .LVU164
 640              		@ sp needed
 641 00b4 BDE8F08F 		pop	{r4, r5, r6, r7, r8, r9, r10, fp, pc}
 642              	.LVL78:
 643              	.L42:
 644              		.loc 1 174 1 view .LVU165
 645              		.align	2
 646              	.L41:
 647 00b8 00000000 		.word	.LC7
 648 00bc 04000000 		.word	.LC8
ARM GAS  C:\Users\MOROSH~1\AppData\Local\Temp\ccGXscXP.s 			page 16


 649 00c0 04000000 		.word	.LC1
 650 00c4 08000000 		.word	.LC9
 651              		.cfi_endproc
 652              	.LFE5:
 654              		.text
 655              	.Letext0:
 656              		.file 2 "c:\\program files (x86)\\gnu arm embedded toolchain\\10 2021.10\\arm-none-eabi\\include\\
 657              		.file 3 "c:\\program files (x86)\\gnu arm embedded toolchain\\10 2021.10\\arm-none-eabi\\include\\
 658              		.file 4 "Core/Src/u8g2/Inc/u8x8.h"
ARM GAS  C:\Users\MOROSH~1\AppData\Local\Temp\ccGXscXP.s 			page 17

